SF:/rustc/79e9716c980570bfd1f666e3b16ac583f0168962/library/std/src/sys/common/thread_local/fast_local.rs
FN:80,_RNvNvNvCscYguP0v5avW_4expr1__24RECURSIVE_COUNT_TestCase6___initB5_
FN:83,_RNvNvNvCscYguP0v5avW_4expr1__24RECURSIVE_COUNT_TestCase7___getitB5_
FN:80,_RNvNvNvNtCs7fXtI9ZzZ9j_18soroban_synth_wasm4exprsg_1__29RECURSIVE_COUNT_ExprMapObject6___initB7_
FN:83,_RNvNvNvNtCs7fXtI9ZzZ9j_18soroban_synth_wasm4exprsk_1__27RECURSIVE_COUNT_ExprI256Val7___getitB7_
FN:80,_RNvNvNvNtCs7fXtI9ZzZ9j_18soroban_synth_wasm4exprsn_1__30RECURSIVE_COUNT_ExprI128Object6___initB7_
FN:80,_RNvNvNvNtCs7fXtI9ZzZ9j_18soroban_synth_wasm4exprs6_1__27RECURSIVE_COUNT_ExprU256Val6___initB7_
FN:80,_RNvNvNvNtCs7fXtI9ZzZ9j_18soroban_synth_wasm4exprsi_1__29RECURSIVE_COUNT_ExprI64Object6___initB7_
FN:83,_RNvNvNvNtCs7fXtI9ZzZ9j_18soroban_synth_wasm4exprs0_1__24RECURSIVE_COUNT_ExprVoid7___getitB7_
FN:83,_RNvNvNvNtCs7fXtI9ZzZ9j_18soroban_synth_wasm4exprs1_1__29RECURSIVE_COUNT_ExprVecObject7___getitB7_
FN:80,_RNvNvNvNtCs7fXtI9ZzZ9j_18soroban_synth_wasm4exprs8_1__27RECURSIVE_COUNT_ExprU128Val6___initB7_
FN:83,_RNvNvNvNtCs7fXtI9ZzZ9j_18soroban_synth_wasm4exprsn_1__30RECURSIVE_COUNT_ExprI128Object7___getitB7_
FN:83,_RNvNvNvNtCs7fXtI9ZzZ9j_18soroban_synth_wasm4exprsa_1__32RECURSIVE_COUNT_ExprTimepointVal7___getitB7_
FN:80,_RNvNvNvNtCs7fXtI9ZzZ9j_18soroban_synth_wasm4exprsc_1__32RECURSIVE_COUNT_ExprSymbolObject6___initB7_
FN:83,_RNvNvNvNtCs7fXtI9ZzZ9j_18soroban_synth_wasm4exprsm_1__27RECURSIVE_COUNT_ExprI128Val7___getitB7_
FN:83,_RNvNvNvNtCs7fXtI9ZzZ9j_18soroban_synth_wasm4exprst_1__33RECURSIVE_COUNT_ExprAddressObject7___getitB7_
FN:83,_RNvNvNvNtCs7fXtI9ZzZ9j_18soroban_synth_wasm4exprs5_1__26RECURSIVE_COUNT_ExprU32Val7___getitB7_
FN:80,_RNvNvNvNtCs7fXtI9ZzZ9j_18soroban_synth_wasm4exprso_1__25RECURSIVE_COUNT_ExprError6___initB7_
FN:83,_RNvNvNvNtCs7fXtI9ZzZ9j_18soroban_synth_wasm4exprs3_1__26RECURSIVE_COUNT_ExprU64Val7___getitB7_
FN:83,_RNvNvNvNtCs7fXtI9ZzZ9j_18soroban_synth_wasm4expr1__23RECURSIVE_COUNT_Expru647___getitB7_
FN:80,_RNvNvNvNtCs7fXtI9ZzZ9j_18soroban_synth_wasm4exprsh_1__26RECURSIVE_COUNT_ExprI64Val6___initB7_
FN:80,_RNvNvNvNtCs7fXtI9ZzZ9j_18soroban_synth_wasm4exprs7_1__30RECURSIVE_COUNT_ExprU256Object6___initB7_
FN:80,_RNvNvNvNtCs7fXtI9ZzZ9j_18soroban_synth_wasm4exprsf_1__31RECURSIVE_COUNT_ExprStorageType6___initB7_
FN:80,_RNvNvNvNtCs7fXtI9ZzZ9j_18soroban_synth_wasm4exprsj_1__26RECURSIVE_COUNT_ExprI32Val6___initB7_
FN:83,_RNvNvNvNtCs7fXtI9ZzZ9j_18soroban_synth_wasm4exprsc_1__32RECURSIVE_COUNT_ExprSymbolObject7___getitB7_
FN:83,_RNvNvNvNtCs7fXtI9ZzZ9j_18soroban_synth_wasm4exprs_1__23RECURSIVE_COUNT_Expri647___getitB7_
FN:80,_RNvNvNvNtCs7fXtI9ZzZ9j_18soroban_synth_wasm4exprs4_1__29RECURSIVE_COUNT_ExprU64Object6___initB7_
FN:80,_RNvNvNvNtCs7fXtI9ZzZ9j_18soroban_synth_wasm4exprsk_1__27RECURSIVE_COUNT_ExprI256Val6___initB7_
FN:83,_RNvNvNvNtCs7fXtI9ZzZ9j_18soroban_synth_wasm4exprsb_1__35RECURSIVE_COUNT_ExprTimepointObject7___getitB7_
FN:80,_RNvNvNvNtCs7fXtI9ZzZ9j_18soroban_synth_wasm4exprse_1__32RECURSIVE_COUNT_ExprStringObject6___initB7_
FN:83,_RNvNvNvNtCs7fXtI9ZzZ9j_18soroban_synth_wasm4exprsq_1__34RECURSIVE_COUNT_ExprDurationObject7___getitB7_
FN:80,_RNvNvNvNtCs7fXtI9ZzZ9j_18soroban_synth_wasm4exprsp_1__31RECURSIVE_COUNT_ExprDurationVal6___initB7_
FN:83,_RNvNvNvNtCs7fXtI9ZzZ9j_18soroban_synth_wasm4exprs4_1__29RECURSIVE_COUNT_ExprU64Object7___getitB7_
FN:80,_RNvNvNvNtCs7fXtI9ZzZ9j_18soroban_synth_wasm4exprst_1__33RECURSIVE_COUNT_ExprAddressObject6___initB7_
FN:80,_RNvNvNvNtCs7fXtI9ZzZ9j_18soroban_synth_wasm4expr1__23RECURSIVE_COUNT_Expru646___initB7_
FN:80,_RNvNvNvNtCs7fXtI9ZzZ9j_18soroban_synth_wasm4exprsl_1__30RECURSIVE_COUNT_ExprI256Object6___initB7_
FN:80,_RNvNvNvNtCs7fXtI9ZzZ9j_18soroban_synth_wasm4exprss_1__24RECURSIVE_COUNT_ExprBool6___initB7_
FN:80,_RNvNvNvNtCs7fXtI9ZzZ9j_18soroban_synth_wasm4exprs_1__23RECURSIVE_COUNT_Expri646___initB7_
FN:83,_RNvNvNvNtCs7fXtI9ZzZ9j_18soroban_synth_wasm4exprs9_1__30RECURSIVE_COUNT_ExprU128Object7___getitB7_
FN:83,_RNvNvNvNtCs7fXtI9ZzZ9j_18soroban_synth_wasm4exprsl_1__30RECURSIVE_COUNT_ExprI256Object7___getitB7_
FN:80,_RNvNvNvNtCs7fXtI9ZzZ9j_18soroban_synth_wasm4exprs1_1__29RECURSIVE_COUNT_ExprVecObject6___initB7_
FN:80,_RNvNvNvNtCs7fXtI9ZzZ9j_18soroban_synth_wasm4exprs2_1__23RECURSIVE_COUNT_ExprVal6___initB7_
FN:80,_RNvNvNvNtCs7fXtI9ZzZ9j_18soroban_synth_wasm4exprsm_1__27RECURSIVE_COUNT_ExprI128Val6___initB7_
FN:83,_RNvNvNvNtCs7fXtI9ZzZ9j_18soroban_synth_wasm4exprss_1__24RECURSIVE_COUNT_ExprBool7___getitB7_
FN:83,_RNvNvNvNtCs7fXtI9ZzZ9j_18soroban_synth_wasm4exprso_1__25RECURSIVE_COUNT_ExprError7___getitB7_
FN:80,_RNvNvNvNtCs7fXtI9ZzZ9j_18soroban_synth_wasm4exprsr_1__31RECURSIVE_COUNT_ExprBytesObject6___initB7_
FN:80,_RNvNvNvNtCs7fXtI9ZzZ9j_18soroban_synth_wasm4exprs3_1__26RECURSIVE_COUNT_ExprU64Val6___initB7_
FN:80,_RNvNvNvNtCs7fXtI9ZzZ9j_18soroban_synth_wasm4exprsd_1__26RECURSIVE_COUNT_ExprSymbol6___initB7_
FN:83,_RNvNvNvNtCs7fXtI9ZzZ9j_18soroban_synth_wasm4exprsf_1__31RECURSIVE_COUNT_ExprStorageType7___getitB7_
FN:83,_RNvNvNvNtCs7fXtI9ZzZ9j_18soroban_synth_wasm4exprsj_1__26RECURSIVE_COUNT_ExprI32Val7___getitB7_
FN:83,_RNvNvNvNtCs7fXtI9ZzZ9j_18soroban_synth_wasm4exprs2_1__23RECURSIVE_COUNT_ExprVal7___getitB7_
FN:83,_RNvNvNvNtCs7fXtI9ZzZ9j_18soroban_synth_wasm4exprs6_1__27RECURSIVE_COUNT_ExprU256Val7___getitB7_
FN:80,_RNvNvNvNtCs7fXtI9ZzZ9j_18soroban_synth_wasm4exprs9_1__30RECURSIVE_COUNT_ExprU128Object6___initB7_
FN:83,_RNvNvNvNtCs7fXtI9ZzZ9j_18soroban_synth_wasm4exprsg_1__29RECURSIVE_COUNT_ExprMapObject7___getitB7_
FN:83,_RNvNvNvNtCs7fXtI9ZzZ9j_18soroban_synth_wasm4exprsr_1__31RECURSIVE_COUNT_ExprBytesObject7___getitB7_
FN:80,_RNvNvNvNtCs7fXtI9ZzZ9j_18soroban_synth_wasm4exprsb_1__35RECURSIVE_COUNT_ExprTimepointObject6___initB7_
FN:83,_RNvNvNvNtCs7fXtI9ZzZ9j_18soroban_synth_wasm4exprsi_1__29RECURSIVE_COUNT_ExprI64Object7___getitB7_
FN:83,_RNvNvNvNtCs7fXtI9ZzZ9j_18soroban_synth_wasm4exprse_1__32RECURSIVE_COUNT_ExprStringObject7___getitB7_
FN:83,_RNvNvNvNtCs7fXtI9ZzZ9j_18soroban_synth_wasm4exprsd_1__26RECURSIVE_COUNT_ExprSymbol7___getitB7_
FN:83,_RNvNvNvNtCs7fXtI9ZzZ9j_18soroban_synth_wasm4exprsp_1__31RECURSIVE_COUNT_ExprDurationVal7___getitB7_
FN:83,_RNvNvNvNtCs7fXtI9ZzZ9j_18soroban_synth_wasm4exprs8_1__27RECURSIVE_COUNT_ExprU128Val7___getitB7_
FN:80,_RNvNvNvNtCs7fXtI9ZzZ9j_18soroban_synth_wasm4exprsa_1__32RECURSIVE_COUNT_ExprTimepointVal6___initB7_
FN:83,_RNvNvNvNtCs7fXtI9ZzZ9j_18soroban_synth_wasm4exprsh_1__26RECURSIVE_COUNT_ExprI64Val7___getitB7_
FN:80,_RNvNvNvNtCs7fXtI9ZzZ9j_18soroban_synth_wasm4exprsq_1__34RECURSIVE_COUNT_ExprDurationObject6___initB7_
FN:80,_RNvNvNvNtCs7fXtI9ZzZ9j_18soroban_synth_wasm4exprs0_1__24RECURSIVE_COUNT_ExprVoid6___initB7_
FN:80,_RNvNvNvNtCs7fXtI9ZzZ9j_18soroban_synth_wasm4exprs5_1__26RECURSIVE_COUNT_ExprU32Val6___initB7_
FN:83,_RNvNvNvNtCs7fXtI9ZzZ9j_18soroban_synth_wasm4exprs7_1__30RECURSIVE_COUNT_ExprU256Object7___getitB7_
FN:80,_RNvNvNvNtCs8j26R3SUG40_16soroban_env_host9testutils31call_with_suppressed_panic_hook24TEST_CONTRACT_CALL_COUNT6___initB7_
FN:83,_RNvNvNvNtCs8j26R3SUG40_16soroban_env_host9testutils31call_with_suppressed_panic_hook24TEST_CONTRACT_CALL_COUNT7___getitB7_
FN:83,_RNvNvNtCskSZgJjOHnrn_9backtrace4lock9LOCK_HELD7___getitB5_
FN:80,_RNvNvNtCskSZgJjOHnrn_9backtrace4lock9LOCK_HELD6___initB5_
FN:83,_RNvNvNvNtNtCs47RmZobMba4_11stellar_xdr4curr9generateds2j_1__31RECURSIVE_COUNT_LedgerEntryData7___getitB9_
FN:80,_RNvNvNvNtNtCs47RmZobMba4_11stellar_xdr4curr9generateds42_1__31RECURSIVE_COUNT_CreateAccountOp6___initB9_
FN:80,_RNvNvNvNtNtCs47RmZobMba4_11stellar_xdr4curr9generateds1V_1__28RECURSIVE_COUNT_DataEntryExt6___initB9_
FN:83,_RNvNvNvNtNtCs47RmZobMba4_11stellar_xdr4curr9generateds6q_1__25RECURSIVE_COUNT_TimePoint7___getitB9_
FN:83,_RNvNvNvNtNtCs47RmZobMba4_11stellar_xdr4curr9generateds66_1__43RECURSIVE_COUNT_LiquidityPoolWithdrawResult7___getitB9_
FN:83,_RNvNvNvNtNtCs47RmZobMba4_11stellar_xdr4curr9generateds5e_1__34RECURSIVE_COUNT_ClaimLiquidityAtom7___getitB9_
FN:80,_RNvNvNvNtNtCs47RmZobMba4_11stellar_xdr4curr9generateds6B_1__22RECURSIVE_COUNT_NodeId6___initB9_
FN:83,_RNvNvNvNtNtCs47RmZobMba4_11stellar_xdr4curr9generateds5j_1__29RECURSIVE_COUNT_PaymentResult7___getitB9_
FN:80,_RNvNvNvNtNtCs47RmZobMba4_11stellar_xdr4curr9generateds1W_1__25RECURSIVE_COUNT_DataEntry6___initB9_
FN:80,_RNvNvNvNtNtCs47RmZobMba4_11stellar_xdr4curr9generatedsz_1__31RECURSIVE_COUNT_ScSpecTypeTuple6___initB9_
FN:83,_RNvNvNvNtNtCs47RmZobMba4_11stellar_xdr4curr9generateds32_1__45RECURSIVE_COUNT_TransactionHistoryResultEntry7___getitB9_
FN:80,_RNvNvNvNtNtCs47RmZobMba4_11stellar_xdr4curr9generateds6e_1__33RECURSIVE_COUNT_OperationResultTr6___initB9_
FN:80,_RNvNvNvNtNtCs47RmZobMba4_11stellar_xdr4curr9generateds6f_1__31RECURSIVE_COUNT_OperationResult6___initB9_
FN:80,_RNvNvNvNtNtCs47RmZobMba4_11stellar_xdr4curr9generateds2T_1__32RECURSIVE_COUNT_TransactionPhase6___initB9_
FN:80,_RNvNvNvNtNtCs47RmZobMba4_11stellar_xdr4curr9generatedsp_1__29RECURSIVE_COUNT_ScEnvMetaKind6___initB9_
FN:83,_RNvNvNvNtNtCs47RmZobMba4_11stellar_xdr4curr9generateds6p_1__23RECURSIVE_COUNT_Uint2567___getitB9_
FN:80,_RNvNvNvNtNtCs47RmZobMba4_11stellar_xdr4curr9generateds4u_1__34RECURSIVE_COUNT_CreateContractArgs6___initB9_
FN:80,_RNvNvNvNtNtCs47RmZobMba4_11stellar_xdr4curr9generateds53_1__37RECURSIVE_COUNT_TransactionV1Envelope6___initB9_
FN:83,_RNvNvNvNtNtCs47RmZobMba4_11stellar_xdr4curr9generateds3r_1__31RECURSIVE_COUNT_LedgerCloseMeta7___getitB9_
FN:83,_RNvNvNvNtNtCs47RmZobMba4_11stellar_xdr4curr9generateds5d_1__30RECURSIVE_COUNT_ClaimOfferAtom7___getitB9_
FN:83,_RNvNvNvNtNtCs47RmZobMba4_11stellar_xdr4curr9generateds1z_1__22RECURSIVE_COUNT_Signer7___getitB9_
FN:80,_RNvNvNvNtNtCs47RmZobMba4_11stellar_xdr4curr9generateds6k_1__42RECURSIVE_COUNT_InnerTransactionResultPair6___initB9_
FN:80,_RNvNvNvNtNtCs47RmZobMba4_11stellar_xdr4curr9generateds1K_1__33RECURSIVE_COUNT_LiquidityPoolType6___initB9_
FN:80,_RNvNvNvNtNtCs47RmZobMba4_11stellar_xdr4curr9generateds6b_1__42RECURSIVE_COUNT_RestoreFootprintResultCode6___initB9_
FN:83,_RNvNvNvNtNtCs47RmZobMba4_11stellar_xdr4curr9generateds62_1__39RECURSIVE_COUNT_SetTrustLineFlagsResult7___getitB9_
FN:83,_RNvNvNvNtNtCs47RmZobMba4_11stellar_xdr4curr9generateds1R_1__30RECURSIVE_COUNT_TrustLineEntry7___getitB9_
FN:83,_RNvNvNvNtNtCs47RmZobMba4_11stellar_xdr4curr9generateds3l_1__49RECURSIVE_COUNT_InvokeHostFunctionSuccessPreImage7___getitB9_
FN:83,_RNvNvNvNtNtCs47RmZobMba4_11stellar_xdr4curr9generateds4j_1__41RECURSIVE_COUNT_RevokeSponsorshipOpSigner7___getitB9_
FN:83,_RNvNvNvNtNtCs47RmZobMba4_11stellar_xdr4curr9generateds4A_1__41RECURSIVE_COUNT_SorobanAddressCredentials7___getitB9_
FN:83,_RNvNvNvNtNtCs47RmZobMba4_11stellar_xdr4curr9generateds1Q_1__33RECURSIVE_COUNT_TrustLineEntryExt7___getitB9_
FN:83,_RNvNvNvNtNtCs47RmZobMba4_11stellar_xdr4curr9generateds4G_1__34RECURSIVE_COUNT_RestoreFootprintOp7___getitB9_
FN:83,_RNvNvNvNtNtCs47RmZobMba4_11stellar_xdr4curr9generateds3e_1__33RECURSIVE_COUNT_ContractEventType7___getitB9_
FN:80,_RNvNvNvNtNtCs47RmZobMba4_11stellar_xdr4curr9generatedsl_1__32RECURSIVE_COUNT_EvictionIterator6___initB9_
FN:80,_RNvNvNvNtNtCs47RmZobMba4_11stellar_xdr4curr9generatedsh_1__48RECURSIVE_COUNT_ConfigSettingContractBandwidthV06___initB9_
FN:80,_RNvNvNvNtNtCs47RmZobMba4_11stellar_xdr4curr9generateds_1__22RECURSIVE_COUNT_BytesM6___initB9_
FN:83,_RNvNvNvNtNtCs47RmZobMba4_11stellar_xdr4curr9generateds1n_1__22RECURSIVE_COUNT_PoolId7___getitB9_
FN:80,_RNvNvNvNtNtCs47RmZobMba4_11stellar_xdr4curr9generateds16_1__23RECURSIVE_COUNT_ScBytes6___initB9_
FN:83,_RNvNvNvNtNtCs47RmZobMba4_11stellar_xdr4curr9generateds6F_1__29RECURSIVE_COUNT_HmacSha256Key7___getitB9_
FN:83,_RNvNvNvNtNtCs47RmZobMba4_11stellar_xdr4curr9generateds3C_1__27RECURSIVE_COUNT_MessageType7___getitB9_
FN:80,_RNvNvNvNtNtCs47RmZobMba4_11stellar_xdr4curr9generateds46_1__33RECURSIVE_COUNT_ManageSellOfferOp6___initB9_
FN:83,_RNvNvNvNtNtCs47RmZobMba4_11stellar_xdr4curr9generateds1j_1__24RECURSIVE_COUNT_String327___getitB9_
FN:83,_RNvNvNvNtNtCs47RmZobMba4_11stellar_xdr4curr9generateds2p_1__29RECURSIVE_COUNT_LedgerKeyData7___getitB9_
FN:83,_RNvNvNvNtNtCs47RmZobMba4_11stellar_xdr4curr9generatedsN_1__36RECURSIVE_COUNT_ScSpecUdtErrorEnumV07___getitB9_
FN:83,_RNvNvNvNtNtCs47RmZobMba4_11stellar_xdr4curr9generateds5D_1__32RECURSIVE_COUNT_AllowTrustResult7___getitB9_
FN:80,_RNvNvNvNtNtCs47RmZobMba4_11stellar_xdr4curr9generateds5_1__35RECURSIVE_COUNT_ScpStatementPrepare6___initB9_
FN:83,_RNvNvNvNtNtCs47RmZobMba4_11stellar_xdr4curr9generateds2S_1__30RECURSIVE_COUNT_TxSetComponent7___getitB9_
FN:80,_RNvNvNvNtNtCs47RmZobMba4_11stellar_xdr4curr9generateds4r_1__38RECURSIVE_COUNT_ContractIdPreimageType6___initB9_
FN:83,_RNvNvNvNtNtCs47RmZobMba4_11stellar_xdr4curr9generateds27_1__40RECURSIVE_COUNT_ClaimableBalanceEntryExt7___getitB9_
FN:83,_RNvNvNvNtNtCs47RmZobMba4_11stellar_xdr4curr9generateds1i_1__26RECURSIVE_COUNT_Thresholds7___getitB9_
FN:83,_RNvNvNvNtNtCs47RmZobMba4_11stellar_xdr4curr9generateds5r_1__41RECURSIVE_COUNT_ManageSellOfferResultCode7___getitB9_
FN:80,_RNvNvNvNtNtCs47RmZobMba4_11stellar_xdr4curr9generateds5E_1__38RECURSIVE_COUNT_AccountMergeResultCode6___initB9_
FN:80,_RNvNvNvNtNtCs47RmZobMba4_11stellar_xdr4curr9generateds5m_1__53RECURSIVE_COUNT_PathPaymentStrictReceiveResultSuccess6___initB9_
FN:80,_RNvNvNvNtNtCs47RmZobMba4_11stellar_xdr4curr9generateds3M_1__28RECURSIVE_COUNT_PeerStatList6___initB9_
FN:80,_RNvNvNvNtNtCs47RmZobMba4_11stellar_xdr4curr9generatedsy_1__29RECURSIVE_COUNT_ScSpecTypeMap6___initB9_
FN:83,_RNvNvNvNtNtCs47RmZobMba4_11stellar_xdr4curr9generateds2R_1__51RECURSIVE_COUNT_TxSetComponentTxsMaybeDiscountedFee7___getitB9_
FN:80,_RNvNvNvNtNtCs47RmZobMba4_11stellar_xdr4curr9generateds6j_1__38RECURSIVE_COUNT_InnerTransactionResult6___initB9_
FN:80,_RNvNvNvNtNtCs47RmZobMba4_11stellar_xdr4curr9generatedsS_1__25RECURSIVE_COUNT_ScValType6___initB9_
FN:83,_RNvNvNvNtNtCs47RmZobMba4_11stellar_xdr4curr9generateds48_1__40RECURSIVE_COUNT_CreatePassiveSellOfferOp7___getitB9_
FN:80,_RNvNvNvNtNtCs47RmZobMba4_11stellar_xdr4curr9generateds3w_1__24RECURSIVE_COUNT_AuthCert6___initB9_
FN:80,_RNvNvNvNtNtCs47RmZobMba4_11stellar_xdr4curr9generatedst_1__27RECURSIVE_COUNT_ScMetaEntry6___initB9_
FN:80,_RNvNvNvNtNtCs47RmZobMba4_11stellar_xdr4curr9generateds3W_1__36RECURSIVE_COUNT_AuthenticatedMessage6___initB9_
FN:83,_RNvNvNvNtNtCs47RmZobMba4_11stellar_xdr4curr9generatedsI_1__36RECURSIVE_COUNT_ScSpecUdtUnionCaseV07___getitB9_
FN:83,_RNvNvNvNtNtCs47RmZobMba4_11stellar_xdr4curr9generateds2k_1__30RECURSIVE_COUNT_LedgerEntryExt7___getitB9_
FN:83,_RNvNvNvNtNtCs47RmZobMba4_11stellar_xdr4curr9generateds1P_1__32RECURSIVE_COUNT_TrustLineEntryV17___getitB9_
FN:83,_RNvNvNvNtNtCs47RmZobMba4_11stellar_xdr4curr9generateds57_1__42RECURSIVE_COUNT_FeeBumpTransactionEnvelope7___getitB9_
FN:80,_RNvNvNvNtNtCs47RmZobMba4_11stellar_xdr4curr9generateds51_1__30RECURSIVE_COUNT_TransactionExt6___initB9_
FN:83,_RNvNvNvNtNtCs47RmZobMba4_11stellar_xdr4curr9generatedsW_1__28RECURSIVE_COUNT_UInt128Parts7___getitB9_
FN:83,_RNvNvNvNtNtCs47RmZobMba4_11stellar_xdr4curr9generateds3S_1__30RECURSIVE_COUNT_TxDemandVector7___getitB9_
FN:80,_RNvNvNvNtNtCs47RmZobMba4_11stellar_xdr4curr9generateds2N_1__33RECURSIVE_COUNT_BucketMetadataExt6___initB9_
FN:83,_RNvNvNvNtNtCs47RmZobMba4_11stellar_xdr4curr9generateds2v_1__28RECURSIVE_COUNT_LedgerKeyTtl7___getitB9_
FN:80,_RNvNvNvNtNtCs47RmZobMba4_11stellar_xdr4curr9generateds3e_1__33RECURSIVE_COUNT_ContractEventType6___initB9_
FN:83,_RNvNvNvNtNtCs47RmZobMba4_11stellar_xdr4curr9generateds6n_1__33RECURSIVE_COUNT_TransactionResult7___getitB9_
FN:83,_RNvNvNvNtNtCs47RmZobMba4_11stellar_xdr4curr9generateds4Q_1__26RECURSIVE_COUNT_TimeBounds7___getitB9_
FN:80,_RNvNvNvNtNtCs47RmZobMba4_11stellar_xdr4curr9generateds3G_1__36RECURSIVE_COUNT_SurveyRequestMessage6___initB9_
FN:83,_RNvNvNvNtNtCs47RmZobMba4_11stellar_xdr4curr9generatedss_1__26RECURSIVE_COUNT_ScMetaKind7___getitB9_
FN:83,_RNvNvNvNtNtCs47RmZobMba4_11stellar_xdr4curr9generateds4z_1__43RECURSIVE_COUNT_SorobanAuthorizedInvocation7___getitB9_
FN:80,_RNvNvNvNtNtCs47RmZobMba4_11stellar_xdr4curr9generateds1c_1__26RECURSIVE_COUNT_ScMapEntry6___initB9_
FN:83,_RNvNvNvNtNtCs47RmZobMba4_11stellar_xdr4curr9generateds56_1__34RECURSIVE_COUNT_FeeBumpTransaction7___getitB9_
FN:80,_RNvNvNvNtNtCs47RmZobMba4_11stellar_xdr4curr9generateds12_1__29RECURSIVE_COUNT_ScAddressType6___initB9_
FN:83,_RNvNvNvNtNtCs47RmZobMba4_11stellar_xdr4curr9generateds1O_1__35RECURSIVE_COUNT_TrustLineEntryV1Ext7___getitB9_
FN:80,_RNvNvNvNtNtCs47RmZobMba4_11stellar_xdr4curr9generatedsN_1__36RECURSIVE_COUNT_ScSpecUdtErrorEnumV06___initB9_
FN:80,_RNvNvNvNtNtCs47RmZobMba4_11stellar_xdr4curr9generateds57_1__42RECURSIVE_COUNT_FeeBumpTransactionEnvelope6___initB9_
FN:83,_RNvNvNvNtNtCs47RmZobMba4_11stellar_xdr4curr9generateds6t_1__29RECURSIVE_COUNT_CryptoKeyType7___getitB9_
FN:83,_RNvNvNvNtNtCs47RmZobMba4_11stellar_xdr4curr9generateds2w_1__25RECURSIVE_COUNT_LedgerKey7___getitB9_
FN:83,_RNvNvNvNtNtCs47RmZobMba4_11stellar_xdr4curr9generateds5X_1__34RECURSIVE_COUNT_ClawbackResultCode7___getitB9_
FN:80,_RNvNvNvNtNtCs47RmZobMba4_11stellar_xdr4curr9generateds4a_1__32RECURSIVE_COUNT_ChangeTrustAsset6___initB9_
FN:80,_RNvNvNvNtNtCs47RmZobMba4_11stellar_xdr4curr9generateds27_1__40RECURSIVE_COUNT_ClaimableBalanceEntryExt6___initB9_
FN:80,_RNvNvNvNtNtCs47RmZobMba4_11stellar_xdr4curr9generateds5r_1__41RECURSIVE_COUNT_ManageSellOfferResultCode6___initB9_
FN:83,_RNvNvNvNtNtCs47RmZobMba4_11stellar_xdr4curr9generateds4V_1__31RECURSIVE_COUNT_LedgerFootprint7___getitB9_
FN:80,_RNvNvNvNtNtCs47RmZobMba4_11stellar_xdr4curr9generateds14_1__21RECURSIVE_COUNT_ScVec6___initB9_
FN:83,_RNvNvNvNtNtCs47RmZobMba4_11stellar_xdr4curr9generateds2e_1__33RECURSIVE_COUNT_ContractDataEntry7___getitB9_
FN:83,_RNvNvNvNtNtCs47RmZobMba4_11stellar_xdr4curr9generateds42_1__31RECURSIVE_COUNT_CreateAccountOp7___getitB9_
FN:83,_RNvNvNvNtNtCs47RmZobMba4_11stellar_xdr4curr9generateds2V_1__32RECURSIVE_COUNT_TransactionSetV17___getitB9_
FN:80,_RNvNvNvNtNtCs47RmZobMba4_11stellar_xdr4curr9generateds5M_1__34RECURSIVE_COUNT_BumpSequenceResult6___initB9_
FN:80,_RNvNvNvNtNtCs47RmZobMba4_11stellar_xdr4curr9generateds4R_1__28RECURSIVE_COUNT_LedgerBounds6___initB9_
FN:83,_RNvNvNvNtNtCs47RmZobMba4_11stellar_xdr4curr9generateds6f_1__31RECURSIVE_COUNT_OperationResult7___getitB9_
FN:80,_RNvNvNvNtNtCs47RmZobMba4_11stellar_xdr4curr9generateds2d_1__38RECURSIVE_COUNT_ContractDataDurability6___initB9_
FN:80,_RNvNvNvNtNtCs47RmZobMba4_11stellar_xdr4curr9generateds52_1__27RECURSIVE_COUNT_Transaction6___initB9_
FN:83,_RNvNvNvNtNtCs47RmZobMba4_11stellar_xdr4curr9generateds2r_1__38RECURSIVE_COUNT_LedgerKeyLiquidityPool7___getitB9_
FN:83,_RNvNvNvNtNtCs47RmZobMba4_11stellar_xdr4curr9generateds6A_1__29RECURSIVE_COUNT_SignatureHint7___getitB9_
FN:80,_RNvNvNvNtNtCs47RmZobMba4_11stellar_xdr4curr9generateds1y_1__31RECURSIVE_COUNT_LedgerEntryType6___initB9_
FN:83,_RNvNvNvNtNtCs47RmZobMba4_11stellar_xdr4curr9generateds51_1__30RECURSIVE_COUNT_TransactionExt7___getitB9_
FN:83,_RNvNvNvNtNtCs47RmZobMba4_11stellar_xdr4curr9generateds5C_1__36RECURSIVE_COUNT_AllowTrustResultCode7___getitB9_
FN:83,_RNvNvNvNtNtCs47RmZobMba4_11stellar_xdr4curr9generatedsM_1__40RECURSIVE_COUNT_ScSpecUdtErrorEnumCaseV07___getitB9_
FN:83,_RNvNvNvNtNtCs47RmZobMba4_11stellar_xdr4curr9generateds1J_1__30RECURSIVE_COUNT_TrustLineFlags7___getitB9_
FN:80,_RNvNvNvNtNtCs47RmZobMba4_11stellar_xdr4curr9generatedsf_1__53RECURSIVE_COUNT_ConfigSettingContractHistoricalDataV06___initB9_
FN:83,_RNvNvNvNtNtCs47RmZobMba4_11stellar_xdr4curr9generateds17_1__24RECURSIVE_COUNT_ScString7___getitB9_
FN:80,_RNvNvNvNtNtCs47RmZobMba4_11stellar_xdr4curr9generateds1F_1__42RECURSIVE_COUNT_AccountEntryExtensionV1Ext6___initB9_
FN:80,_RNvNvNvNtNtCs47RmZobMba4_11stellar_xdr4curr9generateds58_1__35RECURSIVE_COUNT_TransactionEnvelope6___initB9_
FN:80,_RNvNvNvNtNtCs47RmZobMba4_11stellar_xdr4curr9generateds3x_1__21RECURSIVE_COUNT_Hello6___initB9_
FN:83,_RNvNvNvNtNtCs47RmZobMba4_11stellar_xdr4curr9generateds3t_1__22RECURSIVE_COUNT_SError7___getitB9_
FN:83,_RNvNvNvNtNtCs47RmZobMba4_11stellar_xdr4curr9generateds3_1__32RECURSIVE_COUNT_ScpStatementType7___getitB9_
FN:80,_RNvNvNvNtNtCs47RmZobMba4_11stellar_xdr4curr9generateds3K_1__43RECURSIVE_COUNT_SignedSurveyResponseMessage6___initB9_
FN:83,_RNvNvNvNtNtCs47RmZobMba4_11stellar_xdr4curr9generateds5N_1__48RECURSIVE_COUNT_CreateClaimableBalanceResultCode7___getitB9_
FN:83,_RNvNvNvNtNtCs47RmZobMba4_11stellar_xdr4curr9generatedsa_1__27RECURSIVE_COUNT_ScpEnvelope7___getitB9_
FN:80,_RNvNvNvNtNtCs47RmZobMba4_11stellar_xdr4curr9generateds2R_1__51RECURSIVE_COUNT_TxSetComponentTxsMaybeDiscountedFee6___initB9_
FN:80,_RNvNvNvNtNtCs47RmZobMba4_11stellar_xdr4curr9generateds5b_1__29RECURSIVE_COUNT_ClaimAtomType6___initB9_
FN:83,_RNvNvNvNtNtCs47RmZobMba4_11stellar_xdr4curr9generatedsA_1__32RECURSIVE_COUNT_ScSpecTypeBytesN7___getitB9_
FN:83,_RNvNvNvNtNtCs47RmZobMba4_11stellar_xdr4curr9generateds33_1__43RECURSIVE_COUNT_LedgerHeaderHistoryEntryExt7___getitB9_
FN:80,_RNvNvNvNtNtCs47RmZobMba4_11stellar_xdr4curr9generateds1E_1__39RECURSIVE_COUNT_AccountEntryExtensionV26___initB9_
FN:83,_RNvNvNvNtNtCs47RmZobMba4_11stellar_xdr4curr9generateds5h_1__35RECURSIVE_COUNT_CreateAccountResult7___getitB9_
FN:80,_RNvNvNvNtNtCs47RmZobMba4_11stellar_xdr4curr9generateds1o_1__26RECURSIVE_COUNT_AssetCode46___initB9_
FN:83,_RNvNvNvNtNtCs47RmZobMba4_11stellar_xdr4curr9generateds5q_1__43RECURSIVE_COUNT_PathPaymentStrictSendResult7___getitB9_
FN:80,_RNvNvNvNtNtCs47RmZobMba4_11stellar_xdr4curr9generateds5S_1__51RECURSIVE_COUNT_BeginSponsoringFutureReservesResult6___initB9_
FN:80,_RNvNvNvNtNtCs47RmZobMba4_11stellar_xdr4curr9generateds2P_1__27RECURSIVE_COUNT_BucketEntry6___initB9_
FN:83,_RNvNvNvNtNtCs47RmZobMba4_11stellar_xdr4curr9generateds4n_1__35RECURSIVE_COUNT_SetTrustLineFlagsOp7___getitB9_
FN:83,_RNvNvNvNtNtCs47RmZobMba4_11stellar_xdr4curr9generateds5S_1__51RECURSIVE_COUNT_BeginSponsoringFutureReservesResult7___getitB9_
FN:80,_RNvNvNvNtNtCs47RmZobMba4_11stellar_xdr4curr9generateds4O_1__24RECURSIVE_COUNT_MemoType6___initB9_
FN:80,_RNvNvNvNtNtCs47RmZobMba4_11stellar_xdr4curr9generatedsC_1__29RECURSIVE_COUNT_ScSpecTypeDef6___initB9_
FN:80,_RNvNvNvNtNtCs47RmZobMba4_11stellar_xdr4curr9generateds2p_1__29RECURSIVE_COUNT_LedgerKeyData6___initB9_
FN:83,_RNvNvNvNtNtCs47RmZobMba4_11stellar_xdr4curr9generateds3g_1__33RECURSIVE_COUNT_ContractEventBody7___getitB9_
FN:80,_RNvNvNvNtNtCs47RmZobMba4_11stellar_xdr4curr9generateds5D_1__32RECURSIVE_COUNT_AllowTrustResult6___initB9_
FN:80,_RNvNvNvNtNtCs47RmZobMba4_11stellar_xdr4curr9generateds5C_1__36RECURSIVE_COUNT_AllowTrustResultCode6___initB9_
FN:83,_RNvNvNvNtNtCs47RmZobMba4_11stellar_xdr4curr9generateds46_1__33RECURSIVE_COUNT_ManageSellOfferOp7___getitB9_
FN:83,_RNvNvNvNtNtCs47RmZobMba4_11stellar_xdr4curr9generateds3B_1__27RECURSIVE_COUNT_PeerAddress7___getitB9_
FN:83,_RNvNvNvNtNtCs47RmZobMba4_11stellar_xdr4curr9generateds3F_1__41RECURSIVE_COUNT_SurveyMessageResponseType7___getitB9_
FN:80,_RNvNvNvNtNtCs47RmZobMba4_11stellar_xdr4curr9generateds3m_1__31RECURSIVE_COUNT_TransactionMeta6___initB9_
FN:83,_RNvNvNvNtNtCs47RmZobMba4_11stellar_xdr4curr9generateds4U_1__29RECURSIVE_COUNT_Preconditions7___getitB9_
FN:80,_RNvNvNvNtNtCs47RmZobMba4_11stellar_xdr4curr9generateds1C_1__39RECURSIVE_COUNT_AccountEntryExtensionV36___initB9_
FN:83,_RNvNvNvNtNtCs47RmZobMba4_11stellar_xdr4curr9generateds55_1__37RECURSIVE_COUNT_FeeBumpTransactionExt7___getitB9_
FN:83,_RNvNvNvNtNtCs47RmZobMba4_11stellar_xdr4curr9generateds1Z_1__28RECURSIVE_COUNT_ClaimantType7___getitB9_
FN:83,_RNvNvNvNtNtCs47RmZobMba4_11stellar_xdr4curr9generateds11_1__34RECURSIVE_COUNT_ContractExecutable7___getitB9_
FN:80,_RNvNvNvNtNtCs47RmZobMba4_11stellar_xdr4curr9generateds31_1__48RECURSIVE_COUNT_TransactionHistoryResultEntryExt6___initB9_
FN:83,_RNvNvNvNtNtCs47RmZobMba4_11stellar_xdr4curr9generateds7_1__39RECURSIVE_COUNT_ScpStatementExternalize7___getitB9_
FN:83,_RNvNvNvNtNtCs47RmZobMba4_11stellar_xdr4curr9generatedsR_1__27RECURSIVE_COUNT_ScSpecEntry7___getitB9_
FN:83,_RNvNvNvNtNtCs47RmZobMba4_11stellar_xdr4curr9generateds3o_1__32RECURSIVE_COUNT_UpgradeEntryMeta7___getitB9_
FN:80,_RNvNvNvNtNtCs47RmZobMba4_11stellar_xdr4curr9generateds3X_1__39RECURSIVE_COUNT_LiquidityPoolParameters6___initB9_
FN:83,_RNvNvNvNtNtCs47RmZobMba4_11stellar_xdr4curr9generateds69_1__44RECURSIVE_COUNT_ExtendFootprintTtlResultCode7___getitB9_
FN:83,_RNvNvNvNtNtCs47RmZobMba4_11stellar_xdr4curr9generateds5m_1__53RECURSIVE_COUNT_PathPaymentStrictReceiveResultSuccess7___getitB9_
FN:80,_RNvNvNvNtNtCs47RmZobMba4_11stellar_xdr4curr9generateds6i_1__41RECURSIVE_COUNT_InnerTransactionResultExt6___initB9_
FN:80,_RNvNvNvNtNtCs47RmZobMba4_11stellar_xdr4curr9generateds5L_1__38RECURSIVE_COUNT_BumpSequenceResultCode6___initB9_
FN:83,_RNvNvNvNtNtCs47RmZobMba4_11stellar_xdr4curr9generateds2I_1__33RECURSIVE_COUNT_LedgerUpgradeType7___getitB9_
FN:80,_RNvNvNvNtNtCs47RmZobMba4_11stellar_xdr4curr9generateds1J_1__30RECURSIVE_COUNT_TrustLineFlags6___initB9_
FN:80,_RNvNvNvNtNtCs47RmZobMba4_11stellar_xdr4curr9generateds3v_1__32RECURSIVE_COUNT_SendMoreExtended6___initB9_
FN:83,_RNvNvNvNtNtCs47RmZobMba4_11stellar_xdr4curr9generateds6o_1__20RECURSIVE_COUNT_Hash7___getitB9_
FN:80,_RNvNvNvNtNtCs47RmZobMba4_11stellar_xdr4curr9generateds2G_1__31RECURSIVE_COUNT_LedgerHeaderExt6___initB9_
FN:83,_RNvNvNvNtNtCs47RmZobMba4_11stellar_xdr4curr9generateds3H_1__42RECURSIVE_COUNT_SignedSurveyRequestMessage7___getitB9_
FN:83,_RNvNvNvNtNtCs47RmZobMba4_11stellar_xdr4curr9generateds1D_1__42RECURSIVE_COUNT_AccountEntryExtensionV2Ext7___getitB9_
FN:80,_RNvNvNvNtNtCs47RmZobMba4_11stellar_xdr4curr9generateds6h_1__44RECURSIVE_COUNT_InnerTransactionResultResult6___initB9_
FN:80,_RNvNvNvNtNtCs47RmZobMba4_11stellar_xdr4curr9generateds5x_1__36RECURSIVE_COUNT_ManageBuyOfferResult6___initB9_
FN:83,_RNvNvNvNtNtCs47RmZobMba4_11stellar_xdr4curr9generated1__20RECURSIVE_COUNT_VecM7___getitB9_
FN:80,_RNvNvNvNtNtCs47RmZobMba4_11stellar_xdr4curr9generateds4h_1__47RECURSIVE_COUNT_BeginSponsoringFutureReservesOp6___initB9_
FN:83,_RNvNvNvNtNtCs47RmZobMba4_11stellar_xdr4curr9generateds5Q_1__43RECURSIVE_COUNT_ClaimClaimableBalanceResult7___getitB9_
FN:83,_RNvNvNvNtNtCs47RmZobMba4_11stellar_xdr4curr9generateds5w_1__40RECURSIVE_COUNT_ManageBuyOfferResultCode7___getitB9_
FN:83,_RNvNvNvNtNtCs47RmZobMba4_11stellar_xdr4curr9generateds2O_1__30RECURSIVE_COUNT_BucketMetadata7___getitB9_
FN:80,_RNvNvNvNtNtCs47RmZobMba4_11stellar_xdr4curr9generateds15_1__21RECURSIVE_COUNT_ScMap6___initB9_
FN:80,_RNvNvNvNtNtCs47RmZobMba4_11stellar_xdr4curr9generateds4n_1__35RECURSIVE_COUNT_SetTrustLineFlagsOp6___initB9_
FN:80,_RNvNvNvNtNtCs47RmZobMba4_11stellar_xdr4curr9generateds61_1__43RECURSIVE_COUNT_SetTrustLineFlagsResultCode6___initB9_
FN:80,_RNvNvNvNtNtCs47RmZobMba4_11stellar_xdr4curr9generateds5W_1__39RECURSIVE_COUNT_RevokeSponsorshipResult6___initB9_
FN:83,_RNvNvNvNtNtCs47RmZobMba4_11stellar_xdr4curr9generateds1f_1__35RECURSIVE_COUNT_PersistedScpStateV07___getitB9_
FN:80,_RNvNvNvNtNtCs47RmZobMba4_11stellar_xdr4curr9generateds2h_1__41RECURSIVE_COUNT_LedgerEntryExtensionV1Ext6___initB9_
FN:83,_RNvNvNvNtNtCs47RmZobMba4_11stellar_xdr4curr9generateds1t_1__26RECURSIVE_COUNT_AlphaNum127___getitB9_
FN:80,_RNvNvNvNtNtCs47RmZobMba4_11stellar_xdr4curr9generateds5y_1__36RECURSIVE_COUNT_SetOptionsResultCode6___initB9_
FN:83,_RNvNvNvNtNtCs47RmZobMba4_11stellar_xdr4curr9generateds6E_1__32RECURSIVE_COUNT_Curve25519Public7___getitB9_
FN:80,_RNvNvNvNtNtCs47RmZobMba4_11stellar_xdr4curr9generateds6G_1__29RECURSIVE_COUNT_HmacSha256Mac6___initB9_
FN:80,_RNvNvNvNtNtCs47RmZobMba4_11stellar_xdr4curr9generatedsG_1__41RECURSIVE_COUNT_ScSpecUdtUnionCaseTupleV06___initB9_
FN:83,_RNvNvNvNtNtCs47RmZobMba4_11stellar_xdr4curr9generateds2E_1__42RECURSIVE_COUNT_LedgerHeaderExtensionV1Ext7___getitB9_
FN:83,_RNvNvNvNtNtCs47RmZobMba4_11stellar_xdr4curr9generateds5M_1__34RECURSIVE_COUNT_BumpSequenceResult7___getitB9_
FN:80,_RNvNvNvNtNtCs47RmZobMba4_11stellar_xdr4curr9generateds3f_1__31RECURSIVE_COUNT_ContractEventV06___initB9_
FN:80,_RNvNvNvNtNtCs47RmZobMba4_11stellar_xdr4curr9generateds10_1__38RECURSIVE_COUNT_ContractExecutableType6___initB9_
FN:80,_RNvNvNvNtNtCs47RmZobMba4_11stellar_xdr4curr9generateds5t_1__45RECURSIVE_COUNT_ManageOfferSuccessResultOffer6___initB9_
FN:83,_RNvNvNvNtNtCs47RmZobMba4_11stellar_xdr4curr9generateds5p_1__50RECURSIVE_COUNT_PathPaymentStrictSendResultSuccess7___getitB9_
FN:83,_RNvNvNvNtNtCs47RmZobMba4_11stellar_xdr4curr9generateds52_1__27RECURSIVE_COUNT_Transaction7___getitB9_
FN:83,_RNvNvNvNtNtCs47RmZobMba4_11stellar_xdr4curr9generateds3D_1__24RECURSIVE_COUNT_DontHave7___getitB9_
FN:83,_RNvNvNvNtNtCs47RmZobMba4_11stellar_xdr4curr9generatedsZ_1__27RECURSIVE_COUNT_Int256Parts7___getitB9_
FN:83,_RNvNvNvNtNtCs47RmZobMba4_11stellar_xdr4curr9generateds4o_1__38RECURSIVE_COUNT_LiquidityPoolDepositOp7___getitB9_
FN:80,_RNvNvNvNtNtCs47RmZobMba4_11stellar_xdr4curr9generateds6g_1__37RECURSIVE_COUNT_TransactionResultCode6___initB9_
FN:80,_RNvNvNvNtNtCs47RmZobMba4_11stellar_xdr4curr9generateds1h_1__33RECURSIVE_COUNT_PersistedScpState6___initB9_
FN:83,_RNvNvNvNtNtCs47RmZobMba4_11stellar_xdr4curr9generateds4K_1__38RECURSIVE_COUNT_HashIdPreimageRevokeId7___getitB9_
FN:83,_RNvNvNvNtNtCs47RmZobMba4_11stellar_xdr4curr9generateds3W_1__36RECURSIVE_COUNT_AuthenticatedMessage7___getitB9_
FN:80,_RNvNvNvNtNtCs47RmZobMba4_11stellar_xdr4curr9generateds4b_1__29RECURSIVE_COUNT_ChangeTrustOp6___initB9_
FN:83,_RNvNvNvNtNtCs47RmZobMba4_11stellar_xdr4curr9generateds5c_1__32RECURSIVE_COUNT_ClaimOfferAtomV07___getitB9_
FN:83,_RNvNvNvNtNtCs47RmZobMba4_11stellar_xdr4curr9generateds5l_1__35RECURSIVE_COUNT_SimplePaymentResult7___getitB9_
FN:80,_RNvNvNvNtNtCs47RmZobMba4_11stellar_xdr4curr9generateds2m_1__32RECURSIVE_COUNT_LedgerKeyAccount6___initB9_
FN:83,_RNvNvNvNtNtCs47RmZobMba4_11stellar_xdr4curr9generateds1m_1__25RECURSIVE_COUNT_DataValue7___getitB9_
FN:80,_RNvNvNvNtNtCs47RmZobMba4_11stellar_xdr4curr9generateds2W_1__41RECURSIVE_COUNT_GeneralizedTransactionSet6___initB9_
FN:80,_RNvNvNvNtNtCs47RmZobMba4_11stellar_xdr4curr9generatedsd_1__46RECURSIVE_COUNT_ConfigSettingContractComputeV06___initB9_
FN:83,_RNvNvNvNtNtCs47RmZobMba4_11stellar_xdr4curr9generateds47_1__32RECURSIVE_COUNT_ManageBuyOfferOp7___getitB9_
FN:83,_RNvNvNvNtNtCs47RmZobMba4_11stellar_xdr4curr9generateds3U_1__30RECURSIVE_COUNT_StellarMessage7___getitB9_
FN:83,_RNvNvNvNtNtCs47RmZobMba4_11stellar_xdr4curr9generateds2z_1__32RECURSIVE_COUNT_StellarValueType7___getitB9_
FN:83,_RNvNvNvNtNtCs47RmZobMba4_11stellar_xdr4curr9generateds2h_1__41RECURSIVE_COUNT_LedgerEntryExtensionV1Ext7___getitB9_
FN:83,_RNvNvNvNtNtCs47RmZobMba4_11stellar_xdr4curr9generateds63_1__46RECURSIVE_COUNT_LiquidityPoolDepositResultCode7___getitB9_
FN:80,_RNvNvNvNtNtCs47RmZobMba4_11stellar_xdr4curr9generateds64_1__42RECURSIVE_COUNT_LiquidityPoolDepositResult6___initB9_
FN:80,_RNvNvNvNtNtCs47RmZobMba4_11stellar_xdr4curr9generateds1z_1__22RECURSIVE_COUNT_Signer6___initB9_
FN:80,_RNvNvNvNtNtCs47RmZobMba4_11stellar_xdr4curr9generateds3F_1__41RECURSIVE_COUNT_SurveyMessageResponseType6___initB9_
FN:80,_RNvNvNvNtNtCs47RmZobMba4_11stellar_xdr4curr9generateds2v_1__28RECURSIVE_COUNT_LedgerKeyTtl6___initB9_
FN:83,_RNvNvNvNtNtCs47RmZobMba4_11stellar_xdr4curr9generateds2a_1__49RECURSIVE_COUNT_LiquidityPoolEntryConstantProduct7___getitB9_
FN:80,_RNvNvNvNtNtCs47RmZobMba4_11stellar_xdr4curr9generateds3i_1__31RECURSIVE_COUNT_DiagnosticEvent6___initB9_
FN:80,_RNvNvNvNtNtCs47RmZobMba4_11stellar_xdr4curr9generateds6m_1__36RECURSIVE_COUNT_TransactionResultExt6___initB9_
FN:80,_RNvNvNvNtNtCs47RmZobMba4_11stellar_xdr4curr9generateds1_1__21RECURSIVE_COUNT_Value6___initB9_
FN:80,_RNvNvNvNtNtCs47RmZobMba4_11stellar_xdr4curr9generateds3j_1__38RECURSIVE_COUNT_SorobanTransactionMeta6___initB9_
FN:83,_RNvNvNvNtNtCs47RmZobMba4_11stellar_xdr4curr9generatedsr_1__24RECURSIVE_COUNT_ScMetaV07___getitB9_
FN:80,_RNvNvNvNtNtCs47RmZobMba4_11stellar_xdr4curr9generateds56_1__34RECURSIVE_COUNT_FeeBumpTransaction6___initB9_
FN:80,_RNvNvNvNtNtCs47RmZobMba4_11stellar_xdr4curr9generateds4_1__29RECURSIVE_COUNT_ScpNomination6___initB9_
FN:83,_RNvNvNvNtNtCs47RmZobMba4_11stellar_xdr4curr9generateds5F_1__34RECURSIVE_COUNT_AccountMergeResult7___getitB9_
FN:80,_RNvNvNvNtNtCs47RmZobMba4_11stellar_xdr4curr9generateds1w_1__27RECURSIVE_COUNT_Liabilities6___initB9_
FN:80,_RNvNvNvNtNtCs47RmZobMba4_11stellar_xdr4curr9generateds60_1__46RECURSIVE_COUNT_ClawbackClaimableBalanceResult6___initB9_
FN:80,_RNvNvNvNtNtCs47RmZobMba4_11stellar_xdr4curr9generateds5J_1__36RECURSIVE_COUNT_ManageDataResultCode6___initB9_
FN:83,_RNvNvNvNtNtCs47RmZobMba4_11stellar_xdr4curr9generateds26_1__48RECURSIVE_COUNT_ClaimableBalanceEntryExtensionV17___getitB9_
FN:83,_RNvNvNvNtNtCs47RmZobMba4_11stellar_xdr4curr9generateds4f_1__40RECURSIVE_COUNT_CreateClaimableBalanceOp7___getitB9_
FN:83,_RNvNvNvNtNtCs47RmZobMba4_11stellar_xdr4curr9generateds1a_1__34RECURSIVE_COUNT_ScContractInstance7___getitB9_
FN:83,_RNvNvNvNtNtCs47RmZobMba4_11stellar_xdr4curr9generateds36_1__33RECURSIVE_COUNT_ScpHistoryEntryV07___getitB9_
FN:80,_RNvNvNvNtNtCs47RmZobMba4_11stellar_xdr4curr9generateds3L_1__25RECURSIVE_COUNT_PeerStats6___initB9_
FN:80,_RNvNvNvNtNtCs47RmZobMba4_11stellar_xdr4curr9generateds6a_1__40RECURSIVE_COUNT_ExtendFootprintTtlResult6___initB9_
FN:80,_RNvNvNvNtNtCs47RmZobMba4_11stellar_xdr4curr9generateds3d_1__33RECURSIVE_COUNT_TransactionMetaV26___initB9_
FN:83,_RNvNvNvNtNtCs47RmZobMba4_11stellar_xdr4curr9generateds1I_1__28RECURSIVE_COUNT_AccountEntry7___getitB9_
FN:83,_RNvNvNvNtNtCs47RmZobMba4_11stellar_xdr4curr9generatedst_1__27RECURSIVE_COUNT_ScMetaEntry7___getitB9_
FN:83,_RNvNvNvNtNtCs47RmZobMba4_11stellar_xdr4curr9generateds3Z_1__28RECURSIVE_COUNT_MuxedAccount7___getitB9_
FN:80,_RNvNvNvNtNtCs47RmZobMba4_11stellar_xdr4curr9generateds6F_1__29RECURSIVE_COUNT_HmacSha256Key6___initB9_
FN:83,_RNvNvNvNtNtCs47RmZobMba4_11stellar_xdr4curr9generateds3d_1__33RECURSIVE_COUNT_TransactionMetaV27___getitB9_
FN:83,_RNvNvNvNtNtCs47RmZobMba4_11stellar_xdr4curr9generateds2_1__25RECURSIVE_COUNT_ScpBallot7___getitB9_
FN:80,_RNvNvNvNtNtCs47RmZobMba4_11stellar_xdr4curr9generateds4G_1__34RECURSIVE_COUNT_RestoreFootprintOp6___initB9_
FN:83,_RNvNvNvNtNtCs47RmZobMba4_11stellar_xdr4curr9generateds19_1__26RECURSIVE_COUNT_ScNonceKey7___getitB9_
FN:83,_RNvNvNvNtNtCs47RmZobMba4_11stellar_xdr4curr9generateds5L_1__38RECURSIVE_COUNT_BumpSequenceResultCode7___getitB9_
FN:83,_RNvNvNvNtNtCs47RmZobMba4_11stellar_xdr4curr9generateds1E_1__39RECURSIVE_COUNT_AccountEntryExtensionV27___getitB9_
FN:80,_RNvNvNvNtNtCs47RmZobMba4_11stellar_xdr4curr9generateds5i_1__33RECURSIVE_COUNT_PaymentResultCode6___initB9_
FN:80,_RNvNvNvNtNtCs47RmZobMba4_11stellar_xdr4curr9generateds3k_1__33RECURSIVE_COUNT_TransactionMetaV36___initB9_
FN:80,_RNvNvNvNtNtCs47RmZobMba4_11stellar_xdr4curr9generateds1f_1__35RECURSIVE_COUNT_PersistedScpStateV06___initB9_
FN:83,_RNvNvNvNtNtCs47RmZobMba4_11stellar_xdr4curr9generateds5A_1__37RECURSIVE_COUNT_ChangeTrustResultCode7___getitB9_
FN:80,_RNvNvNvNtNtCs47RmZobMba4_11stellar_xdr4curr9generateds1R_1__30RECURSIVE_COUNT_TrustLineEntry6___initB9_
FN:80,_RNvNvNvNtNtCs47RmZobMba4_11stellar_xdr4curr9generateds2r_1__38RECURSIVE_COUNT_LedgerKeyLiquidityPool6___initB9_
FN:83,_RNvNvNvNtNtCs47RmZobMba4_11stellar_xdr4curr9generateds2g_1__24RECURSIVE_COUNT_TtlEntry7___getitB9_
FN:83,_RNvNvNvNtNtCs47RmZobMba4_11stellar_xdr4curr9generateds1l_1__30RECURSIVE_COUNT_SequenceNumber7___getitB9_
FN:80,_RNvNvNvNtNtCs47RmZobMba4_11stellar_xdr4curr9generateds8_1__35RECURSIVE_COUNT_ScpStatementPledges6___initB9_
FN:83,_RNvNvNvNtNtCs47RmZobMba4_11stellar_xdr4curr9generateds4m_1__42RECURSIVE_COUNT_ClawbackClaimableBalanceOp7___getitB9_
FN:80,_RNvNvNvNtNtCs47RmZobMba4_11stellar_xdr4curr9generatedsi_1__32RECURSIVE_COUNT_ContractCostType6___initB9_
FN:83,_RNvNvNvNtNtCs47RmZobMba4_11stellar_xdr4curr9generateds2J_1__35RECURSIVE_COUNT_ConfigUpgradeSetKey7___getitB9_
FN:80,_RNvNvNvNtNtCs47RmZobMba4_11stellar_xdr4curr9generateds2V_1__32RECURSIVE_COUNT_TransactionSetV16___initB9_
FN:83,_RNvNvNvNtNtCs47RmZobMba4_11stellar_xdr4curr9generatedsL_1__31RECURSIVE_COUNT_ScSpecUdtEnumV07___getitB9_
FN:83,_RNvNvNvNtNtCs47RmZobMba4_11stellar_xdr4curr9generateds5u_1__40RECURSIVE_COUNT_ManageOfferSuccessResult7___getitB9_
FN:80,_RNvNvNvNtNtCs47RmZobMba4_11stellar_xdr4curr9generatedso_1__34RECURSIVE_COUNT_ConfigSettingEntry6___initB9_
FN:83,_RNvNvNvNtNtCs47RmZobMba4_11stellar_xdr4curr9generatedsT_1__27RECURSIVE_COUNT_ScErrorType7___getitB9_
FN:83,_RNvNvNvNtNtCs47RmZobMba4_11stellar_xdr4curr9generateds6r_1__24RECURSIVE_COUNT_Duration7___getitB9_
FN:80,_RNvNvNvNtNtCs47RmZobMba4_11stellar_xdr4curr9generateds6C_1__25RECURSIVE_COUNT_AccountId6___initB9_
FN:83,_RNvNvNvNtNtCs47RmZobMba4_11stellar_xdr4curr9generateds5g_1__39RECURSIVE_COUNT_CreateAccountResultCode7___getitB9_
FN:80,_RNvNvNvNtNtCs47RmZobMba4_11stellar_xdr4curr9generateds1Y_1__30RECURSIVE_COUNT_ClaimPredicate6___initB9_
FN:80,_RNvNvNvNtNtCs47RmZobMba4_11stellar_xdr4curr9generateds4S_1__31RECURSIVE_COUNT_PreconditionsV26___initB9_
FN:80,_RNvNvNvNtNtCs47RmZobMba4_11stellar_xdr4curr9generateds4c_1__28RECURSIVE_COUNT_AllowTrustOp6___initB9_
FN:83,_RNvNvNvNtNtCs47RmZobMba4_11stellar_xdr4curr9generateds10_1__38RECURSIVE_COUNT_ContractExecutableType7___getitB9_
FN:80,_RNvNvNvNtNtCs47RmZobMba4_11stellar_xdr4curr9generateds1M_1__44RECURSIVE_COUNT_TrustLineEntryExtensionV2Ext6___initB9_
FN:83,_RNvNvNvNtNtCs47RmZobMba4_11stellar_xdr4curr9generateds2n_1__34RECURSIVE_COUNT_LedgerKeyTrustLine7___getitB9_
FN:83,_RNvNvNvNtNtCs47RmZobMba4_11stellar_xdr4curr9generateds1Y_1__30RECURSIVE_COUNT_ClaimPredicate7___getitB9_
FN:80,_RNvNvNvNtNtCs47RmZobMba4_11stellar_xdr4curr9generatedsY_1__28RECURSIVE_COUNT_UInt256Parts6___initB9_
FN:80,_RNvNvNvNtNtCs47RmZobMba4_11stellar_xdr4curr9generateds5G_1__35RECURSIVE_COUNT_InflationResultCode6___initB9_
FN:80,_RNvNvNvNtNtCs47RmZobMba4_11stellar_xdr4curr9generateds2z_1__32RECURSIVE_COUNT_StellarValueType6___initB9_
FN:83,_RNvNvNvNtNtCs47RmZobMba4_11stellar_xdr4curr9generateds68_1__40RECURSIVE_COUNT_InvokeHostFunctionResult7___getitB9_
FN:83,_RNvNvNvNtNtCs47RmZobMba4_11stellar_xdr4curr9generateds6k_1__42RECURSIVE_COUNT_InnerTransactionResultPair7___getitB9_
FN:83,_RNvNvNvNtNtCs47RmZobMba4_11stellar_xdr4curr9generateds3A_1__29RECURSIVE_COUNT_PeerAddressIp7___getitB9_
FN:80,_RNvNvNvNtNtCs47RmZobMba4_11stellar_xdr4curr9generateds6_1__35RECURSIVE_COUNT_ScpStatementConfirm6___initB9_
FN:83,_RNvNvNvNtNtCs47RmZobMba4_11stellar_xdr4curr9generateds16_1__23RECURSIVE_COUNT_ScBytes7___getitB9_
FN:80,_RNvNvNvNtNtCs47RmZobMba4_11stellar_xdr4curr9generateds1H_1__31RECURSIVE_COUNT_AccountEntryExt6___initB9_
FN:80,_RNvNvNvNtNtCs47RmZobMba4_11stellar_xdr4curr9generateds50_1__37RECURSIVE_COUNT_TransactionV0Envelope6___initB9_
FN:83,_RNvNvNvNtNtCs47RmZobMba4_11stellar_xdr4curr9generateds5k_1__50RECURSIVE_COUNT_PathPaymentStrictReceiveResultCode7___getitB9_
FN:80,_RNvNvNvNtNtCs47RmZobMba4_11stellar_xdr4curr9generateds4Y_1__32RECURSIVE_COUNT_TransactionV0Ext6___initB9_
FN:83,_RNvNvNvNtNtCs47RmZobMba4_11stellar_xdr4curr9generateds6h_1__44RECURSIVE_COUNT_InnerTransactionResultResult7___getitB9_
FN:83,_RNvNvNvNtNtCs47RmZobMba4_11stellar_xdr4curr9generateds3u_1__24RECURSIVE_COUNT_SendMore7___getitB9_
FN:83,_RNvNvNvNtNtCs47RmZobMba4_11stellar_xdr4curr9generateds2F_1__39RECURSIVE_COUNT_LedgerHeaderExtensionV17___getitB9_
FN:80,_RNvNvNvNtNtCs47RmZobMba4_11stellar_xdr4curr9generateds5u_1__40RECURSIVE_COUNT_ManageOfferSuccessResult6___initB9_
FN:80,_RNvNvNvNtNtCs47RmZobMba4_11stellar_xdr4curr9generatedss_1__26RECURSIVE_COUNT_ScMetaKind6___initB9_
FN:83,_RNvNvNvNtNtCs47RmZobMba4_11stellar_xdr4curr9generatedsH_1__40RECURSIVE_COUNT_ScSpecUdtUnionCaseV0Kind7___getitB9_
FN:80,_RNvNvNvNtNtCs47RmZobMba4_11stellar_xdr4curr9generateds3c_1__33RECURSIVE_COUNT_TransactionMetaV16___initB9_
FN:83,_RNvNvNvNtNtCs47RmZobMba4_11stellar_xdr4curr9generateds6D_1__32RECURSIVE_COUNT_Curve25519Secret7___getitB9_
FN:80,_RNvNvNvNtNtCs47RmZobMba4_11stellar_xdr4curr9generatedsM_1__40RECURSIVE_COUNT_ScSpecUdtErrorEnumCaseV06___initB9_
FN:80,_RNvNvNvNtNtCs47RmZobMba4_11stellar_xdr4curr9generateds1O_1__35RECURSIVE_COUNT_TrustLineEntryV1Ext6___initB9_
FN:83,_RNvNvNvNtNtCs47RmZobMba4_11stellar_xdr4curr9generateds64_1__42RECURSIVE_COUNT_LiquidityPoolDepositResult7___getitB9_
FN:80,_RNvNvNvNtNtCs47RmZobMba4_11stellar_xdr4curr9generateds3b_1__29RECURSIVE_COUNT_OperationMeta6___initB9_
FN:80,_RNvNvNvNtNtCs47RmZobMba4_11stellar_xdr4curr9generatedsW_1__28RECURSIVE_COUNT_UInt128Parts6___initB9_
FN:80,_RNvNvNvNtNtCs47RmZobMba4_11stellar_xdr4curr9generateds4l_1__26RECURSIVE_COUNT_ClawbackOp6___initB9_
FN:80,_RNvNvNvNtNtCs47RmZobMba4_11stellar_xdr4curr9generateds1I_1__28RECURSIVE_COUNT_AccountEntry6___initB9_
FN:83,_RNvNvNvNtNtCs47RmZobMba4_11stellar_xdr4curr9generateds4w_1__28RECURSIVE_COUNT_HostFunction7___getitB9_
FN:83,_RNvNvNvNtNtCs47RmZobMba4_11stellar_xdr4curr9generateds60_1__46RECURSIVE_COUNT_ClawbackClaimableBalanceResult7___getitB9_
FN:80,_RNvNvNvNtNtCs47RmZobMba4_11stellar_xdr4curr9generateds5q_1__43RECURSIVE_COUNT_PathPaymentStrictSendResult6___initB9_
FN:83,_RNvNvNvNtNtCs47RmZobMba4_11stellar_xdr4curr9generateds2i_1__38RECURSIVE_COUNT_LedgerEntryExtensionV17___getitB9_
FN:80,_RNvNvNvNtNtCs47RmZobMba4_11stellar_xdr4curr9generateds2_1__25RECURSIVE_COUNT_ScpBallot6___initB9_
FN:80,_RNvNvNvNtNtCs47RmZobMba4_11stellar_xdr4curr9generateds2H_1__28RECURSIVE_COUNT_LedgerHeader6___initB9_
FN:83,_RNvNvNvNtNtCs47RmZobMba4_11stellar_xdr4curr9generatedsE_1__33RECURSIVE_COUNT_ScSpecUdtStructV07___getitB9_
FN:83,_RNvNvNvNtNtCs47RmZobMba4_11stellar_xdr4curr9generateds4k_1__35RECURSIVE_COUNT_RevokeSponsorshipOp7___getitB9_
FN:80,_RNvNvNvNtNtCs47RmZobMba4_11stellar_xdr4curr9generateds4P_1__20RECURSIVE_COUNT_Memo6___initB9_
FN:83,_RNvNvNvNtNtCs47RmZobMba4_11stellar_xdr4curr9generateds4r_1__38RECURSIVE_COUNT_ContractIdPreimageType7___getitB9_
FN:80,_RNvNvNvNtNtCs47RmZobMba4_11stellar_xdr4curr9generateds2e_1__33RECURSIVE_COUNT_ContractDataEntry6___initB9_
FN:80,_RNvNvNvNtNtCs47RmZobMba4_11stellar_xdr4curr9generateds4s_1__45RECURSIVE_COUNT_ContractIdPreimageFromAddress6___initB9_
FN:83,_RNvNvNvNtNtCs47RmZobMba4_11stellar_xdr4curr9generateds13_1__25RECURSIVE_COUNT_ScAddress7___getitB9_
FN:83,_RNvNvNvNtNtCs47RmZobMba4_11stellar_xdr4curr9generateds2m_1__32RECURSIVE_COUNT_LedgerKeyAccount7___getitB9_
FN:83,_RNvNvNvNtNtCs47RmZobMba4_11stellar_xdr4curr9generatedsY_1__28RECURSIVE_COUNT_UInt256Parts7___getitB9_
FN:80,_RNvNvNvNtNtCs47RmZobMba4_11stellar_xdr4curr9generateds3y_1__20RECURSIVE_COUNT_Auth6___initB9_
FN:83,_RNvNvNvNtNtCs47RmZobMba4_11stellar_xdr4curr9generateds2s_1__37RECURSIVE_COUNT_LedgerKeyContractData7___getitB9_
FN:80,_RNvNvNvNtNtCs47RmZobMba4_11stellar_xdr4curr9generateds29_1__54RECURSIVE_COUNT_LiquidityPoolConstantProductParameters6___initB9_
FN:80,_RNvNvNvNtNtCs47RmZobMba4_11stellar_xdr4curr9generateds5k_1__50RECURSIVE_COUNT_PathPaymentStrictReceiveResultCode6___initB9_
FN:80,_RNvNvNvNtNtCs47RmZobMba4_11stellar_xdr4curr9generateds2l_1__27RECURSIVE_COUNT_LedgerEntry6___initB9_
FN:83,_RNvNvNvNtNtCs47RmZobMba4_11stellar_xdr4curr9generateds5_1__35RECURSIVE_COUNT_ScpStatementPrepare7___getitB9_
FN:80,_RNvNvNvNtNtCs47RmZobMba4_11stellar_xdr4curr9generateds37_1__31RECURSIVE_COUNT_ScpHistoryEntry6___initB9_
FN:80,_RNvNvNvNtNtCs47RmZobMba4_11stellar_xdr4curr9generateds4t_1__34RECURSIVE_COUNT_ContractIdPreimage6___initB9_
FN:80,_RNvNvNvNtNtCs47RmZobMba4_11stellar_xdr4curr9generateds2k_1__30RECURSIVE_COUNT_LedgerEntryExt6___initB9_
FN:80,_RNvNvNvNtNtCs47RmZobMba4_11stellar_xdr4curr9generateds6r_1__24RECURSIVE_COUNT_Duration6___initB9_
FN:83,_RNvNvNvNtNtCs47RmZobMba4_11stellar_xdr4curr9generateds40_1__34RECURSIVE_COUNT_DecoratedSignature7___getitB9_
FN:83,_RNvNvNvNtNtCs47RmZobMba4_11stellar_xdr4curr9generateds59_1__60RECURSIVE_COUNT_TransactionSignaturePayloadTaggedTransaction7___getitB9_
FN:83,_RNvNvNvNtNtCs47RmZobMba4_11stellar_xdr4curr9generatedsb_1__28RECURSIVE_COUNT_ScpQuorumSet7___getitB9_
FN:80,_RNvNvNvNtNtCs47RmZobMba4_11stellar_xdr4curr9generateds2X_1__37RECURSIVE_COUNT_TransactionResultPair6___initB9_
FN:83,_RNvNvNvNtNtCs47RmZobMba4_11stellar_xdr4curr9generateds1y_1__31RECURSIVE_COUNT_LedgerEntryType7___getitB9_
FN:80,_RNvNvNvNtNtCs47RmZobMba4_11stellar_xdr4curr9generateds3s_1__25RECURSIVE_COUNT_ErrorCode6___initB9_
FN:83,_RNvNvNvNtNtCs47RmZobMba4_11stellar_xdr4curr9generatedsv_1__32RECURSIVE_COUNT_ScSpecTypeOption7___getitB9_
FN:83,_RNvNvNvNtNtCs47RmZobMba4_11stellar_xdr4curr9generateds6v_1__29RECURSIVE_COUNT_SignerKeyType7___getitB9_
FN:83,_RNvNvNvNtNtCs47RmZobMba4_11stellar_xdr4curr9generateds6l_1__39RECURSIVE_COUNT_TransactionResultResult7___getitB9_
FN:83,_RNvNvNvNtNtCs47RmZobMba4_11stellar_xdr4curr9generateds2D_1__33RECURSIVE_COUNT_LedgerHeaderFlags7___getitB9_
FN:80,_RNvNvNvNtNtCs47RmZobMba4_11stellar_xdr4curr9generateds55_1__37RECURSIVE_COUNT_FeeBumpTransactionExt6___initB9_
FN:83,_RNvNvNvNtNtCs47RmZobMba4_11stellar_xdr4curr9generateds5Y_1__30RECURSIVE_COUNT_ClawbackResult7___getitB9_
FN:80,_RNvNvNvNtNtCs47RmZobMba4_11stellar_xdr4curr9generateds68_1__40RECURSIVE_COUNT_InvokeHostFunctionResult6___initB9_
FN:80,_RNvNvNvNtNtCs47RmZobMba4_11stellar_xdr4curr9generateds1g_1__35RECURSIVE_COUNT_PersistedScpStateV16___initB9_
FN:80,_RNvNvNvNtNtCs47RmZobMba4_11stellar_xdr4curr9generateds2y_1__27RECURSIVE_COUNT_UpgradeType6___initB9_
FN:83,_RNvNvNvNtNtCs47RmZobMba4_11stellar_xdr4curr9generateds1A_1__28RECURSIVE_COUNT_AccountFlags7___getitB9_
FN:83,_RNvNvNvNtNtCs47RmZobMba4_11stellar_xdr4curr9generateds1c_1__26RECURSIVE_COUNT_ScMapEntry7___getitB9_
FN:83,_RNvNvNvNtNtCs47RmZobMba4_11stellar_xdr4curr9generateds2Z_1__42RECURSIVE_COUNT_TransactionHistoryEntryExt7___getitB9_
FN:83,_RNvNvNvNtNtCs47RmZobMba4_11stellar_xdr4curr9generateds6d_1__35RECURSIVE_COUNT_OperationResultCode7___getitB9_
FN:83,_RNvNvNvNtNtCs47RmZobMba4_11stellar_xdr4curr9generateds5J_1__36RECURSIVE_COUNT_ManageDataResultCode7___getitB9_
FN:83,_RNvNvNvNtNtCs47RmZobMba4_11stellar_xdr4curr9generateds2b_1__38RECURSIVE_COUNT_LiquidityPoolEntryBody7___getitB9_
FN:83,_RNvNvNvNtNtCs47RmZobMba4_11stellar_xdr4curr9generateds4O_1__24RECURSIVE_COUNT_MemoType7___getitB9_
FN:80,_RNvNvNvNtNtCs47RmZobMba4_11stellar_xdr4curr9generateds1G_1__39RECURSIVE_COUNT_AccountEntryExtensionV16___initB9_
FN:83,_RNvNvNvNtNtCs47RmZobMba4_11stellar_xdr4curr9generateds2M_1__31RECURSIVE_COUNT_BucketEntryType7___getitB9_
FN:80,_RNvNvNvNtNtCs47RmZobMba4_11stellar_xdr4curr9generateds3n_1__37RECURSIVE_COUNT_TransactionResultMeta6___initB9_
FN:80,_RNvNvNvNtNtCs47RmZobMba4_11stellar_xdr4curr9generateds4Z_1__29RECURSIVE_COUNT_TransactionV06___initB9_
FN:80,_RNvNvNvNtNtCs47RmZobMba4_11stellar_xdr4curr9generateds6x_1__45RECURSIVE_COUNT_SignerKeyEd25519SignedPayload6___initB9_
FN:83,_RNvNvNvNtNtCs47RmZobMba4_11stellar_xdr4curr9generateds4Y_1__32RECURSIVE_COUNT_TransactionV0Ext7___getitB9_
FN:80,_RNvNvNvNtNtCs47RmZobMba4_11stellar_xdr4curr9generatedsb_1__28RECURSIVE_COUNT_ScpQuorumSet6___initB9_
FN:80,_RNvNvNvNtNtCs47RmZobMba4_11stellar_xdr4curr9generateds4J_1__41RECURSIVE_COUNT_HashIdPreimageOperationId6___initB9_
FN:83,_RNvNvNvNtNtCs47RmZobMba4_11stellar_xdr4curr9generateds5V_1__43RECURSIVE_COUNT_RevokeSponsorshipResultCode7___getitB9_
FN:83,_RNvNvNvNtNtCs47RmZobMba4_11stellar_xdr4curr9generateds49_1__28RECURSIVE_COUNT_SetOptionsOp7___getitB9_
FN:83,_RNvNvNvNtNtCs47RmZobMba4_11stellar_xdr4curr9generatedsX_1__27RECURSIVE_COUNT_Int128Parts7___getitB9_
FN:80,_RNvNvNvNtNtCs47RmZobMba4_11stellar_xdr4curr9generateds1N_1__41RECURSIVE_COUNT_TrustLineEntryExtensionV26___initB9_
FN:83,_RNvNvNvNtNtCs47RmZobMba4_11stellar_xdr4curr9generateds2o_1__30RECURSIVE_COUNT_LedgerKeyOffer7___getitB9_
FN:83,_RNvNvNvNtNtCs47RmZobMba4_11stellar_xdr4curr9generateds5P_1__47RECURSIVE_COUNT_ClaimClaimableBalanceResultCode7___getitB9_
FN:83,_RNvNvNvNtNtCs47RmZobMba4_11stellar_xdr4curr9generateds4D_1__41RECURSIVE_COUNT_SorobanAuthorizationEntry7___getitB9_
FN:83,_RNvNvNvNtNtCs47RmZobMba4_11stellar_xdr4curr9generateds4T_1__32RECURSIVE_COUNT_PreconditionType7___getitB9_
FN:83,_RNvNvNvNtNtCs47RmZobMba4_11stellar_xdr4curr9generateds4e_1__30RECURSIVE_COUNT_BumpSequenceOp7___getitB9_
FN:80,_RNvNvNvNtNtCs47RmZobMba4_11stellar_xdr4curr9generateds1B_1__37RECURSIVE_COUNT_SponsorshipDescriptor6___initB9_
FN:80,_RNvNvNvNtNtCs47RmZobMba4_11stellar_xdr4curr9generateds5c_1__32RECURSIVE_COUNT_ClaimOfferAtomV06___initB9_
FN:80,_RNvNvNvNtNtCs47RmZobMba4_11stellar_xdr4curr9generateds5Z_1__50RECURSIVE_COUNT_ClawbackClaimableBalanceResultCode6___initB9_
FN:83,_RNvNvNvNtNtCs47RmZobMba4_11stellar_xdr4curr9generateds2q_1__41RECURSIVE_COUNT_LedgerKeyClaimableBalance7___getitB9_
FN:83,_RNvNvNvNtNtCs47RmZobMba4_11stellar_xdr4curr9generateds4l_1__26RECURSIVE_COUNT_ClawbackOp7___getitB9_
FN:80,_RNvNvNvNtNtCs47RmZobMba4_11stellar_xdr4curr9generateds2Z_1__42RECURSIVE_COUNT_TransactionHistoryEntryExt6___initB9_
FN:83,_RNvNvNvNtNtCs47RmZobMba4_11stellar_xdr4curr9generateds6C_1__25RECURSIVE_COUNT_AccountId7___getitB9_
FN:80,_RNvNvNvNtNtCs47RmZobMba4_11stellar_xdr4curr9generateds13_1__25RECURSIVE_COUNT_ScAddress6___initB9_
FN:80,_RNvNvNvNtNtCs47RmZobMba4_11stellar_xdr4curr9generateds5w_1__40RECURSIVE_COUNT_ManageBuyOfferResultCode6___initB9_
FN:83,_RNvNvNvNtNtCs47RmZobMba4_11stellar_xdr4curr9generatedsn_1__31RECURSIVE_COUNT_ConfigSettingId7___getitB9_
FN:80,_RNvNvNvNtNtCs47RmZobMba4_11stellar_xdr4curr9generatedsu_1__26RECURSIVE_COUNT_ScSpecType6___initB9_
FN:83,_RNvNvNvNtNtCs47RmZobMba4_11stellar_xdr4curr9generateds1_1__21RECURSIVE_COUNT_Value7___getitB9_
FN:80,_RNvNvNvNtNtCs47RmZobMba4_11stellar_xdr4curr9generateds2f_1__33RECURSIVE_COUNT_ContractCodeEntry6___initB9_
FN:83,_RNvNvNvNtNtCs47RmZobMba4_11stellar_xdr4curr9generateds1r_1__25RECURSIVE_COUNT_AssetCode7___getitB9_
FN:83,_RNvNvNvNtNtCs47RmZobMba4_11stellar_xdr4curr9generateds18_1__24RECURSIVE_COUNT_ScSymbol7___getitB9_
FN:83,_RNvNvNvNtNtCs47RmZobMba4_11stellar_xdr4curr9generateds28_1__37RECURSIVE_COUNT_ClaimableBalanceEntry7___getitB9_
FN:80,_RNvNvNvNtNtCs47RmZobMba4_11stellar_xdr4curr9generateds1P_1__32RECURSIVE_COUNT_TrustLineEntryV16___initB9_
FN:83,_RNvNvNvNtNtCs47RmZobMba4_11stellar_xdr4curr9generateds6B_1__22RECURSIVE_COUNT_NodeId7___getitB9_
FN:80,_RNvNvNvNtNtCs47RmZobMba4_11stellar_xdr4curr9generateds1t_1__26RECURSIVE_COUNT_AlphaNum126___initB9_
FN:80,_RNvNvNvNtNtCs47RmZobMba4_11stellar_xdr4curr9generateds5o_1__47RECURSIVE_COUNT_PathPaymentStrictSendResultCode6___initB9_
FN:83,_RNvNvNvNtNtCs47RmZobMba4_11stellar_xdr4curr9generateds53_1__37RECURSIVE_COUNT_TransactionV1Envelope7___getitB9_
FN:83,_RNvNvNvNtNtCs47RmZobMba4_11stellar_xdr4curr9generateds4y_1__41RECURSIVE_COUNT_SorobanAuthorizedFunction7___getitB9_
FN:80,_RNvNvNvNtNtCs47RmZobMba4_11stellar_xdr4curr9generateds1m_1__25RECURSIVE_COUNT_DataValue6___initB9_
FN:83,_RNvNvNvNtNtCs47RmZobMba4_11stellar_xdr4curr9generateds1L_1__30RECURSIVE_COUNT_TrustLineAsset7___getitB9_
FN:80,_RNvNvNvNtNtCs47RmZobMba4_11stellar_xdr4curr9generateds49_1__28RECURSIVE_COUNT_SetOptionsOp6___initB9_
FN:80,_RNvNvNvNtNtCs47RmZobMba4_11stellar_xdr4curr9generatedsX_1__27RECURSIVE_COUNT_Int128Parts6___initB9_
FN:80,_RNvNvNvNtNtCs47RmZobMba4_11stellar_xdr4curr9generateds3I_1__29RECURSIVE_COUNT_EncryptedBody6___initB9_
FN:83,_RNvNvNvNtNtCs47RmZobMba4_11stellar_xdr4curr9generateds3y_1__20RECURSIVE_COUNT_Auth7___getitB9_
FN:80,_RNvNvNvNtNtCs47RmZobMba4_11stellar_xdr4curr9generateds6d_1__35RECURSIVE_COUNT_OperationResultCode6___initB9_
FN:80,_RNvNvNvNtNtCs47RmZobMba4_11stellar_xdr4curr9generateds48_1__40RECURSIVE_COUNT_CreatePassiveSellOfferOp6___initB9_
FN:83,_RNvNvNvNtNtCs47RmZobMba4_11stellar_xdr4curr9generateds1G_1__39RECURSIVE_COUNT_AccountEntryExtensionV17___getitB9_
FN:83,_RNvNvNvNtNtCs47RmZobMba4_11stellar_xdr4curr9generateds3m_1__31RECURSIVE_COUNT_TransactionMeta7___getitB9_
FN:80,_RNvNvNvNtNtCs47RmZobMba4_11stellar_xdr4curr9generateds6p_1__23RECURSIVE_COUNT_Uint2566___initB9_
FN:80,_RNvNvNvNtNtCs47RmZobMba4_11stellar_xdr4curr9generateds5B_1__33RECURSIVE_COUNT_ChangeTrustResult6___initB9_
FN:80,_RNvNvNvNtNtCs47RmZobMba4_11stellar_xdr4curr9generateds59_1__60RECURSIVE_COUNT_TransactionSignaturePayloadTaggedTransaction6___initB9_
FN:80,_RNvNvNvNtNtCs47RmZobMba4_11stellar_xdr4curr9generateds4g_1__39RECURSIVE_COUNT_ClaimClaimableBalanceOp6___initB9_
FN:83,_RNvNvNvNtNtCs47RmZobMba4_11stellar_xdr4curr9generateds29_1__54RECURSIVE_COUNT_LiquidityPoolConstantProductParameters7___getitB9_
FN:80,_RNvNvNvNtNtCs47RmZobMba4_11stellar_xdr4curr9generateds5H_1__31RECURSIVE_COUNT_InflationPayout6___initB9_
FN:83,_RNvNvNvNtNtCs47RmZobMba4_11stellar_xdr4curr9generateds4X_1__38RECURSIVE_COUNT_SorobanTransactionData7___getitB9_
FN:80,_RNvNvNvNtNtCs47RmZobMba4_11stellar_xdr4curr9generateds34_1__40RECURSIVE_COUNT_LedgerHeaderHistoryEntry6___initB9_
FN:80,_RNvNvNvNtNtCs47RmZobMba4_11stellar_xdr4curr9generateds6v_1__29RECURSIVE_COUNT_SignerKeyType6___initB9_
FN:80,_RNvNvNvNtNtCs47RmZobMba4_11stellar_xdr4curr9generateds4p_1__39RECURSIVE_COUNT_LiquidityPoolWithdrawOp6___initB9_
FN:83,_RNvNvNvNtNtCs47RmZobMba4_11stellar_xdr4curr9generateds22_1__38RECURSIVE_COUNT_ClaimableBalanceIdType7___getitB9_
FN:83,_RNvNvNvNtNtCs47RmZobMba4_11stellar_xdr4curr9generateds6w_1__25RECURSIVE_COUNT_PublicKey7___getitB9_
FN:83,_RNvNvNvNtNtCs47RmZobMba4_11stellar_xdr4curr9generateds34_1__40RECURSIVE_COUNT_LedgerHeaderHistoryEntry7___getitB9_
FN:83,_RNvNvNvNtNtCs47RmZobMba4_11stellar_xdr4curr9generatedsF_1__40RECURSIVE_COUNT_ScSpecUdtUnionCaseVoidV07___getitB9_
FN:80,_RNvNvNvNtNtCs47RmZobMba4_11stellar_xdr4curr9generateds3Z_1__28RECURSIVE_COUNT_MuxedAccount6___initB9_
FN:83,_RNvNvNvNtNtCs47RmZobMba4_11stellar_xdr4curr9generateds3b_1__29RECURSIVE_COUNT_OperationMeta7___getitB9_
FN:83,_RNvNvNvNtNtCs47RmZobMba4_11stellar_xdr4curr9generatedsh_1__48RECURSIVE_COUNT_ConfigSettingContractBandwidthV07___getitB9_
FN:80,_RNvNvNvNtNtCs47RmZobMba4_11stellar_xdr4curr9generateds3a_1__34RECURSIVE_COUNT_LedgerEntryChanges6___initB9_
FN:83,_RNvNvNvNtNtCs47RmZobMba4_11stellar_xdr4curr9generateds2G_1__31RECURSIVE_COUNT_LedgerHeaderExt7___getitB9_
FN:83,_RNvNvNvNtNtCs47RmZobMba4_11stellar_xdr4curr9generateds6g_1__37RECURSIVE_COUNT_TransactionResultCode7___getitB9_
FN:83,_RNvNvNvNtNtCs47RmZobMba4_11stellar_xdr4curr9generateds2H_1__28RECURSIVE_COUNT_LedgerHeader7___getitB9_
FN:80,_RNvNvNvNtNtCs47RmZobMba4_11stellar_xdr4curr9generateds39_1__33RECURSIVE_COUNT_LedgerEntryChange6___initB9_
FN:80,_RNvNvNvNtNtCs47RmZobMba4_11stellar_xdr4curr9generatedsI_1__36RECURSIVE_COUNT_ScSpecUdtUnionCaseV06___initB9_
FN:80,_RNvNvNvNtNtCs47RmZobMba4_11stellar_xdr4curr9generateds1u_1__21RECURSIVE_COUNT_Asset6___initB9_
FN:80,_RNvNvNvNtNtCs47RmZobMba4_11stellar_xdr4curr9generateds3J_1__37RECURSIVE_COUNT_SurveyResponseMessage6___initB9_
FN:83,_RNvNvNvNtNtCs47RmZobMba4_11stellar_xdr4curr9generateds4B_1__38RECURSIVE_COUNT_SorobanCredentialsType7___getitB9_
FN:80,_RNvNvNvNtNtCs47RmZobMba4_11stellar_xdr4curr9generateds1i_1__26RECURSIVE_COUNT_Thresholds6___initB9_
FN:83,_RNvNvNvNtNtCs47RmZobMba4_11stellar_xdr4curr9generateds24_1__37RECURSIVE_COUNT_ClaimableBalanceFlags7___getitB9_
FN:80,_RNvNvNvNtNtCs47RmZobMba4_11stellar_xdr4curr9generateds4C_1__34RECURSIVE_COUNT_SorobanCredentials6___initB9_
FN:83,_RNvNvNvNtNtCs47RmZobMba4_11stellar_xdr4curr9generateds2Y_1__36RECURSIVE_COUNT_TransactionResultSet7___getitB9_
FN:83,_RNvNvNvNtNtCs47RmZobMba4_11stellar_xdr4curr9generatedsB_1__29RECURSIVE_COUNT_ScSpecTypeUdt7___getitB9_
FN:80,_RNvNvNvNtNtCs47RmZobMba4_11stellar_xdr4curr9generateds2B_1__31RECURSIVE_COUNT_StellarValueExt6___initB9_
FN:83,_RNvNvNvNtNtCs47RmZobMba4_11stellar_xdr4curr9generateds5O_1__44RECURSIVE_COUNT_CreateClaimableBalanceResult7___getitB9_
FN:83,_RNvNvNvNtNtCs47RmZobMba4_11stellar_xdr4curr9generateds2d_1__38RECURSIVE_COUNT_ContractDataDurability7___getitB9_
FN:83,_RNvNvNvNtNtCs47RmZobMba4_11stellar_xdr4curr9generateds1o_1__26RECURSIVE_COUNT_AssetCode47___getitB9_
FN:80,_RNvNvNvNtNtCs47RmZobMba4_11stellar_xdr4curr9generateds3N_1__38RECURSIVE_COUNT_TopologyResponseBodyV06___initB9_
FN:80,_RNvNvNvNtNtCs47RmZobMba4_11stellar_xdr4curr9generateds5P_1__47RECURSIVE_COUNT_ClaimClaimableBalanceResultCode6___initB9_
FN:83,_RNvNvNvNtNtCs47RmZobMba4_11stellar_xdr4curr9generateds6G_1__29RECURSIVE_COUNT_HmacSha256Mac7___getitB9_
FN:83,_RNvNvNvNtNtCs47RmZobMba4_11stellar_xdr4curr9generateds1k_1__24RECURSIVE_COUNT_String647___getitB9_
FN:83,_RNvNvNvNtNtCs47RmZobMba4_11stellar_xdr4curr9generateds58_1__35RECURSIVE_COUNT_TransactionEnvelope7___getitB9_
FN:83,_RNvNvNvNtNtCs47RmZobMba4_11stellar_xdr4curr9generatedsS_1__25RECURSIVE_COUNT_ScValType7___getitB9_
FN:80,_RNvNvNvNtNtCs47RmZobMba4_11stellar_xdr4curr9generateds1l_1__30RECURSIVE_COUNT_SequenceNumber6___initB9_
FN:80,_RNvNvNvNtNtCs47RmZobMba4_11stellar_xdr4curr9generateds30_1__39RECURSIVE_COUNT_TransactionHistoryEntry6___initB9_
FN:83,_RNvNvNvNtNtCs47RmZobMba4_11stellar_xdr4curr9generatedsK_1__35RECURSIVE_COUNT_ScSpecUdtEnumCaseV07___getitB9_
FN:80,_RNvNvNvNtNtCs47RmZobMba4_11stellar_xdr4curr9generateds3R_1__27RECURSIVE_COUNT_FloodAdvert6___initB9_
FN:80,_RNvNvNvNtNtCs47RmZobMba4_11stellar_xdr4curr9generatedsT_1__27RECURSIVE_COUNT_ScErrorType6___initB9_
FN:83,_RNvNvNvNtNtCs47RmZobMba4_11stellar_xdr4curr9generateds2N_1__33RECURSIVE_COUNT_BucketMetadataExt7___getitB9_
FN:80,_RNvNvNvNtNtCs47RmZobMba4_11stellar_xdr4curr9generateds5j_1__29RECURSIVE_COUNT_PaymentResult6___initB9_
FN:80,_RNvNvNvNtNtCs47RmZobMba4_11stellar_xdr4curr9generateds28_1__37RECURSIVE_COUNT_ClaimableBalanceEntry6___initB9_
FN:80,_RNvNvNvNtNtCs47RmZobMba4_11stellar_xdr4curr9generateds1k_1__24RECURSIVE_COUNT_String646___initB9_
FN:80,_RNvNvNvNtNtCs47RmZobMba4_11stellar_xdr4curr9generateds4W_1__32RECURSIVE_COUNT_SorobanResources6___initB9_
FN:80,_RNvNvNvNtNtCs47RmZobMba4_11stellar_xdr4curr9generateds20_1__26RECURSIVE_COUNT_ClaimantV06___initB9_
FN:83,_RNvNvNvNtNtCs47RmZobMba4_11stellar_xdr4curr9generateds2W_1__41RECURSIVE_COUNT_GeneralizedTransactionSet7___getitB9_
FN:83,_RNvNvNvNtNtCs47RmZobMba4_11stellar_xdr4curr9generateds21_1__24RECURSIVE_COUNT_Claimant7___getitB9_
FN:80,_RNvNvNvNtNtCs47RmZobMba4_11stellar_xdr4curr9generateds67_1__44RECURSIVE_COUNT_InvokeHostFunctionResultCode6___initB9_
FN:80,_RNvNvNvNtNtCs47RmZobMba4_11stellar_xdr4curr9generateds2I_1__33RECURSIVE_COUNT_LedgerUpgradeType6___initB9_
FN:83,_RNvNvNvNtNtCs47RmZobMba4_11stellar_xdr4curr9generatedsO_1__37RECURSIVE_COUNT_ScSpecFunctionInputV07___getitB9_
FN:83,_RNvNvNvNtNtCs47RmZobMba4_11stellar_xdr4curr9generatedsp_1__29RECURSIVE_COUNT_ScEnvMetaKind7___getitB9_
FN:83,_RNvNvNvNtNtCs47RmZobMba4_11stellar_xdr4curr9generateds38_1__37RECURSIVE_COUNT_LedgerEntryChangeType7___getitB9_
FN:80,_RNvNvNvNtNtCs47RmZobMba4_11stellar_xdr4curr9generateds3C_1__27RECURSIVE_COUNT_MessageType6___initB9_
FN:80,_RNvNvNvNtNtCs47RmZobMba4_11stellar_xdr4curr9generateds2J_1__35RECURSIVE_COUNT_ConfigUpgradeSetKey6___initB9_
FN:80,_RNvNvNvNtNtCs47RmZobMba4_11stellar_xdr4curr9generateds2E_1__42RECURSIVE_COUNT_LedgerHeaderExtensionV1Ext6___initB9_
FN:83,_RNvNvNvNtNtCs47RmZobMba4_11stellar_xdr4curr9generateds3f_1__31RECURSIVE_COUNT_ContractEventV07___getitB9_
FN:83,_RNvNvNvNtNtCs47RmZobMba4_11stellar_xdr4curr9generateds3x_1__21RECURSIVE_COUNT_Hello7___getitB9_
FN:80,_RNvNvNvNtNtCs47RmZobMba4_11stellar_xdr4curr9generateds2L_1__32RECURSIVE_COUNT_ConfigUpgradeSet6___initB9_
FN:83,_RNvNvNvNtNtCs47RmZobMba4_11stellar_xdr4curr9generateds4_1__29RECURSIVE_COUNT_ScpNomination7___getitB9_
FN:80,_RNvNvNvNtNtCs47RmZobMba4_11stellar_xdr4curr9generateds22_1__38RECURSIVE_COUNT_ClaimableBalanceIdType6___initB9_
FN:83,_RNvNvNvNtNtCs47RmZobMba4_11stellar_xdr4curr9generateds23_1__34RECURSIVE_COUNT_ClaimableBalanceId7___getitB9_
FN:80,_RNvNvNvNtNtCs47RmZobMba4_11stellar_xdr4curr9generatedsB_1__29RECURSIVE_COUNT_ScSpecTypeUdt6___initB9_
FN:80,_RNvNvNvNtNtCs47RmZobMba4_11stellar_xdr4curr9generatedsK_1__35RECURSIVE_COUNT_ScSpecUdtEnumCaseV06___initB9_
FN:83,_RNvNvNvNtNtCs47RmZobMba4_11stellar_xdr4curr9generateds1F_1__42RECURSIVE_COUNT_AccountEntryExtensionV1Ext7___getitB9_
FN:80,_RNvNvNvNtNtCs47RmZobMba4_11stellar_xdr4curr9generateds2g_1__24RECURSIVE_COUNT_TtlEntry6___initB9_
FN:80,_RNvNvNvNtNtCs47RmZobMba4_11stellar_xdr4curr9generatedsU_1__27RECURSIVE_COUNT_ScErrorCode6___initB9_
FN:83,_RNvNvNvNtNtCs47RmZobMba4_11stellar_xdr4curr9generateds4i_1__37RECURSIVE_COUNT_RevokeSponsorshipType7___getitB9_
FN:80,_RNvNvNvNtNtCs47RmZobMba4_11stellar_xdr4curr9generatedsE_1__33RECURSIVE_COUNT_ScSpecUdtStructV06___initB9_
FN:83,_RNvNvNvNtNtCs47RmZobMba4_11stellar_xdr4curr9generateds2A_1__41RECURSIVE_COUNT_LedgerCloseValueSignature7___getitB9_
FN:83,_RNvNvNvNtNtCs47RmZobMba4_11stellar_xdr4curr9generateds1B_1__37RECURSIVE_COUNT_SponsorshipDescriptor7___getitB9_
FN:80,_RNvNvNvNtNtCs47RmZobMba4_11stellar_xdr4curr9generateds5f_1__25RECURSIVE_COUNT_ClaimAtom6___initB9_
FN:83,_RNvNvNvNtNtCs47RmZobMba4_11stellar_xdr4curr9generatedsk_1__37RECURSIVE_COUNT_StateArchivalSettings7___getitB9_
FN:83,_RNvNvNvNtNtCs47RmZobMba4_11stellar_xdr4curr9generatedsg_1__45RECURSIVE_COUNT_ConfigSettingContractEventsV07___getitB9_
FN:80,_RNvNvNvNtNtCs47RmZobMba4_11stellar_xdr4curr9generateds54_1__41RECURSIVE_COUNT_FeeBumpTransactionInnerTx6___initB9_
FN:83,_RNvNvNvNtNtCs47RmZobMba4_11stellar_xdr4curr9generateds1M_1__44RECURSIVE_COUNT_TrustLineEntryExtensionV2Ext7___getitB9_
FN:80,_RNvNvNvNtNtCs47RmZobMba4_11stellar_xdr4curr9generateds3D_1__24RECURSIVE_COUNT_DontHave6___initB9_
FN:80,_RNvNvNvNtNtCs47RmZobMba4_11stellar_xdr4curr9generateds5Y_1__30RECURSIVE_COUNT_ClawbackResult6___initB9_
FN:83,_RNvNvNvNtNtCs47RmZobMba4_11stellar_xdr4curr9generateds1d_1__36RECURSIVE_COUNT_StoredTransactionSet7___getitB9_
FN:83,_RNvNvNvNtNtCs47RmZobMba4_11stellar_xdr4curr9generateds4R_1__28RECURSIVE_COUNT_LedgerBounds7___getitB9_
FN:83,_RNvNvNvNtNtCs47RmZobMba4_11stellar_xdr4curr9generateds4M_1__50RECURSIVE_COUNT_HashIdPreimageSorobanAuthorization7___getitB9_
FN:83,_RNvNvNvNtNtCs47RmZobMba4_11stellar_xdr4curr9generateds2L_1__32RECURSIVE_COUNT_ConfigUpgradeSet7___getitB9_
FN:83,_RNvNvNvNtNtCs47RmZobMba4_11stellar_xdr4curr9generateds6_1__35RECURSIVE_COUNT_ScpStatementConfirm7___getitB9_
FN:83,_RNvNvNvNtNtCs47RmZobMba4_11stellar_xdr4curr9generateds1H_1__31RECURSIVE_COUNT_AccountEntryExt7___getitB9_
FN:80,_RNvNvNvNtNtCs47RmZobMba4_11stellar_xdr4curr9generateds5a_1__43RECURSIVE_COUNT_TransactionSignaturePayload6___initB9_
FN:80,_RNvNvNvNtNtCs47RmZobMba4_11stellar_xdr4curr9generateds2Y_1__36RECURSIVE_COUNT_TransactionResultSet6___initB9_
FN:83,_RNvNvNvNtNtCs47RmZobMba4_11stellar_xdr4curr9generateds39_1__33RECURSIVE_COUNT_LedgerEntryChange7___getitB9_
FN:80,_RNvNvNvNtNtCs47RmZobMba4_11stellar_xdr4curr9generateds4k_1__35RECURSIVE_COUNT_RevokeSponsorshipOp6___initB9_
FN:80,_RNvNvNvNtNtCs47RmZobMba4_11stellar_xdr4curr9generateds35_1__33RECURSIVE_COUNT_LedgerScpMessages6___initB9_
FN:80,_RNvNvNvNtNtCs47RmZobMba4_11stellar_xdr4curr9generatedsm_1__34RECURSIVE_COUNT_ContractCostParams6___initB9_
FN:83,_RNvNvNvNtNtCs47RmZobMba4_11stellar_xdr4curr9generateds1p_1__27RECURSIVE_COUNT_AssetCode127___getitB9_
FN:83,_RNvNvNvNtNtCs47RmZobMba4_11stellar_xdr4curr9generateds4c_1__28RECURSIVE_COUNT_AllowTrustOp7___getitB9_
FN:80,_RNvNvNvNtNtCs47RmZobMba4_11stellar_xdr4curr9generateds4d_1__28RECURSIVE_COUNT_ManageDataOp6___initB9_
FN:80,_RNvNvNvNtNtCs47RmZobMba4_11stellar_xdr4curr9generateds5T_1__53RECURSIVE_COUNT_EndSponsoringFutureReservesResultCode6___initB9_
FN:83,_RNvNvNvNtNtCs47RmZobMba4_11stellar_xdr4curr9generateds8_1__35RECURSIVE_COUNT_ScpStatementPledges7___getitB9_
FN:83,_RNvNvNvNtNtCs47RmZobMba4_11stellar_xdr4curr9generatedsi_1__32RECURSIVE_COUNT_ContractCostType7___getitB9_
FN:80,_RNvNvNvNtNtCs47RmZobMba4_11stellar_xdr4curr9generateds6o_1__20RECURSIVE_COUNT_Hash6___initB9_
FN:80,_RNvNvNvNtNtCs47RmZobMba4_11stellar_xdr4curr9generateds2A_1__41RECURSIVE_COUNT_LedgerCloseValueSignature6___initB9_
FN:80,_RNvNvNvNtNtCs47RmZobMba4_11stellar_xdr4curr9generateds3H_1__42RECURSIVE_COUNT_SignedSurveyRequestMessage6___initB9_
FN:80,_RNvNvNvNtNtCs47RmZobMba4_11stellar_xdr4curr9generateds3B_1__27RECURSIVE_COUNT_PeerAddress6___initB9_
FN:83,_RNvNvNvNtNtCs47RmZobMba4_11stellar_xdr4curr9generateds50_1__37RECURSIVE_COUNT_TransactionV0Envelope7___getitB9_
FN:83,_RNvNvNvNtNtCs47RmZobMba4_11stellar_xdr4curr9generateds3T_1__27RECURSIVE_COUNT_FloodDemand7___getitB9_
FN:83,_RNvNvNvNtNtCs47RmZobMba4_11stellar_xdr4curr9generatedse_1__49RECURSIVE_COUNT_ConfigSettingContractLedgerCostV07___getitB9_
FN:80,_RNvNvNvNtNtCs47RmZobMba4_11stellar_xdr4curr9generateds1v_1__21RECURSIVE_COUNT_Price6___initB9_
FN:80,_RNvNvNvNtNtCs47RmZobMba4_11stellar_xdr4curr9generateds1Q_1__33RECURSIVE_COUNT_TrustLineEntryExt6___initB9_
FN:80,_RNvNvNvNtNtCs47RmZobMba4_11stellar_xdr4curr9generateds1j_1__24RECURSIVE_COUNT_String326___initB9_
FN:83,_RNvNvNvNtNtCs47RmZobMba4_11stellar_xdr4curr9generateds6i_1__41RECURSIVE_COUNT_InnerTransactionResultExt7___getitB9_
FN:83,_RNvNvNvNtNtCs47RmZobMba4_11stellar_xdr4curr9generateds6y_1__25RECURSIVE_COUNT_SignerKey7___getitB9_
FN:80,_RNvNvNvNtNtCs47RmZobMba4_11stellar_xdr4curr9generateds6u_1__29RECURSIVE_COUNT_PublicKeyType6___initB9_
FN:83,_RNvNvNvNtNtCs47RmZobMba4_11stellar_xdr4curr9generateds0_1__23RECURSIVE_COUNT_StringM7___getitB9_
FN:83,_RNvNvNvNtNtCs47RmZobMba4_11stellar_xdr4curr9generateds3v_1__32RECURSIVE_COUNT_SendMoreExtended7___getitB9_
FN:80,_RNvNvNvNtNtCs47RmZobMba4_11stellar_xdr4curr9generateds21_1__24RECURSIVE_COUNT_Claimant6___initB9_
FN:80,_RNvNvNvNtNtCs47RmZobMba4_11stellar_xdr4curr9generateds1n_1__22RECURSIVE_COUNT_PoolId6___initB9_
FN:83,_RNvNvNvNtNtCs47RmZobMba4_11stellar_xdr4curr9generateds43_1__25RECURSIVE_COUNT_PaymentOp7___getitB9_
FN:80,_RNvNvNvNtNtCs47RmZobMba4_11stellar_xdr4curr9generateds5R_1__55RECURSIVE_COUNT_BeginSponsoringFutureReservesResultCode6___initB9_
FN:83,_RNvNvNvNtNtCs47RmZobMba4_11stellar_xdr4curr9generateds65_1__47RECURSIVE_COUNT_LiquidityPoolWithdrawResultCode7___getitB9_
FN:80,_RNvNvNvNtNtCs47RmZobMba4_11stellar_xdr4curr9generateds3r_1__31RECURSIVE_COUNT_LedgerCloseMeta6___initB9_
FN:83,_RNvNvNvNtNtCs47RmZobMba4_11stellar_xdr4curr9generateds2B_1__31RECURSIVE_COUNT_StellarValueExt7___getitB9_
FN:83,_RNvNvNvNtNtCs47RmZobMba4_11stellar_xdr4curr9generateds4g_1__39RECURSIVE_COUNT_ClaimClaimableBalanceOp7___getitB9_
FN:83,_RNvNvNvNtNtCs47RmZobMba4_11stellar_xdr4curr9generateds3N_1__38RECURSIVE_COUNT_TopologyResponseBodyV07___getitB9_
FN:83,_RNvNvNvNtNtCs47RmZobMba4_11stellar_xdr4curr9generatedsf_1__53RECURSIVE_COUNT_ConfigSettingContractHistoricalDataV07___getitB9_
FN:83,_RNvNvNvNtNtCs47RmZobMba4_11stellar_xdr4curr9generateds2P_1__27RECURSIVE_COUNT_BucketEntry7___getitB9_
FN:80,_RNvNvNvNtNtCs47RmZobMba4_11stellar_xdr4curr9generatedsk_1__37RECURSIVE_COUNT_StateArchivalSettings6___initB9_
FN:83,_RNvNvNvNtNtCs47RmZobMba4_11stellar_xdr4curr9generateds4W_1__32RECURSIVE_COUNT_SorobanResources7___getitB9_
FN:80,_RNvNvNvNtNtCs47RmZobMba4_11stellar_xdr4curr9generatedsg_1__45RECURSIVE_COUNT_ConfigSettingContractEventsV06___initB9_
FN:80,_RNvNvNvNtNtCs47RmZobMba4_11stellar_xdr4curr9generateds62_1__39RECURSIVE_COUNT_SetTrustLineFlagsResult6___initB9_
FN:83,_RNvNvNvNtNtCs47RmZobMba4_11stellar_xdr4curr9generateds31_1__48RECURSIVE_COUNT_TransactionHistoryResultEntryExt7___getitB9_
FN:83,_RNvNvNvNtNtCs47RmZobMba4_11stellar_xdr4curr9generateds67_1__44RECURSIVE_COUNT_InvokeHostFunctionResultCode7___getitB9_
FN:80,_RNvNvNvNtNtCs47RmZobMba4_11stellar_xdr4curr9generateds3l_1__49RECURSIVE_COUNT_InvokeHostFunctionSuccessPreImage6___initB9_
FN:83,_RNvNvNvNtNtCs47RmZobMba4_11stellar_xdr4curr9generateds6a_1__40RECURSIVE_COUNT_ExtendFootprintTtlResult7___getitB9_
FN:83,_RNvNvNvNtNtCs47RmZobMba4_11stellar_xdr4curr9generateds61_1__43RECURSIVE_COUNT_SetTrustLineFlagsResultCode7___getitB9_
FN:80,_RNvNvNvNtNtCs47RmZobMba4_11stellar_xdr4curr9generateds4A_1__41RECURSIVE_COUNT_SorobanAddressCredentials6___initB9_
FN:83,_RNvNvNvNtNtCs47RmZobMba4_11stellar_xdr4curr9generateds4u_1__34RECURSIVE_COUNT_CreateContractArgs7___getitB9_
FN:83,_RNvNvNvNtNtCs47RmZobMba4_11stellar_xdr4curr9generateds45_1__39RECURSIVE_COUNT_PathPaymentStrictSendOp7___getitB9_
FN:80,_RNvNvNvNtNtCs47RmZobMba4_11stellar_xdr4curr9generatedse_1__49RECURSIVE_COUNT_ConfigSettingContractLedgerCostV06___initB9_
FN:83,_RNvNvNvNtNtCs47RmZobMba4_11stellar_xdr4curr9generateds5I_1__31RECURSIVE_COUNT_InflationResult7___getitB9_
FN:80,_RNvNvNvNtNtCs47RmZobMba4_11stellar_xdr4curr9generateds4K_1__38RECURSIVE_COUNT_HashIdPreimageRevokeId6___initB9_
FN:83,_RNvNvNvNtNtCs47RmZobMba4_11stellar_xdr4curr9generateds1K_1__33RECURSIVE_COUNT_LiquidityPoolType7___getitB9_
FN:80,_RNvNvNvNtNtCs47RmZobMba4_11stellar_xdr4curr9generateds2t_1__37RECURSIVE_COUNT_LedgerKeyContractCode6___initB9_
FN:80,_RNvNvNvNtNtCs47RmZobMba4_11stellar_xdr4curr9generateds4Q_1__26RECURSIVE_COUNT_TimeBounds6___initB9_
FN:80,_RNvNvNvNtNtCs47RmZobMba4_11stellar_xdr4curr9generateds4i_1__37RECURSIVE_COUNT_RevokeSponsorshipType6___initB9_
FN:83,_RNvNvNvNtNtCs47RmZobMba4_11stellar_xdr4curr9generateds2X_1__37RECURSIVE_COUNT_TransactionResultPair7___getitB9_
FN:80,_RNvNvNvNtNtCs47RmZobMba4_11stellar_xdr4curr9generatedsR_1__27RECURSIVE_COUNT_ScSpecEntry6___initB9_
FN:83,_RNvNvNvNtNtCs47RmZobMba4_11stellar_xdr4curr9generatedsP_1__32RECURSIVE_COUNT_ScSpecFunctionV07___getitB9_
FN:83,_RNvNvNvNtNtCs47RmZobMba4_11stellar_xdr4curr9generateds_1__22RECURSIVE_COUNT_BytesM7___getitB9_
FN:83,_RNvNvNvNtNtCs47RmZobMba4_11stellar_xdr4curr9generateds9_1__28RECURSIVE_COUNT_ScpStatement7___getitB9_
FN:80,_RNvNvNvNtNtCs47RmZobMba4_11stellar_xdr4curr9generateds2F_1__39RECURSIVE_COUNT_LedgerHeaderExtensionV16___initB9_
FN:80,_RNvNvNvNtNtCs47RmZobMba4_11stellar_xdr4curr9generatedsa_1__27RECURSIVE_COUNT_ScpEnvelope6___initB9_
FN:80,_RNvNvNvNtNtCs47RmZobMba4_11stellar_xdr4curr9generateds2Q_1__34RECURSIVE_COUNT_TxSetComponentType6___initB9_
FN:80,_RNvNvNvNtNtCs47RmZobMba4_11stellar_xdr4curr9generatedsH_1__40RECURSIVE_COUNT_ScSpecUdtUnionCaseV0Kind6___initB9_
FN:80,_RNvNvNvNtNtCs47RmZobMba4_11stellar_xdr4curr9generateds0_1__23RECURSIVE_COUNT_StringM6___initB9_
FN:83,_RNvNvNvNtNtCs47RmZobMba4_11stellar_xdr4curr9generateds3Q_1__30RECURSIVE_COUNT_TxAdvertVector7___getitB9_
FN:83,_RNvNvNvNtNtCs47RmZobMba4_11stellar_xdr4curr9generateds20_1__26RECURSIVE_COUNT_ClaimantV07___getitB9_
FN:80,_RNvNvNvNtNtCs47RmZobMba4_11stellar_xdr4curr9generateds1L_1__30RECURSIVE_COUNT_TrustLineAsset6___initB9_
FN:80,_RNvNvNvNtNtCs47RmZobMba4_11stellar_xdr4curr9generateds5I_1__31RECURSIVE_COUNT_InflationResult6___initB9_
FN:83,_RNvNvNvNtNtCs47RmZobMba4_11stellar_xdr4curr9generateds4x_1__45RECURSIVE_COUNT_SorobanAuthorizedFunctionType7___getitB9_
FN:80,_RNvNvNvNtNtCs47RmZobMba4_11stellar_xdr4curr9generateds6t_1__29RECURSIVE_COUNT_CryptoKeyType6___initB9_
FN:80,_RNvNvNvNtNtCs47RmZobMba4_11stellar_xdr4curr9generateds18_1__24RECURSIVE_COUNT_ScSymbol6___initB9_
FN:80,_RNvNvNvNtNtCs47RmZobMba4_11stellar_xdr4curr9generateds11_1__34RECURSIVE_COUNT_ContractExecutable6___initB9_
FN:80,_RNvNvNvNtNtCs47RmZobMba4_11stellar_xdr4curr9generateds2o_1__30RECURSIVE_COUNT_LedgerKeyOffer6___initB9_
FN:80,_RNvNvNvNtNtCs47RmZobMba4_11stellar_xdr4curr9generateds4V_1__31RECURSIVE_COUNT_LedgerFootprint6___initB9_
FN:83,_RNvNvNvNtNtCs47RmZobMba4_11stellar_xdr4curr9generateds1U_1__26RECURSIVE_COUNT_OfferEntry7___getitB9_
FN:83,_RNvNvNvNtNtCs47RmZobMba4_11stellar_xdr4curr9generatedsj_1__38RECURSIVE_COUNT_ContractCostParamEntry7___getitB9_
FN:83,_RNvNvNvNtNtCs47RmZobMba4_11stellar_xdr4curr9generateds37_1__31RECURSIVE_COUNT_ScpHistoryEntry7___getitB9_
FN:83,_RNvNvNvNtNtCs47RmZobMba4_11stellar_xdr4curr9generateds6b_1__42RECURSIVE_COUNT_RestoreFootprintResultCode7___getitB9_
FN:80,_RNvNvNvNtNtCs47RmZobMba4_11stellar_xdr4curr9generateds5U_1__49RECURSIVE_COUNT_EndSponsoringFutureReservesResult6___initB9_
FN:80,_RNvNvNvNtNtCs47RmZobMba4_11stellar_xdr4curr9generateds6A_1__29RECURSIVE_COUNT_SignatureHint6___initB9_
FN:80,_RNvNvNvNtNtCs47RmZobMba4_11stellar_xdr4curr9generateds5d_1__30RECURSIVE_COUNT_ClaimOfferAtom6___initB9_
FN:80,_RNvNvNvNtNtCs47RmZobMba4_11stellar_xdr4curr9generateds4U_1__29RECURSIVE_COUNT_Preconditions6___initB9_
FN:80,_RNvNvNvNtNtCs47RmZobMba4_11stellar_xdr4curr9generateds2c_1__34RECURSIVE_COUNT_LiquidityPoolEntry6___initB9_
FN:83,_RNvNvNvNtNtCs47RmZobMba4_11stellar_xdr4curr9generateds2T_1__32RECURSIVE_COUNT_TransactionPhase7___getitB9_
FN:80,_RNvNvNvNtNtCs47RmZobMba4_11stellar_xdr4curr9generateds6n_1__33RECURSIVE_COUNT_TransactionResult6___initB9_
FN:80,_RNvNvNvNtNtCs47RmZobMba4_11stellar_xdr4curr9generatedsn_1__31RECURSIVE_COUNT_ConfigSettingId6___initB9_
FN:83,_RNvNvNvNtNtCs47RmZobMba4_11stellar_xdr4curr9generateds4s_1__45RECURSIVE_COUNT_ContractIdPreimageFromAddress7___getitB9_
FN:83,_RNvNvNvNtNtCs47RmZobMba4_11stellar_xdr4curr9generateds6j_1__38RECURSIVE_COUNT_InnerTransactionResult7___getitB9_
FN:80,_RNvNvNvNtNtCs47RmZobMba4_11stellar_xdr4curr9generateds1r_1__25RECURSIVE_COUNT_AssetCode6___initB9_
FN:80,_RNvNvNvNtNtCs47RmZobMba4_11stellar_xdr4curr9generateds3_1__32RECURSIVE_COUNT_ScpStatementType6___initB9_
FN:80,_RNvNvNvNtNtCs47RmZobMba4_11stellar_xdr4curr9generateds4X_1__38RECURSIVE_COUNT_SorobanTransactionData6___initB9_
FN:83,_RNvNvNvNtNtCs47RmZobMba4_11stellar_xdr4curr9generatedsJ_1__32RECURSIVE_COUNT_ScSpecUdtUnionV07___getitB9_
FN:80,_RNvNvNvNtNtCs47RmZobMba4_11stellar_xdr4curr9generatedsV_1__23RECURSIVE_COUNT_ScError6___initB9_
FN:83,_RNvNvNvNtNtCs47RmZobMba4_11stellar_xdr4curr9generateds1g_1__35RECURSIVE_COUNT_PersistedScpStateV17___getitB9_
FN:83,_RNvNvNvNtNtCs47RmZobMba4_11stellar_xdr4curr9generateds4J_1__41RECURSIVE_COUNT_HashIdPreimageOperationId7___getitB9_
FN:83,_RNvNvNvNtNtCs47RmZobMba4_11stellar_xdr4curr9generateds5G_1__35RECURSIVE_COUNT_InflationResultCode7___getitB9_
FN:83,_RNvNvNvNtNtCs47RmZobMba4_11stellar_xdr4curr9generateds6m_1__36RECURSIVE_COUNT_TransactionResultExt7___getitB9_
FN:80,_RNvNvNvNtNtCs47RmZobMba4_11stellar_xdr4curr9generatedsD_1__38RECURSIVE_COUNT_ScSpecUdtStructFieldV06___initB9_
FN:83,_RNvNvNvNtNtCs47RmZobMba4_11stellar_xdr4curr9generateds2y_1__27RECURSIVE_COUNT_UpgradeType7___getitB9_
FN:83,_RNvNvNvNtNtCs47RmZobMba4_11stellar_xdr4curr9generateds3j_1__38RECURSIVE_COUNT_SorobanTransactionMeta7___getitB9_
FN:80,_RNvNvNvNtNtCs47RmZobMba4_11stellar_xdr4curr9generateds4y_1__41RECURSIVE_COUNT_SorobanAuthorizedFunction6___initB9_
FN:83,_RNvNvNvNtNtCs47RmZobMba4_11stellar_xdr4curr9generateds6u_1__29RECURSIVE_COUNT_PublicKeyType7___getitB9_
FN:83,_RNvNvNvNtNtCs47RmZobMba4_11stellar_xdr4curr9generateds3G_1__36RECURSIVE_COUNT_SurveyRequestMessage7___getitB9_
FN:80,_RNvNvNvNtNtCs47RmZobMba4_11stellar_xdr4curr9generateds4m_1__42RECURSIVE_COUNT_ClawbackClaimableBalanceOp6___initB9_
FN:80,_RNvNvNvNtNtCs47RmZobMba4_11stellar_xdr4curr9generateds9_1__28RECURSIVE_COUNT_ScpStatement6___initB9_
FN:83,_RNvNvNvNtNtCs47RmZobMba4_11stellar_xdr4curr9generateds3q_1__33RECURSIVE_COUNT_LedgerCloseMetaV17___getitB9_
FN:80,_RNvNvNvNtNtCs47RmZobMba4_11stellar_xdr4curr9generatedsj_1__38RECURSIVE_COUNT_ContractCostParamEntry6___initB9_
FN:83,_RNvNvNvNtNtCs47RmZobMba4_11stellar_xdr4curr9generateds5R_1__55RECURSIVE_COUNT_BeginSponsoringFutureReservesResultCode7___getitB9_
FN:83,_RNvNvNvNtNtCs47RmZobMba4_11stellar_xdr4curr9generateds6e_1__33RECURSIVE_COUNT_OperationResultTr7___getitB9_
FN:83,_RNvNvNvNtNtCs47RmZobMba4_11stellar_xdr4curr9generateds2x_1__28RECURSIVE_COUNT_EnvelopeType7___getitB9_
FN:83,_RNvNvNvNtNtCs47RmZobMba4_11stellar_xdr4curr9generateds6x_1__45RECURSIVE_COUNT_SignerKeyEd25519SignedPayload7___getitB9_
FN:83,_RNvNvNvNtNtCs47RmZobMba4_11stellar_xdr4curr9generateds3p_1__33RECURSIVE_COUNT_LedgerCloseMetaV07___getitB9_
FN:83,_RNvNvNvNtNtCs47RmZobMba4_11stellar_xdr4curr9generateds6c_1__38RECURSIVE_COUNT_RestoreFootprintResult7___getitB9_
FN:80,_RNvNvNvNtNtCs47RmZobMba4_11stellar_xdr4curr9generateds3Q_1__30RECURSIVE_COUNT_TxAdvertVector6___initB9_
FN:80,_RNvNvNvNtNtCs47RmZobMba4_11stellar_xdr4curr9generateds4B_1__38RECURSIVE_COUNT_SorobanCredentialsType6___initB9_
FN:80,_RNvNvNvNtNtCs47RmZobMba4_11stellar_xdr4curr9generateds38_1__37RECURSIVE_COUNT_LedgerEntryChangeType6___initB9_
FN:83,_RNvNvNvNtNtCs47RmZobMba4_11stellar_xdr4curr9generateds4L_1__40RECURSIVE_COUNT_HashIdPreimageContractId7___getitB9_
FN:83,_RNvNvNvNtNtCs47RmZobMba4_11stellar_xdr4curr9generateds3I_1__29RECURSIVE_COUNT_EncryptedBody7___getitB9_
FN:80,_RNvNvNvNtNtCs47RmZobMba4_11stellar_xdr4curr9generateds5N_1__48RECURSIVE_COUNT_CreateClaimableBalanceResultCode6___initB9_
FN:83,_RNvNvNvNtNtCs47RmZobMba4_11stellar_xdr4curr9generateds2K_1__29RECURSIVE_COUNT_LedgerUpgrade7___getitB9_
FN:83,_RNvNvNvNtNtCs47RmZobMba4_11stellar_xdr4curr9generateds2f_1__33RECURSIVE_COUNT_ContractCodeEntry7___getitB9_
FN:80,_RNvNvNvNtNtCs47RmZobMba4_11stellar_xdr4curr9generateds2n_1__34RECURSIVE_COUNT_LedgerKeyTrustLine6___initB9_
FN:83,_RNvNvNvNtNtCs47RmZobMba4_11stellar_xdr4curr9generateds1s_1__25RECURSIVE_COUNT_AlphaNum47___getitB9_
FN:83,_RNvNvNvNtNtCs47RmZobMba4_11stellar_xdr4curr9generateds3E_1__40RECURSIVE_COUNT_SurveyMessageCommandType7___getitB9_
FN:80,_RNvNvNvNtNtCs47RmZobMba4_11stellar_xdr4curr9generateds3V_1__38RECURSIVE_COUNT_AuthenticatedMessageV06___initB9_
FN:80,_RNvNvNvNtNtCs47RmZobMba4_11stellar_xdr4curr9generateds3P_1__34RECURSIVE_COUNT_SurveyResponseBody6___initB9_
FN:80,_RNvNvNvNtNtCs47RmZobMba4_11stellar_xdr4curr9generateds1S_1__31RECURSIVE_COUNT_OfferEntryFlags6___initB9_
FN:80,_RNvNvNvNtNtCs47RmZobMba4_11stellar_xdr4curr9generated1__20RECURSIVE_COUNT_VecM6___initB9_
FN:80,_RNvNvNvNtNtCs47RmZobMba4_11stellar_xdr4curr9generatedsQ_1__31RECURSIVE_COUNT_ScSpecEntryKind6___initB9_
FN:83,_RNvNvNvNtNtCs47RmZobMba4_11stellar_xdr4curr9generateds4p_1__39RECURSIVE_COUNT_LiquidityPoolWithdrawOp7___getitB9_
FN:83,_RNvNvNvNtNtCs47RmZobMba4_11stellar_xdr4curr9generateds5o_1__47RECURSIVE_COUNT_PathPaymentStrictSendResultCode7___getitB9_
FN:80,_RNvNvNvNtNtCs47RmZobMba4_11stellar_xdr4curr9generateds6z_1__25RECURSIVE_COUNT_Signature6___initB9_
FN:80,_RNvNvNvNtNtCs47RmZobMba4_11stellar_xdr4curr9generateds69_1__44RECURSIVE_COUNT_ExtendFootprintTtlResultCode6___initB9_
FN:80,_RNvNvNvNtNtCs47RmZobMba4_11stellar_xdr4curr9generateds66_1__43RECURSIVE_COUNT_LiquidityPoolWithdrawResult6___initB9_
FN:80,_RNvNvNvNtNtCs47RmZobMba4_11stellar_xdr4curr9generateds2b_1__38RECURSIVE_COUNT_LiquidityPoolEntryBody6___initB9_
FN:80,_RNvNvNvNtNtCs47RmZobMba4_11stellar_xdr4curr9generateds32_1__45RECURSIVE_COUNT_TransactionHistoryResultEntry6___initB9_
FN:83,_RNvNvNvNtNtCs47RmZobMba4_11stellar_xdr4curr9generatedsx_1__29RECURSIVE_COUNT_ScSpecTypeVec7___getitB9_
FN:83,_RNvNvNvNtNtCs47RmZobMba4_11stellar_xdr4curr9generateds5b_1__29RECURSIVE_COUNT_ClaimAtomType7___getitB9_
FN:80,_RNvNvNvNtNtCs47RmZobMba4_11stellar_xdr4curr9generateds4o_1__38RECURSIVE_COUNT_LiquidityPoolDepositOp6___initB9_
FN:83,_RNvNvNvNtNtCs47RmZobMba4_11stellar_xdr4curr9generateds3a_1__34RECURSIVE_COUNT_LedgerEntryChanges7___getitB9_
FN:83,_RNvNvNvNtNtCs47RmZobMba4_11stellar_xdr4curr9generateds3R_1__27RECURSIVE_COUNT_FloodAdvert7___getitB9_
FN:83,_RNvNvNvNtNtCs47RmZobMba4_11stellar_xdr4curr9generateds5y_1__36RECURSIVE_COUNT_SetOptionsResultCode7___getitB9_
FN:80,_RNvNvNvNtNtCs47RmZobMba4_11stellar_xdr4curr9generateds4v_1__34RECURSIVE_COUNT_InvokeContractArgs6___initB9_
FN:80,_RNvNvNvNtNtCs47RmZobMba4_11stellar_xdr4curr9generateds2S_1__30RECURSIVE_COUNT_TxSetComponent6___initB9_
FN:80,_RNvNvNvNtNtCs47RmZobMba4_11stellar_xdr4curr9generateds2u_1__38RECURSIVE_COUNT_LedgerKeyConfigSetting6___initB9_
FN:83,_RNvNvNvNtNtCs47RmZobMba4_11stellar_xdr4curr9generateds1u_1__21RECURSIVE_COUNT_Asset7___getitB9_
FN:83,_RNvNvNvNtNtCs47RmZobMba4_11stellar_xdr4curr9generateds6s_1__30RECURSIVE_COUNT_ExtensionPoint7___getitB9_
FN:83,_RNvNvNvNtNtCs47RmZobMba4_11stellar_xdr4curr9generateds2u_1__38RECURSIVE_COUNT_LedgerKeyConfigSetting7___getitB9_
FN:83,_RNvNvNvNtNtCs47RmZobMba4_11stellar_xdr4curr9generatedsC_1__29RECURSIVE_COUNT_ScSpecTypeDef7___getitB9_
FN:83,_RNvNvNvNtNtCs47RmZobMba4_11stellar_xdr4curr9generateds1N_1__41RECURSIVE_COUNT_TrustLineEntryExtensionV27___getitB9_
FN:80,_RNvNvNvNtNtCs47RmZobMba4_11stellar_xdr4curr9generateds1U_1__26RECURSIVE_COUNT_OfferEntry6___initB9_
FN:80,_RNvNvNvNtNtCs47RmZobMba4_11stellar_xdr4curr9generateds2K_1__29RECURSIVE_COUNT_LedgerUpgrade6___initB9_
FN:80,_RNvNvNvNtNtCs47RmZobMba4_11stellar_xdr4curr9generateds4j_1__41RECURSIVE_COUNT_RevokeSponsorshipOpSigner6___initB9_
FN:83,_RNvNvNvNtNtCs47RmZobMba4_11stellar_xdr4curr9generateds1b_1__21RECURSIVE_COUNT_ScVal7___getitB9_
FN:80,_RNvNvNvNtNtCs47RmZobMba4_11stellar_xdr4curr9generateds26_1__48RECURSIVE_COUNT_ClaimableBalanceEntryExtensionV16___initB9_
FN:80,_RNvNvNvNtNtCs47RmZobMba4_11stellar_xdr4curr9generateds2O_1__30RECURSIVE_COUNT_BucketMetadata6___initB9_
FN:80,_RNvNvNvNtNtCs47RmZobMba4_11stellar_xdr4curr9generateds3h_1__29RECURSIVE_COUNT_ContractEvent6___initB9_
FN:80,_RNvNvNvNtNtCs47RmZobMba4_11stellar_xdr4curr9generateds2i_1__38RECURSIVE_COUNT_LedgerEntryExtensionV16___initB9_
FN:83,_RNvNvNvNtNtCs47RmZobMba4_11stellar_xdr4curr9generateds5v_1__37RECURSIVE_COUNT_ManageSellOfferResult7___getitB9_
FN:80,_RNvNvNvNtNtCs47RmZobMba4_11stellar_xdr4curr9generateds3p_1__33RECURSIVE_COUNT_LedgerCloseMetaV06___initB9_
FN:80,_RNvNvNvNtNtCs47RmZobMba4_11stellar_xdr4curr9generatedsx_1__29RECURSIVE_COUNT_ScSpecTypeVec6___initB9_
FN:80,_RNvNvNvNtNtCs47RmZobMba4_11stellar_xdr4curr9generateds25_1__51RECURSIVE_COUNT_ClaimableBalanceEntryExtensionV1Ext6___initB9_
FN:83,_RNvNvNvNtNtCs47RmZobMba4_11stellar_xdr4curr9generateds3w_1__24RECURSIVE_COUNT_AuthCert7___getitB9_
FN:80,_RNvNvNvNtNtCs47RmZobMba4_11stellar_xdr4curr9generateds43_1__25RECURSIVE_COUNT_PaymentOp6___initB9_
FN:80,_RNvNvNvNtNtCs47RmZobMba4_11stellar_xdr4curr9generatedsc_1__53RECURSIVE_COUNT_ConfigSettingContractExecutionLanesV06___initB9_
FN:80,_RNvNvNvNtNtCs47RmZobMba4_11stellar_xdr4curr9generatedsZ_1__27RECURSIVE_COUNT_Int256Parts6___initB9_
FN:83,_RNvNvNvNtNtCs47RmZobMba4_11stellar_xdr4curr9generateds5s_1__33RECURSIVE_COUNT_ManageOfferEffect7___getitB9_
FN:83,_RNvNvNvNtNtCs47RmZobMba4_11stellar_xdr4curr9generateds4F_1__36RECURSIVE_COUNT_ExtendFootprintTtlOp7___getitB9_
FN:83,_RNvNvNvNtNtCs47RmZobMba4_11stellar_xdr4curr9generateds1q_1__25RECURSIVE_COUNT_AssetType7___getitB9_
FN:80,_RNvNvNvNtNtCs47RmZobMba4_11stellar_xdr4curr9generateds2s_1__37RECURSIVE_COUNT_LedgerKeyContractData6___initB9_
FN:80,_RNvNvNvNtNtCs47RmZobMba4_11stellar_xdr4curr9generateds1x_1__32RECURSIVE_COUNT_ThresholdIndexes6___initB9_
FN:83,_RNvNvNvNtNtCs47RmZobMba4_11stellar_xdr4curr9generateds3c_1__33RECURSIVE_COUNT_TransactionMetaV17___getitB9_
FN:83,_RNvNvNvNtNtCs47RmZobMba4_11stellar_xdr4curr9generateds4P_1__20RECURSIVE_COUNT_Memo7___getitB9_
FN:83,_RNvNvNvNtNtCs47RmZobMba4_11stellar_xdr4curr9generateds3J_1__37RECURSIVE_COUNT_SurveyResponseMessage7___getitB9_
FN:83,_RNvNvNvNtNtCs47RmZobMba4_11stellar_xdr4curr9generateds1V_1__28RECURSIVE_COUNT_DataEntryExt7___getitB9_
FN:83,_RNvNvNvNtNtCs47RmZobMba4_11stellar_xdr4curr9generateds5B_1__33RECURSIVE_COUNT_ChangeTrustResult7___getitB9_
FN:80,_RNvNvNvNtNtCs47RmZobMba4_11stellar_xdr4curr9generateds2x_1__28RECURSIVE_COUNT_EnvelopeType6___initB9_
FN:83,_RNvNvNvNtNtCs47RmZobMba4_11stellar_xdr4curr9generatedsz_1__31RECURSIVE_COUNT_ScSpecTypeTuple7___getitB9_
FN:83,_RNvNvNvNtNtCs47RmZobMba4_11stellar_xdr4curr9generateds4E_1__36RECURSIVE_COUNT_InvokeHostFunctionOp7___getitB9_
FN:80,_RNvNvNvNtNtCs47RmZobMba4_11stellar_xdr4curr9generateds5V_1__43RECURSIVE_COUNT_RevokeSponsorshipResultCode6___initB9_
FN:83,_RNvNvNvNtNtCs47RmZobMba4_11stellar_xdr4curr9generateds2U_1__30RECURSIVE_COUNT_TransactionSet7___getitB9_
FN:80,_RNvNvNvNtNtCs47RmZobMba4_11stellar_xdr4curr9generatedsv_1__32RECURSIVE_COUNT_ScSpecTypeOption6___initB9_
FN:80,_RNvNvNvNtNtCs47RmZobMba4_11stellar_xdr4curr9generatedsF_1__40RECURSIVE_COUNT_ScSpecUdtUnionCaseVoidV06___initB9_
FN:83,_RNvNvNvNtNtCs47RmZobMba4_11stellar_xdr4curr9generateds44_1__42RECURSIVE_COUNT_PathPaymentStrictReceiveOp7___getitB9_
FN:80,_RNvNvNvNtNtCs47RmZobMba4_11stellar_xdr4curr9generateds1s_1__25RECURSIVE_COUNT_AlphaNum46___initB9_
FN:80,_RNvNvNvNtNtCs47RmZobMba4_11stellar_xdr4curr9generateds3E_1__40RECURSIVE_COUNT_SurveyMessageCommandType6___initB9_
FN:83,_RNvNvNvNtNtCs47RmZobMba4_11stellar_xdr4curr9generateds4t_1__34RECURSIVE_COUNT_ContractIdPreimage7___getitB9_
FN:80,_RNvNvNvNtNtCs47RmZobMba4_11stellar_xdr4curr9generateds1b_1__21RECURSIVE_COUNT_ScVal6___initB9_
FN:83,_RNvNvNvNtNtCs47RmZobMba4_11stellar_xdr4curr9generateds5H_1__31RECURSIVE_COUNT_InflationPayout7___getitB9_
FN:80,_RNvNvNvNtNtCs47RmZobMba4_11stellar_xdr4curr9generateds3z_1__26RECURSIVE_COUNT_IpAddrType6___initB9_
FN:80,_RNvNvNvNtNtCs47RmZobMba4_11stellar_xdr4curr9generateds5l_1__35RECURSIVE_COUNT_SimplePaymentResult6___initB9_
FN:80,_RNvNvNvNtNtCs47RmZobMba4_11stellar_xdr4curr9generateds1A_1__28RECURSIVE_COUNT_AccountFlags6___initB9_
FN:83,_RNvNvNvNtNtCs47RmZobMba4_11stellar_xdr4curr9generateds5t_1__45RECURSIVE_COUNT_ManageOfferSuccessResultOffer7___getitB9_
FN:80,_RNvNvNvNtNtCs47RmZobMba4_11stellar_xdr4curr9generateds4z_1__43RECURSIVE_COUNT_SorobanAuthorizedInvocation6___initB9_
FN:83,_RNvNvNvNtNtCs47RmZobMba4_11stellar_xdr4curr9generateds5Z_1__50RECURSIVE_COUNT_ClawbackClaimableBalanceResultCode7___getitB9_
FN:83,_RNvNvNvNtNtCs47RmZobMba4_11stellar_xdr4curr9generatedsU_1__27RECURSIVE_COUNT_ScErrorCode7___getitB9_
FN:83,_RNvNvNvNtNtCs47RmZobMba4_11stellar_xdr4curr9generateds3K_1__43RECURSIVE_COUNT_SignedSurveyResponseMessage7___getitB9_
FN:83,_RNvNvNvNtNtCs47RmZobMba4_11stellar_xdr4curr9generateds15_1__21RECURSIVE_COUNT_ScMap7___getitB9_
FN:80,_RNvNvNvNtNtCs47RmZobMba4_11stellar_xdr4curr9generateds36_1__33RECURSIVE_COUNT_ScpHistoryEntryV06___initB9_
FN:80,_RNvNvNvNtNtCs47RmZobMba4_11stellar_xdr4curr9generateds24_1__37RECURSIVE_COUNT_ClaimableBalanceFlags6___initB9_
FN:83,_RNvNvNvNtNtCs47RmZobMba4_11stellar_xdr4curr9generateds5W_1__39RECURSIVE_COUNT_RevokeSponsorshipResult7___getitB9_
FN:83,_RNvNvNvNtNtCs47RmZobMba4_11stellar_xdr4curr9generateds3L_1__25RECURSIVE_COUNT_PeerStats7___getitB9_
FN:80,_RNvNvNvNtNtCs47RmZobMba4_11stellar_xdr4curr9generateds4D_1__41RECURSIVE_COUNT_SorobanAuthorizationEntry6___initB9_
FN:80,_RNvNvNvNtNtCs47RmZobMba4_11stellar_xdr4curr9generateds3g_1__33RECURSIVE_COUNT_ContractEventBody6___initB9_
FN:80,_RNvNvNvNtNtCs47RmZobMba4_11stellar_xdr4curr9generateds4T_1__32RECURSIVE_COUNT_PreconditionType6___initB9_
FN:80,_RNvNvNvNtNtCs47RmZobMba4_11stellar_xdr4curr9generateds4e_1__30RECURSIVE_COUNT_BumpSequenceOp6___initB9_
FN:83,_RNvNvNvNtNtCs47RmZobMba4_11stellar_xdr4curr9generateds3V_1__38RECURSIVE_COUNT_AuthenticatedMessageV07___getitB9_
FN:83,_RNvNvNvNtNtCs47RmZobMba4_11stellar_xdr4curr9generateds4b_1__29RECURSIVE_COUNT_ChangeTrustOp7___getitB9_
FN:80,_RNvNvNvNtNtCs47RmZobMba4_11stellar_xdr4curr9generateds2a_1__49RECURSIVE_COUNT_LiquidityPoolEntryConstantProduct6___initB9_
FN:80,_RNvNvNvNtNtCs47RmZobMba4_11stellar_xdr4curr9generateds6s_1__30RECURSIVE_COUNT_ExtensionPoint6___initB9_
FN:83,_RNvNvNvNtNtCs47RmZobMba4_11stellar_xdr4curr9generateds5U_1__49RECURSIVE_COUNT_EndSponsoringFutureReservesResult7___getitB9_
FN:80,_RNvNvNvNtNtCs47RmZobMba4_11stellar_xdr4curr9generateds6y_1__25RECURSIVE_COUNT_SignerKey6___initB9_
FN:80,_RNvNvNvNtNtCs47RmZobMba4_11stellar_xdr4curr9generatedsr_1__24RECURSIVE_COUNT_ScMetaV06___initB9_
FN:83,_RNvNvNvNtNtCs47RmZobMba4_11stellar_xdr4curr9generateds3X_1__39RECURSIVE_COUNT_LiquidityPoolParameters7___getitB9_
FN:80,_RNvNvNvNtNtCs47RmZobMba4_11stellar_xdr4curr9generateds45_1__39RECURSIVE_COUNT_PathPaymentStrictSendOp6___initB9_
FN:83,_RNvNvNvNtNtCs47RmZobMba4_11stellar_xdr4curr9generateds5K_1__32RECURSIVE_COUNT_ManageDataResult7___getitB9_
FN:80,_RNvNvNvNtNtCs47RmZobMba4_11stellar_xdr4curr9generateds4I_1__25RECURSIVE_COUNT_Operation6___initB9_
FN:80,_RNvNvNvNtNtCs47RmZobMba4_11stellar_xdr4curr9generateds5A_1__37RECURSIVE_COUNT_ChangeTrustResultCode6___initB9_
FN:80,_RNvNvNvNtNtCs47RmZobMba4_11stellar_xdr4curr9generateds65_1__47RECURSIVE_COUNT_LiquidityPoolWithdrawResultCode6___initB9_
FN:83,_RNvNvNvNtNtCs47RmZobMba4_11stellar_xdr4curr9generateds3i_1__31RECURSIVE_COUNT_DiagnosticEvent7___getitB9_
FN:80,_RNvNvNvNtNtCs47RmZobMba4_11stellar_xdr4curr9generateds1T_1__29RECURSIVE_COUNT_OfferEntryExt6___initB9_
FN:80,_RNvNvNvNtNtCs47RmZobMba4_11stellar_xdr4curr9generateds3t_1__22RECURSIVE_COUNT_SError6___initB9_
FN:80,_RNvNvNvNtNtCs47RmZobMba4_11stellar_xdr4curr9generateds3T_1__27RECURSIVE_COUNT_FloodDemand6___initB9_
FN:80,_RNvNvNvNtNtCs47RmZobMba4_11stellar_xdr4curr9generateds3u_1__24RECURSIVE_COUNT_SendMore6___initB9_
FN:83,_RNvNvNvNtNtCs47RmZobMba4_11stellar_xdr4curr9generatedsd_1__46RECURSIVE_COUNT_ConfigSettingContractComputeV07___getitB9_
FN:83,_RNvNvNvNtNtCs47RmZobMba4_11stellar_xdr4curr9generateds3M_1__28RECURSIVE_COUNT_PeerStatList7___getitB9_
FN:83,_RNvNvNvNtNtCs47RmZobMba4_11stellar_xdr4curr9generatedsy_1__29RECURSIVE_COUNT_ScSpecTypeMap7___getitB9_
FN:80,_RNvNvNvNtNtCs47RmZobMba4_11stellar_xdr4curr9generateds1e_1__41RECURSIVE_COUNT_StoredDebugTransactionSet6___initB9_
FN:80,_RNvNvNvNtNtCs47RmZobMba4_11stellar_xdr4curr9generateds4H_1__29RECURSIVE_COUNT_OperationBody6___initB9_
FN:80,_RNvNvNvNtNtCs47RmZobMba4_11stellar_xdr4curr9generateds5h_1__35RECURSIVE_COUNT_CreateAccountResult6___initB9_
FN:80,_RNvNvNvNtNtCs47RmZobMba4_11stellar_xdr4curr9generateds3A_1__29RECURSIVE_COUNT_PeerAddressIp6___initB9_
FN:80,_RNvNvNvNtNtCs47RmZobMba4_11stellar_xdr4curr9generateds19_1__26RECURSIVE_COUNT_ScNonceKey6___initB9_
FN:80,_RNvNvNvNtNtCs47RmZobMba4_11stellar_xdr4curr9generateds4N_1__30RECURSIVE_COUNT_HashIdPreimage6___initB9_
FN:83,_RNvNvNvNtNtCs47RmZobMba4_11stellar_xdr4curr9generatedsw_1__32RECURSIVE_COUNT_ScSpecTypeResult7___getitB9_
FN:83,_RNvNvNvNtNtCs47RmZobMba4_11stellar_xdr4curr9generateds1X_1__34RECURSIVE_COUNT_ClaimPredicateType7___getitB9_
FN:83,_RNvNvNvNtNtCs47RmZobMba4_11stellar_xdr4curr9generatedsQ_1__31RECURSIVE_COUNT_ScSpecEntryKind7___getitB9_
FN:83,_RNvNvNvNtNtCs47RmZobMba4_11stellar_xdr4curr9generateds5E_1__38RECURSIVE_COUNT_AccountMergeResultCode7___getitB9_
FN:83,_RNvNvNvNtNtCs47RmZobMba4_11stellar_xdr4curr9generateds2C_1__28RECURSIVE_COUNT_StellarValue7___getitB9_
FN:80,_RNvNvNvNtNtCs47RmZobMba4_11stellar_xdr4curr9generateds5K_1__32RECURSIVE_COUNT_ManageDataResult6___initB9_
FN:80,_RNvNvNvNtNtCs47RmZobMba4_11stellar_xdr4curr9generateds1D_1__42RECURSIVE_COUNT_AccountEntryExtensionV2Ext6___initB9_
FN:83,_RNvNvNvNtNtCs47RmZobMba4_11stellar_xdr4curr9generateds5x_1__36RECURSIVE_COUNT_ManageBuyOfferResult7___getitB9_
FN:83,_RNvNvNvNtNtCs47RmZobMba4_11stellar_xdr4curr9generateds4a_1__32RECURSIVE_COUNT_ChangeTrustAsset7___getitB9_
FN:80,_RNvNvNvNtNtCs47RmZobMba4_11stellar_xdr4curr9generateds5F_1__34RECURSIVE_COUNT_AccountMergeResult6___initB9_
FN:83,_RNvNvNvNtNtCs47RmZobMba4_11stellar_xdr4curr9generateds1x_1__32RECURSIVE_COUNT_ThresholdIndexes7___getitB9_
FN:83,_RNvNvNvNtNtCs47RmZobMba4_11stellar_xdr4curr9generateds5a_1__43RECURSIVE_COUNT_TransactionSignaturePayload7___getitB9_
FN:80,_RNvNvNvNtNtCs47RmZobMba4_11stellar_xdr4curr9generateds7_1__39RECURSIVE_COUNT_ScpStatementExternalize6___initB9_
FN:80,_RNvNvNvNtNtCs47RmZobMba4_11stellar_xdr4curr9generateds3U_1__30RECURSIVE_COUNT_StellarMessage6___initB9_
FN:80,_RNvNvNvNtNtCs47RmZobMba4_11stellar_xdr4curr9generateds6w_1__25RECURSIVE_COUNT_PublicKey6___initB9_
FN:80,_RNvNvNvNtNtCs47RmZobMba4_11stellar_xdr4curr9generateds33_1__43RECURSIVE_COUNT_LedgerHeaderHistoryEntryExt6___initB9_
FN:80,_RNvNvNvNtNtCs47RmZobMba4_11stellar_xdr4curr9generateds2D_1__33RECURSIVE_COUNT_LedgerHeaderFlags6___initB9_
FN:83,_RNvNvNvNtNtCs47RmZobMba4_11stellar_xdr4curr9generatedsu_1__26RECURSIVE_COUNT_ScSpecType7___getitB9_
FN:83,_RNvNvNvNtNtCs47RmZobMba4_11stellar_xdr4curr9generateds3h_1__29RECURSIVE_COUNT_ContractEvent7___getitB9_
FN:83,_RNvNvNvNtNtCs47RmZobMba4_11stellar_xdr4curr9generatedsG_1__41RECURSIVE_COUNT_ScSpecUdtUnionCaseTupleV07___getitB9_
FN:83,_RNvNvNvNtNtCs47RmZobMba4_11stellar_xdr4curr9generateds4v_1__34RECURSIVE_COUNT_InvokeContractArgs7___getitB9_
FN:83,_RNvNvNvNtNtCs47RmZobMba4_11stellar_xdr4curr9generateds54_1__41RECURSIVE_COUNT_FeeBumpTransactionInnerTx7___getitB9_
FN:83,_RNvNvNvNtNtCs47RmZobMba4_11stellar_xdr4curr9generateds2t_1__37RECURSIVE_COUNT_LedgerKeyContractCode7___getitB9_
FN:80,_RNvNvNvNtNtCs47RmZobMba4_11stellar_xdr4curr9generateds1Z_1__28RECURSIVE_COUNT_ClaimantType6___initB9_
FN:83,_RNvNvNvNtNtCs47RmZobMba4_11stellar_xdr4curr9generateds1v_1__21RECURSIVE_COUNT_Price7___getitB9_
FN:83,_RNvNvNvNtNtCs47RmZobMba4_11stellar_xdr4curr9generateds2c_1__34RECURSIVE_COUNT_LiquidityPoolEntry7___getitB9_
FN:83,_RNvNvNvNtNtCs47RmZobMba4_11stellar_xdr4curr9generateds3n_1__37RECURSIVE_COUNT_TransactionResultMeta7___getitB9_
FN:80,_RNvNvNvNtNtCs47RmZobMba4_11stellar_xdr4curr9generateds3o_1__32RECURSIVE_COUNT_UpgradeEntryMeta6___initB9_
FN:83,_RNvNvNvNtNtCs47RmZobMba4_11stellar_xdr4curr9generateds3z_1__26RECURSIVE_COUNT_IpAddrType7___getitB9_
FN:83,_RNvNvNvNtNtCs47RmZobMba4_11stellar_xdr4curr9generateds4S_1__31RECURSIVE_COUNT_PreconditionsV27___getitB9_
FN:83,_RNvNvNvNtNtCs47RmZobMba4_11stellar_xdr4curr9generatedsc_1__53RECURSIVE_COUNT_ConfigSettingContractExecutionLanesV07___getitB9_
FN:80,_RNvNvNvNtNtCs47RmZobMba4_11stellar_xdr4curr9generateds5z_1__32RECURSIVE_COUNT_SetOptionsResult6___initB9_
FN:80,_RNvNvNvNtNtCs47RmZobMba4_11stellar_xdr4curr9generatedsw_1__32RECURSIVE_COUNT_ScSpecTypeResult6___initB9_
FN:80,_RNvNvNvNtNtCs47RmZobMba4_11stellar_xdr4curr9generateds5O_1__44RECURSIVE_COUNT_CreateClaimableBalanceResult6___initB9_
FN:83,_RNvNvNvNtNtCs47RmZobMba4_11stellar_xdr4curr9generateds4d_1__28RECURSIVE_COUNT_ManageDataOp7___getitB9_
FN:80,_RNvNvNvNtNtCs47RmZobMba4_11stellar_xdr4curr9generateds41_1__29RECURSIVE_COUNT_OperationType6___initB9_
FN:80,_RNvNvNvNtNtCs47RmZobMba4_11stellar_xdr4curr9generateds6E_1__32RECURSIVE_COUNT_Curve25519Public6___initB9_
FN:80,_RNvNvNvNtNtCs47RmZobMba4_11stellar_xdr4curr9generateds5e_1__34RECURSIVE_COUNT_ClaimLiquidityAtom6___initB9_
FN:83,_RNvNvNvNtNtCs47RmZobMba4_11stellar_xdr4curr9generateds4q_1__32RECURSIVE_COUNT_HostFunctionType7___getitB9_
FN:80,_RNvNvNvNtNtCs47RmZobMba4_11stellar_xdr4curr9generateds5Q_1__43RECURSIVE_COUNT_ClaimClaimableBalanceResult6___initB9_
FN:80,_RNvNvNvNtNtCs47RmZobMba4_11stellar_xdr4curr9generateds5p_1__50RECURSIVE_COUNT_PathPaymentStrictSendResultSuccess6___initB9_
FN:83,_RNvNvNvNtNtCs47RmZobMba4_11stellar_xdr4curr9generateds1C_1__39RECURSIVE_COUNT_AccountEntryExtensionV37___getitB9_
FN:80,_RNvNvNvNtNtCs47RmZobMba4_11stellar_xdr4curr9generateds4w_1__28RECURSIVE_COUNT_HostFunction6___initB9_
FN:83,_RNvNvNvNtNtCs47RmZobMba4_11stellar_xdr4curr9generateds4I_1__25RECURSIVE_COUNT_Operation7___getitB9_
FN:80,_RNvNvNvNtNtCs47RmZobMba4_11stellar_xdr4curr9generateds4E_1__36RECURSIVE_COUNT_InvokeHostFunctionOp6___initB9_
FN:83,_RNvNvNvNtNtCs47RmZobMba4_11stellar_xdr4curr9generateds5i_1__33RECURSIVE_COUNT_PaymentResultCode7___getitB9_
FN:80,_RNvNvNvNtNtCs47RmZobMba4_11stellar_xdr4curr9generateds2j_1__31RECURSIVE_COUNT_LedgerEntryData6___initB9_
FN:83,_RNvNvNvNtNtCs47RmZobMba4_11stellar_xdr4curr9generateds1T_1__29RECURSIVE_COUNT_OfferEntryExt7___getitB9_
FN:83,_RNvNvNvNtNtCs47RmZobMba4_11stellar_xdr4curr9generateds3k_1__33RECURSIVE_COUNT_TransactionMetaV37___getitB9_
FN:80,_RNvNvNvNtNtCs47RmZobMba4_11stellar_xdr4curr9generatedsJ_1__32RECURSIVE_COUNT_ScSpecUdtUnionV06___initB9_
FN:80,_RNvNvNvNtNtCs47RmZobMba4_11stellar_xdr4curr9generateds4F_1__36RECURSIVE_COUNT_ExtendFootprintTtlOp6___initB9_
FN:83,_RNvNvNvNtNtCs47RmZobMba4_11stellar_xdr4curr9generateds35_1__33RECURSIVE_COUNT_LedgerScpMessages7___getitB9_
FN:83,_RNvNvNvNtNtCs47RmZobMba4_11stellar_xdr4curr9generateds3P_1__34RECURSIVE_COUNT_SurveyResponseBody7___getitB9_
FN:83,_RNvNvNvNtNtCs47RmZobMba4_11stellar_xdr4curr9generateds4C_1__34RECURSIVE_COUNT_SorobanCredentials7___getitB9_
FN:83,_RNvNvNvNtNtCs47RmZobMba4_11stellar_xdr4curr9generateds3Y_1__36RECURSIVE_COUNT_MuxedAccountMed255197___getitB9_
FN:80,_RNvNvNvNtNtCs47RmZobMba4_11stellar_xdr4curr9generatedsO_1__37RECURSIVE_COUNT_ScSpecFunctionInputV06___initB9_
FN:83,_RNvNvNvNtNtCs47RmZobMba4_11stellar_xdr4curr9generateds30_1__39RECURSIVE_COUNT_TransactionHistoryEntry7___getitB9_
FN:83,_RNvNvNvNtNtCs47RmZobMba4_11stellar_xdr4curr9generateds5f_1__25RECURSIVE_COUNT_ClaimAtom7___getitB9_
FN:80,_RNvNvNvNtNtCs47RmZobMba4_11stellar_xdr4curr9generateds2C_1__28RECURSIVE_COUNT_StellarValue6___initB9_
FN:83,_RNvNvNvNtNtCs47RmZobMba4_11stellar_xdr4curr9generateds3O_1__38RECURSIVE_COUNT_TopologyResponseBodyV17___getitB9_
FN:80,_RNvNvNvNtNtCs47RmZobMba4_11stellar_xdr4curr9generateds3q_1__33RECURSIVE_COUNT_LedgerCloseMetaV16___initB9_
FN:83,_RNvNvNvNtNtCs47RmZobMba4_11stellar_xdr4curr9generatedso_1__34RECURSIVE_COUNT_ConfigSettingEntry7___getitB9_
FN:80,_RNvNvNvNtNtCs47RmZobMba4_11stellar_xdr4curr9generatedsP_1__32RECURSIVE_COUNT_ScSpecFunctionV06___initB9_
FN:80,_RNvNvNvNtNtCs47RmZobMba4_11stellar_xdr4curr9generateds6c_1__38RECURSIVE_COUNT_RestoreFootprintResult6___initB9_
FN:83,_RNvNvNvNtNtCs47RmZobMba4_11stellar_xdr4curr9generateds4h_1__47RECURSIVE_COUNT_BeginSponsoringFutureReservesOp7___getitB9_
FN:80,_RNvNvNvNtNtCs47RmZobMba4_11stellar_xdr4curr9generateds4L_1__40RECURSIVE_COUNT_HashIdPreimageContractId6___initB9_
FN:83,_RNvNvNvNtNtCs47RmZobMba4_11stellar_xdr4curr9generateds14_1__21RECURSIVE_COUNT_ScVec7___getitB9_
FN:80,_RNvNvNvNtNtCs47RmZobMba4_11stellar_xdr4curr9generateds23_1__34RECURSIVE_COUNT_ClaimableBalanceId6___initB9_
FN:83,_RNvNvNvNtNtCs47RmZobMba4_11stellar_xdr4curr9generateds1e_1__41RECURSIVE_COUNT_StoredDebugTransactionSet7___getitB9_
FN:80,_RNvNvNvNtNtCs47RmZobMba4_11stellar_xdr4curr9generateds4M_1__50RECURSIVE_COUNT_HashIdPreimageSorobanAuthorization6___initB9_
FN:80,_RNvNvNvNtNtCs47RmZobMba4_11stellar_xdr4curr9generateds40_1__34RECURSIVE_COUNT_DecoratedSignature6___initB9_
FN:83,_RNvNvNvNtNtCs47RmZobMba4_11stellar_xdr4curr9generatedsm_1__34RECURSIVE_COUNT_ContractCostParams7___getitB9_
FN:80,_RNvNvNvNtNtCs47RmZobMba4_11stellar_xdr4curr9generateds4f_1__40RECURSIVE_COUNT_CreateClaimableBalanceOp6___initB9_
FN:83,_RNvNvNvNtNtCs47RmZobMba4_11stellar_xdr4curr9generateds5n_1__46RECURSIVE_COUNT_PathPaymentStrictReceiveResult7___getitB9_
FN:80,_RNvNvNvNtNtCs47RmZobMba4_11stellar_xdr4curr9generateds63_1__46RECURSIVE_COUNT_LiquidityPoolDepositResultCode6___initB9_
FN:80,_RNvNvNvNtNtCs47RmZobMba4_11stellar_xdr4curr9generateds1a_1__34RECURSIVE_COUNT_ScContractInstance6___initB9_
FN:80,_RNvNvNvNtNtCs47RmZobMba4_11stellar_xdr4curr9generatedsA_1__32RECURSIVE_COUNT_ScSpecTypeBytesN6___initB9_
FN:83,_RNvNvNvNtNtCs47RmZobMba4_11stellar_xdr4curr9generateds2l_1__27RECURSIVE_COUNT_LedgerEntry7___getitB9_
FN:83,_RNvNvNvNtNtCs47RmZobMba4_11stellar_xdr4curr9generateds5T_1__53RECURSIVE_COUNT_EndSponsoringFutureReservesResultCode7___getitB9_
FN:80,_RNvNvNvNtNtCs47RmZobMba4_11stellar_xdr4curr9generateds6l_1__39RECURSIVE_COUNT_TransactionResultResult6___initB9_
FN:83,_RNvNvNvNtNtCs47RmZobMba4_11stellar_xdr4curr9generatedsq_1__30RECURSIVE_COUNT_ScEnvMetaEntry7___getitB9_
FN:80,_RNvNvNvNtNtCs47RmZobMba4_11stellar_xdr4curr9generateds6D_1__32RECURSIVE_COUNT_Curve25519Secret6___initB9_
FN:83,_RNvNvNvNtNtCs47RmZobMba4_11stellar_xdr4curr9generateds2Q_1__34RECURSIVE_COUNT_TxSetComponentType7___getitB9_
FN:83,_RNvNvNvNtNtCs47RmZobMba4_11stellar_xdr4curr9generatedsl_1__32RECURSIVE_COUNT_EvictionIterator7___getitB9_
FN:80,_RNvNvNvNtNtCs47RmZobMba4_11stellar_xdr4curr9generateds6q_1__25RECURSIVE_COUNT_TimePoint6___initB9_
FN:80,_RNvNvNvNtNtCs47RmZobMba4_11stellar_xdr4curr9generateds3O_1__38RECURSIVE_COUNT_TopologyResponseBodyV16___initB9_
FN:80,_RNvNvNvNtNtCs47RmZobMba4_11stellar_xdr4curr9generateds5s_1__33RECURSIVE_COUNT_ManageOfferEffect6___initB9_
FN:80,_RNvNvNvNtNtCs47RmZobMba4_11stellar_xdr4curr9generateds1X_1__34RECURSIVE_COUNT_ClaimPredicateType6___initB9_
FN:83,_RNvNvNvNtNtCs47RmZobMba4_11stellar_xdr4curr9generateds4H_1__29RECURSIVE_COUNT_OperationBody7___getitB9_
FN:83,_RNvNvNvNtNtCs47RmZobMba4_11stellar_xdr4curr9generateds25_1__51RECURSIVE_COUNT_ClaimableBalanceEntryExtensionV1Ext7___getitB9_
FN:80,_RNvNvNvNtNtCs47RmZobMba4_11stellar_xdr4curr9generateds5X_1__34RECURSIVE_COUNT_ClawbackResultCode6___initB9_
FN:83,_RNvNvNvNtNtCs47RmZobMba4_11stellar_xdr4curr9generateds3s_1__25RECURSIVE_COUNT_ErrorCode7___getitB9_
FN:83,_RNvNvNvNtNtCs47RmZobMba4_11stellar_xdr4curr9generateds1S_1__31RECURSIVE_COUNT_OfferEntryFlags7___getitB9_
FN:80,_RNvNvNvNtNtCs47RmZobMba4_11stellar_xdr4curr9generateds5g_1__39RECURSIVE_COUNT_CreateAccountResultCode6___initB9_
FN:83,_RNvNvNvNtNtCs47RmZobMba4_11stellar_xdr4curr9generatedsV_1__23RECURSIVE_COUNT_ScError7___getitB9_
FN:83,_RNvNvNvNtNtCs47RmZobMba4_11stellar_xdr4curr9generateds4N_1__30RECURSIVE_COUNT_HashIdPreimage7___getitB9_
FN:83,_RNvNvNvNtNtCs47RmZobMba4_11stellar_xdr4curr9generateds12_1__29RECURSIVE_COUNT_ScAddressType7___getitB9_
FN:80,_RNvNvNvNtNtCs47RmZobMba4_11stellar_xdr4curr9generateds2M_1__31RECURSIVE_COUNT_BucketEntryType6___initB9_
FN:80,_RNvNvNvNtNtCs47RmZobMba4_11stellar_xdr4curr9generateds1p_1__27RECURSIVE_COUNT_AssetCode126___initB9_
FN:80,_RNvNvNvNtNtCs47RmZobMba4_11stellar_xdr4curr9generateds4q_1__32RECURSIVE_COUNT_HostFunctionType6___initB9_
FN:83,_RNvNvNvNtNtCs47RmZobMba4_11stellar_xdr4curr9generateds5z_1__32RECURSIVE_COUNT_SetOptionsResult7___getitB9_
FN:80,_RNvNvNvNtNtCs47RmZobMba4_11stellar_xdr4curr9generateds2w_1__25RECURSIVE_COUNT_LedgerKey6___initB9_
FN:80,_RNvNvNvNtNtCs47RmZobMba4_11stellar_xdr4curr9generateds1q_1__25RECURSIVE_COUNT_AssetType6___initB9_
FN:80,_RNvNvNvNtNtCs47RmZobMba4_11stellar_xdr4curr9generateds17_1__24RECURSIVE_COUNT_ScString6___initB9_
FN:80,_RNvNvNvNtNtCs47RmZobMba4_11stellar_xdr4curr9generatedsL_1__31RECURSIVE_COUNT_ScSpecUdtEnumV06___initB9_
FN:80,_RNvNvNvNtNtCs47RmZobMba4_11stellar_xdr4curr9generateds5v_1__37RECURSIVE_COUNT_ManageSellOfferResult6___initB9_
FN:83,_RNvNvNvNtNtCs47RmZobMba4_11stellar_xdr4curr9generateds1h_1__33RECURSIVE_COUNT_PersistedScpState7___getitB9_
FN:80,_RNvNvNvNtNtCs47RmZobMba4_11stellar_xdr4curr9generatedsq_1__30RECURSIVE_COUNT_ScEnvMetaEntry6___initB9_
FN:83,_RNvNvNvNtNtCs47RmZobMba4_11stellar_xdr4curr9generateds4Z_1__29RECURSIVE_COUNT_TransactionV07___getitB9_
FN:83,_RNvNvNvNtNtCs47RmZobMba4_11stellar_xdr4curr9generateds41_1__29RECURSIVE_COUNT_OperationType7___getitB9_
FN:83,_RNvNvNvNtNtCs47RmZobMba4_11stellar_xdr4curr9generateds6z_1__25RECURSIVE_COUNT_Signature7___getitB9_
FN:83,_RNvNvNvNtNtCs47RmZobMba4_11stellar_xdr4curr9generateds1w_1__27RECURSIVE_COUNT_Liabilities7___getitB9_
FN:80,_RNvNvNvNtNtCs47RmZobMba4_11stellar_xdr4curr9generateds3S_1__30RECURSIVE_COUNT_TxDemandVector6___initB9_
FN:80,_RNvNvNvNtNtCs47RmZobMba4_11stellar_xdr4curr9generateds2q_1__41RECURSIVE_COUNT_LedgerKeyClaimableBalance6___initB9_
FN:80,_RNvNvNvNtNtCs47RmZobMba4_11stellar_xdr4curr9generateds4x_1__45RECURSIVE_COUNT_SorobanAuthorizedFunctionType6___initB9_
FN:80,_RNvNvNvNtNtCs47RmZobMba4_11stellar_xdr4curr9generateds5n_1__46RECURSIVE_COUNT_PathPaymentStrictReceiveResult6___initB9_
FN:83,_RNvNvNvNtNtCs47RmZobMba4_11stellar_xdr4curr9generateds1W_1__25RECURSIVE_COUNT_DataEntry7___getitB9_
FN:83,_RNvNvNvNtNtCs47RmZobMba4_11stellar_xdr4curr9generatedsD_1__38RECURSIVE_COUNT_ScSpecUdtStructFieldV07___getitB9_
FN:80,_RNvNvNvNtNtCs47RmZobMba4_11stellar_xdr4curr9generateds1d_1__36RECURSIVE_COUNT_StoredTransactionSet6___initB9_
FN:80,_RNvNvNvNtNtCs47RmZobMba4_11stellar_xdr4curr9generateds2U_1__30RECURSIVE_COUNT_TransactionSet6___initB9_
FN:80,_RNvNvNvNtNtCs47RmZobMba4_11stellar_xdr4curr9generateds3Y_1__36RECURSIVE_COUNT_MuxedAccountMed255196___initB9_
FN:80,_RNvNvNvNtNtCs47RmZobMba4_11stellar_xdr4curr9generateds47_1__32RECURSIVE_COUNT_ManageBuyOfferOp6___initB9_
FN:80,_RNvNvNvNtNtCs47RmZobMba4_11stellar_xdr4curr9generateds44_1__42RECURSIVE_COUNT_PathPaymentStrictReceiveOp6___initB9_
FNDA:0,_RNvNvNvCscYguP0v5avW_4expr1__24RECURSIVE_COUNT_TestCase6___initB5_
FNDA:0,_RNvNvNvCscYguP0v5avW_4expr1__24RECURSIVE_COUNT_TestCase7___getitB5_
FNDA:216,_RNvNvNvNtCs7fXtI9ZzZ9j_18soroban_synth_wasm4exprsg_1__29RECURSIVE_COUNT_ExprMapObject6___initB7_
FNDA:186,_RNvNvNvNtCs7fXtI9ZzZ9j_18soroban_synth_wasm4exprsk_1__27RECURSIVE_COUNT_ExprI256Val7___getitB7_
FNDA:0,_RNvNvNvNtCs7fXtI9ZzZ9j_18soroban_synth_wasm4exprsn_1__30RECURSIVE_COUNT_ExprI128Object6___initB7_
FNDA:50,_RNvNvNvNtCs7fXtI9ZzZ9j_18soroban_synth_wasm4exprs6_1__27RECURSIVE_COUNT_ExprU256Val6___initB7_
FNDA:0,_RNvNvNvNtCs7fXtI9ZzZ9j_18soroban_synth_wasm4exprsi_1__29RECURSIVE_COUNT_ExprI64Object6___initB7_
FNDA:40,_RNvNvNvNtCs7fXtI9ZzZ9j_18soroban_synth_wasm4exprs0_1__24RECURSIVE_COUNT_ExprVoid7___getitB7_
FNDA:238,_RNvNvNvNtCs7fXtI9ZzZ9j_18soroban_synth_wasm4exprs1_1__29RECURSIVE_COUNT_ExprVecObject7___getitB7_
FNDA:0,_RNvNvNvNtCs7fXtI9ZzZ9j_18soroban_synth_wasm4exprs8_1__27RECURSIVE_COUNT_ExprU128Val6___initB7_
FNDA:0,_RNvNvNvNtCs7fXtI9ZzZ9j_18soroban_synth_wasm4exprsn_1__30RECURSIVE_COUNT_ExprI128Object7___getitB7_
FNDA:0,_RNvNvNvNtCs7fXtI9ZzZ9j_18soroban_synth_wasm4exprsa_1__32RECURSIVE_COUNT_ExprTimepointVal7___getitB7_
FNDA:73,_RNvNvNvNtCs7fXtI9ZzZ9j_18soroban_synth_wasm4exprsc_1__32RECURSIVE_COUNT_ExprSymbolObject6___initB7_
FNDA:0,_RNvNvNvNtCs7fXtI9ZzZ9j_18soroban_synth_wasm4exprsm_1__27RECURSIVE_COUNT_ExprI128Val7___getitB7_
FNDA:106,_RNvNvNvNtCs7fXtI9ZzZ9j_18soroban_synth_wasm4exprst_1__33RECURSIVE_COUNT_ExprAddressObject7___getitB7_
FNDA:2022,_RNvNvNvNtCs7fXtI9ZzZ9j_18soroban_synth_wasm4exprs5_1__26RECURSIVE_COUNT_ExprU32Val7___getitB7_
FNDA:0,_RNvNvNvNtCs7fXtI9ZzZ9j_18soroban_synth_wasm4exprso_1__25RECURSIVE_COUNT_ExprError6___initB7_
FNDA:12,_RNvNvNvNtCs7fXtI9ZzZ9j_18soroban_synth_wasm4exprs3_1__26RECURSIVE_COUNT_ExprU64Val7___getitB7_
FNDA:0,_RNvNvNvNtCs7fXtI9ZzZ9j_18soroban_synth_wasm4expr1__23RECURSIVE_COUNT_Expru647___getitB7_
FNDA:0,_RNvNvNvNtCs7fXtI9ZzZ9j_18soroban_synth_wasm4exprsh_1__26RECURSIVE_COUNT_ExprI64Val6___initB7_
FNDA:0,_RNvNvNvNtCs7fXtI9ZzZ9j_18soroban_synth_wasm4exprs7_1__30RECURSIVE_COUNT_ExprU256Object6___initB7_
FNDA:0,_RNvNvNvNtCs7fXtI9ZzZ9j_18soroban_synth_wasm4exprsf_1__31RECURSIVE_COUNT_ExprStorageType6___initB7_
FNDA:0,_RNvNvNvNtCs7fXtI9ZzZ9j_18soroban_synth_wasm4exprsj_1__26RECURSIVE_COUNT_ExprI32Val6___initB7_
FNDA:150,_RNvNvNvNtCs7fXtI9ZzZ9j_18soroban_synth_wasm4exprsc_1__32RECURSIVE_COUNT_ExprSymbolObject7___getitB7_
FNDA:0,_RNvNvNvNtCs7fXtI9ZzZ9j_18soroban_synth_wasm4exprs_1__23RECURSIVE_COUNT_Expri647___getitB7_
FNDA:0,_RNvNvNvNtCs7fXtI9ZzZ9j_18soroban_synth_wasm4exprs4_1__29RECURSIVE_COUNT_ExprU64Object6___initB7_
FNDA:50,_RNvNvNvNtCs7fXtI9ZzZ9j_18soroban_synth_wasm4exprsk_1__27RECURSIVE_COUNT_ExprI256Val6___initB7_
FNDA:0,_RNvNvNvNtCs7fXtI9ZzZ9j_18soroban_synth_wasm4exprsb_1__35RECURSIVE_COUNT_ExprTimepointObject7___getitB7_
FNDA:14,_RNvNvNvNtCs7fXtI9ZzZ9j_18soroban_synth_wasm4exprse_1__32RECURSIVE_COUNT_ExprStringObject6___initB7_
FNDA:0,_RNvNvNvNtCs7fXtI9ZzZ9j_18soroban_synth_wasm4exprsq_1__34RECURSIVE_COUNT_ExprDurationObject7___getitB7_
FNDA:0,_RNvNvNvNtCs7fXtI9ZzZ9j_18soroban_synth_wasm4exprsp_1__31RECURSIVE_COUNT_ExprDurationVal6___initB7_
FNDA:0,_RNvNvNvNtCs7fXtI9ZzZ9j_18soroban_synth_wasm4exprs4_1__29RECURSIVE_COUNT_ExprU64Object7___getitB7_
FNDA:53,_RNvNvNvNtCs7fXtI9ZzZ9j_18soroban_synth_wasm4exprst_1__33RECURSIVE_COUNT_ExprAddressObject6___initB7_
FNDA:0,_RNvNvNvNtCs7fXtI9ZzZ9j_18soroban_synth_wasm4expr1__23RECURSIVE_COUNT_Expru646___initB7_
FNDA:0,_RNvNvNvNtCs7fXtI9ZzZ9j_18soroban_synth_wasm4exprsl_1__30RECURSIVE_COUNT_ExprI256Object6___initB7_
FNDA:0,_RNvNvNvNtCs7fXtI9ZzZ9j_18soroban_synth_wasm4exprss_1__24RECURSIVE_COUNT_ExprBool6___initB7_
FNDA:0,_RNvNvNvNtCs7fXtI9ZzZ9j_18soroban_synth_wasm4exprs_1__23RECURSIVE_COUNT_Expri646___initB7_
FNDA:0,_RNvNvNvNtCs7fXtI9ZzZ9j_18soroban_synth_wasm4exprs9_1__30RECURSIVE_COUNT_ExprU128Object7___getitB7_
FNDA:0,_RNvNvNvNtCs7fXtI9ZzZ9j_18soroban_synth_wasm4exprsl_1__30RECURSIVE_COUNT_ExprI256Object7___getitB7_
FNDA:114,_RNvNvNvNtCs7fXtI9ZzZ9j_18soroban_synth_wasm4exprs1_1__29RECURSIVE_COUNT_ExprVecObject6___initB7_
FNDA:0,_RNvNvNvNtCs7fXtI9ZzZ9j_18soroban_synth_wasm4exprs2_1__23RECURSIVE_COUNT_ExprVal6___initB7_
FNDA:0,_RNvNvNvNtCs7fXtI9ZzZ9j_18soroban_synth_wasm4exprsm_1__27RECURSIVE_COUNT_ExprI128Val6___initB7_
FNDA:0,_RNvNvNvNtCs7fXtI9ZzZ9j_18soroban_synth_wasm4exprss_1__24RECURSIVE_COUNT_ExprBool7___getitB7_
FNDA:0,_RNvNvNvNtCs7fXtI9ZzZ9j_18soroban_synth_wasm4exprso_1__25RECURSIVE_COUNT_ExprError7___getitB7_
FNDA:244,_RNvNvNvNtCs7fXtI9ZzZ9j_18soroban_synth_wasm4exprsr_1__31RECURSIVE_COUNT_ExprBytesObject6___initB7_
FNDA:6,_RNvNvNvNtCs7fXtI9ZzZ9j_18soroban_synth_wasm4exprs3_1__26RECURSIVE_COUNT_ExprU64Val6___initB7_
FNDA:49,_RNvNvNvNtCs7fXtI9ZzZ9j_18soroban_synth_wasm4exprsd_1__26RECURSIVE_COUNT_ExprSymbol6___initB7_
FNDA:0,_RNvNvNvNtCs7fXtI9ZzZ9j_18soroban_synth_wasm4exprsf_1__31RECURSIVE_COUNT_ExprStorageType7___getitB7_
FNDA:0,_RNvNvNvNtCs7fXtI9ZzZ9j_18soroban_synth_wasm4exprsj_1__26RECURSIVE_COUNT_ExprI32Val7___getitB7_
FNDA:0,_RNvNvNvNtCs7fXtI9ZzZ9j_18soroban_synth_wasm4exprs2_1__23RECURSIVE_COUNT_ExprVal7___getitB7_
FNDA:214,_RNvNvNvNtCs7fXtI9ZzZ9j_18soroban_synth_wasm4exprs6_1__27RECURSIVE_COUNT_ExprU256Val7___getitB7_
FNDA:0,_RNvNvNvNtCs7fXtI9ZzZ9j_18soroban_synth_wasm4exprs9_1__30RECURSIVE_COUNT_ExprU128Object6___initB7_
FNDA:448,_RNvNvNvNtCs7fXtI9ZzZ9j_18soroban_synth_wasm4exprsg_1__29RECURSIVE_COUNT_ExprMapObject7___getitB7_
FNDA:956,_RNvNvNvNtCs7fXtI9ZzZ9j_18soroban_synth_wasm4exprsr_1__31RECURSIVE_COUNT_ExprBytesObject7___getitB7_
FNDA:0,_RNvNvNvNtCs7fXtI9ZzZ9j_18soroban_synth_wasm4exprsb_1__35RECURSIVE_COUNT_ExprTimepointObject6___initB7_
FNDA:0,_RNvNvNvNtCs7fXtI9ZzZ9j_18soroban_synth_wasm4exprsi_1__29RECURSIVE_COUNT_ExprI64Object7___getitB7_
FNDA:28,_RNvNvNvNtCs7fXtI9ZzZ9j_18soroban_synth_wasm4exprse_1__32RECURSIVE_COUNT_ExprStringObject7___getitB7_
FNDA:100,_RNvNvNvNtCs7fXtI9ZzZ9j_18soroban_synth_wasm4exprsd_1__26RECURSIVE_COUNT_ExprSymbol7___getitB7_
FNDA:0,_RNvNvNvNtCs7fXtI9ZzZ9j_18soroban_synth_wasm4exprsp_1__31RECURSIVE_COUNT_ExprDurationVal7___getitB7_
FNDA:0,_RNvNvNvNtCs7fXtI9ZzZ9j_18soroban_synth_wasm4exprs8_1__27RECURSIVE_COUNT_ExprU128Val7___getitB7_
FNDA:0,_RNvNvNvNtCs7fXtI9ZzZ9j_18soroban_synth_wasm4exprsa_1__32RECURSIVE_COUNT_ExprTimepointVal6___initB7_
FNDA:0,_RNvNvNvNtCs7fXtI9ZzZ9j_18soroban_synth_wasm4exprsh_1__26RECURSIVE_COUNT_ExprI64Val7___getitB7_
FNDA:0,_RNvNvNvNtCs7fXtI9ZzZ9j_18soroban_synth_wasm4exprsq_1__34RECURSIVE_COUNT_ExprDurationObject6___initB7_
FNDA:20,_RNvNvNvNtCs7fXtI9ZzZ9j_18soroban_synth_wasm4exprs0_1__24RECURSIVE_COUNT_ExprVoid6___initB7_
FNDA:422,_RNvNvNvNtCs7fXtI9ZzZ9j_18soroban_synth_wasm4exprs5_1__26RECURSIVE_COUNT_ExprU32Val6___initB7_
FNDA:0,_RNvNvNvNtCs7fXtI9ZzZ9j_18soroban_synth_wasm4exprs7_1__30RECURSIVE_COUNT_ExprU256Object7___getitB7_
FNDA:0,_RNvNvNvNtCs8j26R3SUG40_16soroban_env_host9testutils31call_with_suppressed_panic_hook24TEST_CONTRACT_CALL_COUNT6___initB7_
FNDA:0,_RNvNvNvNtCs8j26R3SUG40_16soroban_env_host9testutils31call_with_suppressed_panic_hook24TEST_CONTRACT_CALL_COUNT7___getitB7_
FNDA:0,_RNvNvNtCskSZgJjOHnrn_9backtrace4lock9LOCK_HELD7___getitB5_
FNDA:0,_RNvNvNtCskSZgJjOHnrn_9backtrace4lock9LOCK_HELD6___initB5_
FNDA:0,_RNvNvNvNtNtCs47RmZobMba4_11stellar_xdr4curr9generateds2j_1__31RECURSIVE_COUNT_LedgerEntryData7___getitB9_
FNDA:0,_RNvNvNvNtNtCs47RmZobMba4_11stellar_xdr4curr9generateds42_1__31RECURSIVE_COUNT_CreateAccountOp6___initB9_
FNDA:0,_RNvNvNvNtNtCs47RmZobMba4_11stellar_xdr4curr9generateds1V_1__28RECURSIVE_COUNT_DataEntryExt6___initB9_
FNDA:0,_RNvNvNvNtNtCs47RmZobMba4_11stellar_xdr4curr9generateds6q_1__25RECURSIVE_COUNT_TimePoint7___getitB9_
FNDA:0,_RNvNvNvNtNtCs47RmZobMba4_11stellar_xdr4curr9generateds66_1__43RECURSIVE_COUNT_LiquidityPoolWithdrawResult7___getitB9_
FNDA:0,_RNvNvNvNtNtCs47RmZobMba4_11stellar_xdr4curr9generateds5e_1__34RECURSIVE_COUNT_ClaimLiquidityAtom7___getitB9_
FNDA:0,_RNvNvNvNtNtCs47RmZobMba4_11stellar_xdr4curr9generateds6B_1__22RECURSIVE_COUNT_NodeId6___initB9_
FNDA:0,_RNvNvNvNtNtCs47RmZobMba4_11stellar_xdr4curr9generateds5j_1__29RECURSIVE_COUNT_PaymentResult7___getitB9_
FNDA:0,_RNvNvNvNtNtCs47RmZobMba4_11stellar_xdr4curr9generateds1W_1__25RECURSIVE_COUNT_DataEntry6___initB9_
FNDA:0,_RNvNvNvNtNtCs47RmZobMba4_11stellar_xdr4curr9generatedsz_1__31RECURSIVE_COUNT_ScSpecTypeTuple6___initB9_
FNDA:0,_RNvNvNvNtNtCs47RmZobMba4_11stellar_xdr4curr9generateds32_1__45RECURSIVE_COUNT_TransactionHistoryResultEntry7___getitB9_
FNDA:0,_RNvNvNvNtNtCs47RmZobMba4_11stellar_xdr4curr9generateds6e_1__33RECURSIVE_COUNT_OperationResultTr6___initB9_
FNDA:0,_RNvNvNvNtNtCs47RmZobMba4_11stellar_xdr4curr9generateds6f_1__31RECURSIVE_COUNT_OperationResult6___initB9_
FNDA:0,_RNvNvNvNtNtCs47RmZobMba4_11stellar_xdr4curr9generateds2T_1__32RECURSIVE_COUNT_TransactionPhase6___initB9_
FNDA:0,_RNvNvNvNtNtCs47RmZobMba4_11stellar_xdr4curr9generatedsp_1__29RECURSIVE_COUNT_ScEnvMetaKind6___initB9_
FNDA:0,_RNvNvNvNtNtCs47RmZobMba4_11stellar_xdr4curr9generateds6p_1__23RECURSIVE_COUNT_Uint2567___getitB9_
FNDA:0,_RNvNvNvNtNtCs47RmZobMba4_11stellar_xdr4curr9generateds4u_1__34RECURSIVE_COUNT_CreateContractArgs6___initB9_
FNDA:0,_RNvNvNvNtNtCs47RmZobMba4_11stellar_xdr4curr9generateds53_1__37RECURSIVE_COUNT_TransactionV1Envelope6___initB9_
FNDA:0,_RNvNvNvNtNtCs47RmZobMba4_11stellar_xdr4curr9generateds3r_1__31RECURSIVE_COUNT_LedgerCloseMeta7___getitB9_
FNDA:0,_RNvNvNvNtNtCs47RmZobMba4_11stellar_xdr4curr9generateds5d_1__30RECURSIVE_COUNT_ClaimOfferAtom7___getitB9_
FNDA:0,_RNvNvNvNtNtCs47RmZobMba4_11stellar_xdr4curr9generateds1z_1__22RECURSIVE_COUNT_Signer7___getitB9_
FNDA:0,_RNvNvNvNtNtCs47RmZobMba4_11stellar_xdr4curr9generateds6k_1__42RECURSIVE_COUNT_InnerTransactionResultPair6___initB9_
FNDA:0,_RNvNvNvNtNtCs47RmZobMba4_11stellar_xdr4curr9generateds1K_1__33RECURSIVE_COUNT_LiquidityPoolType6___initB9_
FNDA:0,_RNvNvNvNtNtCs47RmZobMba4_11stellar_xdr4curr9generateds6b_1__42RECURSIVE_COUNT_RestoreFootprintResultCode6___initB9_
FNDA:0,_RNvNvNvNtNtCs47RmZobMba4_11stellar_xdr4curr9generateds62_1__39RECURSIVE_COUNT_SetTrustLineFlagsResult7___getitB9_
FNDA:0,_RNvNvNvNtNtCs47RmZobMba4_11stellar_xdr4curr9generateds1R_1__30RECURSIVE_COUNT_TrustLineEntry7___getitB9_
FNDA:0,_RNvNvNvNtNtCs47RmZobMba4_11stellar_xdr4curr9generateds3l_1__49RECURSIVE_COUNT_InvokeHostFunctionSuccessPreImage7___getitB9_
FNDA:0,_RNvNvNvNtNtCs47RmZobMba4_11stellar_xdr4curr9generateds4j_1__41RECURSIVE_COUNT_RevokeSponsorshipOpSigner7___getitB9_
FNDA:0,_RNvNvNvNtNtCs47RmZobMba4_11stellar_xdr4curr9generateds4A_1__41RECURSIVE_COUNT_SorobanAddressCredentials7___getitB9_
FNDA:0,_RNvNvNvNtNtCs47RmZobMba4_11stellar_xdr4curr9generateds1Q_1__33RECURSIVE_COUNT_TrustLineEntryExt7___getitB9_
FNDA:0,_RNvNvNvNtNtCs47RmZobMba4_11stellar_xdr4curr9generateds4G_1__34RECURSIVE_COUNT_RestoreFootprintOp7___getitB9_
FNDA:0,_RNvNvNvNtNtCs47RmZobMba4_11stellar_xdr4curr9generateds3e_1__33RECURSIVE_COUNT_ContractEventType7___getitB9_
FNDA:0,_RNvNvNvNtNtCs47RmZobMba4_11stellar_xdr4curr9generatedsl_1__32RECURSIVE_COUNT_EvictionIterator6___initB9_
FNDA:0,_RNvNvNvNtNtCs47RmZobMba4_11stellar_xdr4curr9generatedsh_1__48RECURSIVE_COUNT_ConfigSettingContractBandwidthV06___initB9_
FNDA:0,_RNvNvNvNtNtCs47RmZobMba4_11stellar_xdr4curr9generateds_1__22RECURSIVE_COUNT_BytesM6___initB9_
FNDA:0,_RNvNvNvNtNtCs47RmZobMba4_11stellar_xdr4curr9generateds1n_1__22RECURSIVE_COUNT_PoolId7___getitB9_
FNDA:0,_RNvNvNvNtNtCs47RmZobMba4_11stellar_xdr4curr9generateds16_1__23RECURSIVE_COUNT_ScBytes6___initB9_
FNDA:0,_RNvNvNvNtNtCs47RmZobMba4_11stellar_xdr4curr9generateds6F_1__29RECURSIVE_COUNT_HmacSha256Key7___getitB9_
FNDA:0,_RNvNvNvNtNtCs47RmZobMba4_11stellar_xdr4curr9generateds3C_1__27RECURSIVE_COUNT_MessageType7___getitB9_
FNDA:0,_RNvNvNvNtNtCs47RmZobMba4_11stellar_xdr4curr9generateds46_1__33RECURSIVE_COUNT_ManageSellOfferOp6___initB9_
FNDA:0,_RNvNvNvNtNtCs47RmZobMba4_11stellar_xdr4curr9generateds1j_1__24RECURSIVE_COUNT_String327___getitB9_
FNDA:0,_RNvNvNvNtNtCs47RmZobMba4_11stellar_xdr4curr9generateds2p_1__29RECURSIVE_COUNT_LedgerKeyData7___getitB9_
FNDA:0,_RNvNvNvNtNtCs47RmZobMba4_11stellar_xdr4curr9generatedsN_1__36RECURSIVE_COUNT_ScSpecUdtErrorEnumV07___getitB9_
FNDA:0,_RNvNvNvNtNtCs47RmZobMba4_11stellar_xdr4curr9generateds5D_1__32RECURSIVE_COUNT_AllowTrustResult7___getitB9_
FNDA:0,_RNvNvNvNtNtCs47RmZobMba4_11stellar_xdr4curr9generateds5_1__35RECURSIVE_COUNT_ScpStatementPrepare6___initB9_
FNDA:0,_RNvNvNvNtNtCs47RmZobMba4_11stellar_xdr4curr9generateds2S_1__30RECURSIVE_COUNT_TxSetComponent7___getitB9_
FNDA:0,_RNvNvNvNtNtCs47RmZobMba4_11stellar_xdr4curr9generateds4r_1__38RECURSIVE_COUNT_ContractIdPreimageType6___initB9_
FNDA:0,_RNvNvNvNtNtCs47RmZobMba4_11stellar_xdr4curr9generateds27_1__40RECURSIVE_COUNT_ClaimableBalanceEntryExt7___getitB9_
FNDA:0,_RNvNvNvNtNtCs47RmZobMba4_11stellar_xdr4curr9generateds1i_1__26RECURSIVE_COUNT_Thresholds7___getitB9_
FNDA:0,_RNvNvNvNtNtCs47RmZobMba4_11stellar_xdr4curr9generateds5r_1__41RECURSIVE_COUNT_ManageSellOfferResultCode7___getitB9_
FNDA:0,_RNvNvNvNtNtCs47RmZobMba4_11stellar_xdr4curr9generateds5E_1__38RECURSIVE_COUNT_AccountMergeResultCode6___initB9_
FNDA:0,_RNvNvNvNtNtCs47RmZobMba4_11stellar_xdr4curr9generateds5m_1__53RECURSIVE_COUNT_PathPaymentStrictReceiveResultSuccess6___initB9_
FNDA:0,_RNvNvNvNtNtCs47RmZobMba4_11stellar_xdr4curr9generateds3M_1__28RECURSIVE_COUNT_PeerStatList6___initB9_
FNDA:0,_RNvNvNvNtNtCs47RmZobMba4_11stellar_xdr4curr9generatedsy_1__29RECURSIVE_COUNT_ScSpecTypeMap6___initB9_
FNDA:0,_RNvNvNvNtNtCs47RmZobMba4_11stellar_xdr4curr9generateds2R_1__51RECURSIVE_COUNT_TxSetComponentTxsMaybeDiscountedFee7___getitB9_
FNDA:0,_RNvNvNvNtNtCs47RmZobMba4_11stellar_xdr4curr9generateds6j_1__38RECURSIVE_COUNT_InnerTransactionResult6___initB9_
FNDA:0,_RNvNvNvNtNtCs47RmZobMba4_11stellar_xdr4curr9generatedsS_1__25RECURSIVE_COUNT_ScValType6___initB9_
FNDA:0,_RNvNvNvNtNtCs47RmZobMba4_11stellar_xdr4curr9generateds48_1__40RECURSIVE_COUNT_CreatePassiveSellOfferOp7___getitB9_
FNDA:0,_RNvNvNvNtNtCs47RmZobMba4_11stellar_xdr4curr9generateds3w_1__24RECURSIVE_COUNT_AuthCert6___initB9_
FNDA:0,_RNvNvNvNtNtCs47RmZobMba4_11stellar_xdr4curr9generatedst_1__27RECURSIVE_COUNT_ScMetaEntry6___initB9_
FNDA:0,_RNvNvNvNtNtCs47RmZobMba4_11stellar_xdr4curr9generateds3W_1__36RECURSIVE_COUNT_AuthenticatedMessage6___initB9_
FNDA:0,_RNvNvNvNtNtCs47RmZobMba4_11stellar_xdr4curr9generatedsI_1__36RECURSIVE_COUNT_ScSpecUdtUnionCaseV07___getitB9_
FNDA:0,_RNvNvNvNtNtCs47RmZobMba4_11stellar_xdr4curr9generateds2k_1__30RECURSIVE_COUNT_LedgerEntryExt7___getitB9_
FNDA:0,_RNvNvNvNtNtCs47RmZobMba4_11stellar_xdr4curr9generateds1P_1__32RECURSIVE_COUNT_TrustLineEntryV17___getitB9_
FNDA:0,_RNvNvNvNtNtCs47RmZobMba4_11stellar_xdr4curr9generateds57_1__42RECURSIVE_COUNT_FeeBumpTransactionEnvelope7___getitB9_
FNDA:0,_RNvNvNvNtNtCs47RmZobMba4_11stellar_xdr4curr9generateds51_1__30RECURSIVE_COUNT_TransactionExt6___initB9_
FNDA:0,_RNvNvNvNtNtCs47RmZobMba4_11stellar_xdr4curr9generatedsW_1__28RECURSIVE_COUNT_UInt128Parts7___getitB9_
FNDA:0,_RNvNvNvNtNtCs47RmZobMba4_11stellar_xdr4curr9generateds3S_1__30RECURSIVE_COUNT_TxDemandVector7___getitB9_
FNDA:0,_RNvNvNvNtNtCs47RmZobMba4_11stellar_xdr4curr9generateds2N_1__33RECURSIVE_COUNT_BucketMetadataExt6___initB9_
FNDA:0,_RNvNvNvNtNtCs47RmZobMba4_11stellar_xdr4curr9generateds2v_1__28RECURSIVE_COUNT_LedgerKeyTtl7___getitB9_
FNDA:0,_RNvNvNvNtNtCs47RmZobMba4_11stellar_xdr4curr9generateds3e_1__33RECURSIVE_COUNT_ContractEventType6___initB9_
FNDA:0,_RNvNvNvNtNtCs47RmZobMba4_11stellar_xdr4curr9generateds6n_1__33RECURSIVE_COUNT_TransactionResult7___getitB9_
FNDA:0,_RNvNvNvNtNtCs47RmZobMba4_11stellar_xdr4curr9generateds4Q_1__26RECURSIVE_COUNT_TimeBounds7___getitB9_
FNDA:0,_RNvNvNvNtNtCs47RmZobMba4_11stellar_xdr4curr9generateds3G_1__36RECURSIVE_COUNT_SurveyRequestMessage6___initB9_
FNDA:0,_RNvNvNvNtNtCs47RmZobMba4_11stellar_xdr4curr9generatedss_1__26RECURSIVE_COUNT_ScMetaKind7___getitB9_
FNDA:0,_RNvNvNvNtNtCs47RmZobMba4_11stellar_xdr4curr9generateds4z_1__43RECURSIVE_COUNT_SorobanAuthorizedInvocation7___getitB9_
FNDA:0,_RNvNvNvNtNtCs47RmZobMba4_11stellar_xdr4curr9generateds1c_1__26RECURSIVE_COUNT_ScMapEntry6___initB9_
FNDA:0,_RNvNvNvNtNtCs47RmZobMba4_11stellar_xdr4curr9generateds56_1__34RECURSIVE_COUNT_FeeBumpTransaction7___getitB9_
FNDA:0,_RNvNvNvNtNtCs47RmZobMba4_11stellar_xdr4curr9generateds12_1__29RECURSIVE_COUNT_ScAddressType6___initB9_
FNDA:0,_RNvNvNvNtNtCs47RmZobMba4_11stellar_xdr4curr9generateds1O_1__35RECURSIVE_COUNT_TrustLineEntryV1Ext7___getitB9_
FNDA:0,_RNvNvNvNtNtCs47RmZobMba4_11stellar_xdr4curr9generatedsN_1__36RECURSIVE_COUNT_ScSpecUdtErrorEnumV06___initB9_
FNDA:0,_RNvNvNvNtNtCs47RmZobMba4_11stellar_xdr4curr9generateds57_1__42RECURSIVE_COUNT_FeeBumpTransactionEnvelope6___initB9_
FNDA:0,_RNvNvNvNtNtCs47RmZobMba4_11stellar_xdr4curr9generateds6t_1__29RECURSIVE_COUNT_CryptoKeyType7___getitB9_
FNDA:0,_RNvNvNvNtNtCs47RmZobMba4_11stellar_xdr4curr9generateds2w_1__25RECURSIVE_COUNT_LedgerKey7___getitB9_
FNDA:0,_RNvNvNvNtNtCs47RmZobMba4_11stellar_xdr4curr9generateds5X_1__34RECURSIVE_COUNT_ClawbackResultCode7___getitB9_
FNDA:0,_RNvNvNvNtNtCs47RmZobMba4_11stellar_xdr4curr9generateds4a_1__32RECURSIVE_COUNT_ChangeTrustAsset6___initB9_
FNDA:0,_RNvNvNvNtNtCs47RmZobMba4_11stellar_xdr4curr9generateds27_1__40RECURSIVE_COUNT_ClaimableBalanceEntryExt6___initB9_
FNDA:0,_RNvNvNvNtNtCs47RmZobMba4_11stellar_xdr4curr9generateds5r_1__41RECURSIVE_COUNT_ManageSellOfferResultCode6___initB9_
FNDA:0,_RNvNvNvNtNtCs47RmZobMba4_11stellar_xdr4curr9generateds4V_1__31RECURSIVE_COUNT_LedgerFootprint7___getitB9_
FNDA:0,_RNvNvNvNtNtCs47RmZobMba4_11stellar_xdr4curr9generateds14_1__21RECURSIVE_COUNT_ScVec6___initB9_
FNDA:0,_RNvNvNvNtNtCs47RmZobMba4_11stellar_xdr4curr9generateds2e_1__33RECURSIVE_COUNT_ContractDataEntry7___getitB9_
FNDA:0,_RNvNvNvNtNtCs47RmZobMba4_11stellar_xdr4curr9generateds42_1__31RECURSIVE_COUNT_CreateAccountOp7___getitB9_
FNDA:0,_RNvNvNvNtNtCs47RmZobMba4_11stellar_xdr4curr9generateds2V_1__32RECURSIVE_COUNT_TransactionSetV17___getitB9_
FNDA:0,_RNvNvNvNtNtCs47RmZobMba4_11stellar_xdr4curr9generateds5M_1__34RECURSIVE_COUNT_BumpSequenceResult6___initB9_
FNDA:0,_RNvNvNvNtNtCs47RmZobMba4_11stellar_xdr4curr9generateds4R_1__28RECURSIVE_COUNT_LedgerBounds6___initB9_
FNDA:0,_RNvNvNvNtNtCs47RmZobMba4_11stellar_xdr4curr9generateds6f_1__31RECURSIVE_COUNT_OperationResult7___getitB9_
FNDA:0,_RNvNvNvNtNtCs47RmZobMba4_11stellar_xdr4curr9generateds2d_1__38RECURSIVE_COUNT_ContractDataDurability6___initB9_
FNDA:0,_RNvNvNvNtNtCs47RmZobMba4_11stellar_xdr4curr9generateds52_1__27RECURSIVE_COUNT_Transaction6___initB9_
FNDA:0,_RNvNvNvNtNtCs47RmZobMba4_11stellar_xdr4curr9generateds2r_1__38RECURSIVE_COUNT_LedgerKeyLiquidityPool7___getitB9_
FNDA:0,_RNvNvNvNtNtCs47RmZobMba4_11stellar_xdr4curr9generateds6A_1__29RECURSIVE_COUNT_SignatureHint7___getitB9_
FNDA:0,_RNvNvNvNtNtCs47RmZobMba4_11stellar_xdr4curr9generateds1y_1__31RECURSIVE_COUNT_LedgerEntryType6___initB9_
FNDA:0,_RNvNvNvNtNtCs47RmZobMba4_11stellar_xdr4curr9generateds51_1__30RECURSIVE_COUNT_TransactionExt7___getitB9_
FNDA:0,_RNvNvNvNtNtCs47RmZobMba4_11stellar_xdr4curr9generateds5C_1__36RECURSIVE_COUNT_AllowTrustResultCode7___getitB9_
FNDA:0,_RNvNvNvNtNtCs47RmZobMba4_11stellar_xdr4curr9generatedsM_1__40RECURSIVE_COUNT_ScSpecUdtErrorEnumCaseV07___getitB9_
FNDA:0,_RNvNvNvNtNtCs47RmZobMba4_11stellar_xdr4curr9generateds1J_1__30RECURSIVE_COUNT_TrustLineFlags7___getitB9_
FNDA:0,_RNvNvNvNtNtCs47RmZobMba4_11stellar_xdr4curr9generatedsf_1__53RECURSIVE_COUNT_ConfigSettingContractHistoricalDataV06___initB9_
FNDA:0,_RNvNvNvNtNtCs47RmZobMba4_11stellar_xdr4curr9generateds17_1__24RECURSIVE_COUNT_ScString7___getitB9_
FNDA:0,_RNvNvNvNtNtCs47RmZobMba4_11stellar_xdr4curr9generateds1F_1__42RECURSIVE_COUNT_AccountEntryExtensionV1Ext6___initB9_
FNDA:0,_RNvNvNvNtNtCs47RmZobMba4_11stellar_xdr4curr9generateds58_1__35RECURSIVE_COUNT_TransactionEnvelope6___initB9_
FNDA:0,_RNvNvNvNtNtCs47RmZobMba4_11stellar_xdr4curr9generateds3x_1__21RECURSIVE_COUNT_Hello6___initB9_
FNDA:0,_RNvNvNvNtNtCs47RmZobMba4_11stellar_xdr4curr9generateds3t_1__22RECURSIVE_COUNT_SError7___getitB9_
FNDA:0,_RNvNvNvNtNtCs47RmZobMba4_11stellar_xdr4curr9generateds3_1__32RECURSIVE_COUNT_ScpStatementType7___getitB9_
FNDA:0,_RNvNvNvNtNtCs47RmZobMba4_11stellar_xdr4curr9generateds3K_1__43RECURSIVE_COUNT_SignedSurveyResponseMessage6___initB9_
FNDA:0,_RNvNvNvNtNtCs47RmZobMba4_11stellar_xdr4curr9generateds5N_1__48RECURSIVE_COUNT_CreateClaimableBalanceResultCode7___getitB9_
FNDA:0,_RNvNvNvNtNtCs47RmZobMba4_11stellar_xdr4curr9generatedsa_1__27RECURSIVE_COUNT_ScpEnvelope7___getitB9_
FNDA:0,_RNvNvNvNtNtCs47RmZobMba4_11stellar_xdr4curr9generateds2R_1__51RECURSIVE_COUNT_TxSetComponentTxsMaybeDiscountedFee6___initB9_
FNDA:0,_RNvNvNvNtNtCs47RmZobMba4_11stellar_xdr4curr9generateds5b_1__29RECURSIVE_COUNT_ClaimAtomType6___initB9_
FNDA:0,_RNvNvNvNtNtCs47RmZobMba4_11stellar_xdr4curr9generatedsA_1__32RECURSIVE_COUNT_ScSpecTypeBytesN7___getitB9_
FNDA:0,_RNvNvNvNtNtCs47RmZobMba4_11stellar_xdr4curr9generateds33_1__43RECURSIVE_COUNT_LedgerHeaderHistoryEntryExt7___getitB9_
FNDA:0,_RNvNvNvNtNtCs47RmZobMba4_11stellar_xdr4curr9generateds1E_1__39RECURSIVE_COUNT_AccountEntryExtensionV26___initB9_
FNDA:0,_RNvNvNvNtNtCs47RmZobMba4_11stellar_xdr4curr9generateds5h_1__35RECURSIVE_COUNT_CreateAccountResult7___getitB9_
FNDA:0,_RNvNvNvNtNtCs47RmZobMba4_11stellar_xdr4curr9generateds1o_1__26RECURSIVE_COUNT_AssetCode46___initB9_
FNDA:0,_RNvNvNvNtNtCs47RmZobMba4_11stellar_xdr4curr9generateds5q_1__43RECURSIVE_COUNT_PathPaymentStrictSendResult7___getitB9_
FNDA:0,_RNvNvNvNtNtCs47RmZobMba4_11stellar_xdr4curr9generateds5S_1__51RECURSIVE_COUNT_BeginSponsoringFutureReservesResult6___initB9_
FNDA:0,_RNvNvNvNtNtCs47RmZobMba4_11stellar_xdr4curr9generateds2P_1__27RECURSIVE_COUNT_BucketEntry6___initB9_
FNDA:0,_RNvNvNvNtNtCs47RmZobMba4_11stellar_xdr4curr9generateds4n_1__35RECURSIVE_COUNT_SetTrustLineFlagsOp7___getitB9_
FNDA:0,_RNvNvNvNtNtCs47RmZobMba4_11stellar_xdr4curr9generateds5S_1__51RECURSIVE_COUNT_BeginSponsoringFutureReservesResult7___getitB9_
FNDA:0,_RNvNvNvNtNtCs47RmZobMba4_11stellar_xdr4curr9generateds4O_1__24RECURSIVE_COUNT_MemoType6___initB9_
FNDA:0,_RNvNvNvNtNtCs47RmZobMba4_11stellar_xdr4curr9generatedsC_1__29RECURSIVE_COUNT_ScSpecTypeDef6___initB9_
FNDA:0,_RNvNvNvNtNtCs47RmZobMba4_11stellar_xdr4curr9generateds2p_1__29RECURSIVE_COUNT_LedgerKeyData6___initB9_
FNDA:0,_RNvNvNvNtNtCs47RmZobMba4_11stellar_xdr4curr9generateds3g_1__33RECURSIVE_COUNT_ContractEventBody7___getitB9_
FNDA:0,_RNvNvNvNtNtCs47RmZobMba4_11stellar_xdr4curr9generateds5D_1__32RECURSIVE_COUNT_AllowTrustResult6___initB9_
FNDA:0,_RNvNvNvNtNtCs47RmZobMba4_11stellar_xdr4curr9generateds5C_1__36RECURSIVE_COUNT_AllowTrustResultCode6___initB9_
FNDA:0,_RNvNvNvNtNtCs47RmZobMba4_11stellar_xdr4curr9generateds46_1__33RECURSIVE_COUNT_ManageSellOfferOp7___getitB9_
FNDA:0,_RNvNvNvNtNtCs47RmZobMba4_11stellar_xdr4curr9generateds3B_1__27RECURSIVE_COUNT_PeerAddress7___getitB9_
FNDA:0,_RNvNvNvNtNtCs47RmZobMba4_11stellar_xdr4curr9generateds3F_1__41RECURSIVE_COUNT_SurveyMessageResponseType7___getitB9_
FNDA:0,_RNvNvNvNtNtCs47RmZobMba4_11stellar_xdr4curr9generateds3m_1__31RECURSIVE_COUNT_TransactionMeta6___initB9_
FNDA:0,_RNvNvNvNtNtCs47RmZobMba4_11stellar_xdr4curr9generateds4U_1__29RECURSIVE_COUNT_Preconditions7___getitB9_
FNDA:0,_RNvNvNvNtNtCs47RmZobMba4_11stellar_xdr4curr9generateds1C_1__39RECURSIVE_COUNT_AccountEntryExtensionV36___initB9_
FNDA:0,_RNvNvNvNtNtCs47RmZobMba4_11stellar_xdr4curr9generateds55_1__37RECURSIVE_COUNT_FeeBumpTransactionExt7___getitB9_
FNDA:0,_RNvNvNvNtNtCs47RmZobMba4_11stellar_xdr4curr9generateds1Z_1__28RECURSIVE_COUNT_ClaimantType7___getitB9_
FNDA:0,_RNvNvNvNtNtCs47RmZobMba4_11stellar_xdr4curr9generateds11_1__34RECURSIVE_COUNT_ContractExecutable7___getitB9_
FNDA:0,_RNvNvNvNtNtCs47RmZobMba4_11stellar_xdr4curr9generateds31_1__48RECURSIVE_COUNT_TransactionHistoryResultEntryExt6___initB9_
FNDA:0,_RNvNvNvNtNtCs47RmZobMba4_11stellar_xdr4curr9generateds7_1__39RECURSIVE_COUNT_ScpStatementExternalize7___getitB9_
FNDA:0,_RNvNvNvNtNtCs47RmZobMba4_11stellar_xdr4curr9generatedsR_1__27RECURSIVE_COUNT_ScSpecEntry7___getitB9_
FNDA:0,_RNvNvNvNtNtCs47RmZobMba4_11stellar_xdr4curr9generateds3o_1__32RECURSIVE_COUNT_UpgradeEntryMeta7___getitB9_
FNDA:0,_RNvNvNvNtNtCs47RmZobMba4_11stellar_xdr4curr9generateds3X_1__39RECURSIVE_COUNT_LiquidityPoolParameters6___initB9_
FNDA:0,_RNvNvNvNtNtCs47RmZobMba4_11stellar_xdr4curr9generateds69_1__44RECURSIVE_COUNT_ExtendFootprintTtlResultCode7___getitB9_
FNDA:0,_RNvNvNvNtNtCs47RmZobMba4_11stellar_xdr4curr9generateds5m_1__53RECURSIVE_COUNT_PathPaymentStrictReceiveResultSuccess7___getitB9_
FNDA:0,_RNvNvNvNtNtCs47RmZobMba4_11stellar_xdr4curr9generateds6i_1__41RECURSIVE_COUNT_InnerTransactionResultExt6___initB9_
FNDA:0,_RNvNvNvNtNtCs47RmZobMba4_11stellar_xdr4curr9generateds5L_1__38RECURSIVE_COUNT_BumpSequenceResultCode6___initB9_
FNDA:0,_RNvNvNvNtNtCs47RmZobMba4_11stellar_xdr4curr9generateds2I_1__33RECURSIVE_COUNT_LedgerUpgradeType7___getitB9_
FNDA:0,_RNvNvNvNtNtCs47RmZobMba4_11stellar_xdr4curr9generateds1J_1__30RECURSIVE_COUNT_TrustLineFlags6___initB9_
FNDA:0,_RNvNvNvNtNtCs47RmZobMba4_11stellar_xdr4curr9generateds3v_1__32RECURSIVE_COUNT_SendMoreExtended6___initB9_
FNDA:0,_RNvNvNvNtNtCs47RmZobMba4_11stellar_xdr4curr9generateds6o_1__20RECURSIVE_COUNT_Hash7___getitB9_
FNDA:0,_RNvNvNvNtNtCs47RmZobMba4_11stellar_xdr4curr9generateds2G_1__31RECURSIVE_COUNT_LedgerHeaderExt6___initB9_
FNDA:0,_RNvNvNvNtNtCs47RmZobMba4_11stellar_xdr4curr9generateds3H_1__42RECURSIVE_COUNT_SignedSurveyRequestMessage7___getitB9_
FNDA:0,_RNvNvNvNtNtCs47RmZobMba4_11stellar_xdr4curr9generateds1D_1__42RECURSIVE_COUNT_AccountEntryExtensionV2Ext7___getitB9_
FNDA:0,_RNvNvNvNtNtCs47RmZobMba4_11stellar_xdr4curr9generateds6h_1__44RECURSIVE_COUNT_InnerTransactionResultResult6___initB9_
FNDA:0,_RNvNvNvNtNtCs47RmZobMba4_11stellar_xdr4curr9generateds5x_1__36RECURSIVE_COUNT_ManageBuyOfferResult6___initB9_
FNDA:0,_RNvNvNvNtNtCs47RmZobMba4_11stellar_xdr4curr9generated1__20RECURSIVE_COUNT_VecM7___getitB9_
FNDA:0,_RNvNvNvNtNtCs47RmZobMba4_11stellar_xdr4curr9generateds4h_1__47RECURSIVE_COUNT_BeginSponsoringFutureReservesOp6___initB9_
FNDA:0,_RNvNvNvNtNtCs47RmZobMba4_11stellar_xdr4curr9generateds5Q_1__43RECURSIVE_COUNT_ClaimClaimableBalanceResult7___getitB9_
FNDA:0,_RNvNvNvNtNtCs47RmZobMba4_11stellar_xdr4curr9generateds5w_1__40RECURSIVE_COUNT_ManageBuyOfferResultCode7___getitB9_
FNDA:0,_RNvNvNvNtNtCs47RmZobMba4_11stellar_xdr4curr9generateds2O_1__30RECURSIVE_COUNT_BucketMetadata7___getitB9_
FNDA:0,_RNvNvNvNtNtCs47RmZobMba4_11stellar_xdr4curr9generateds15_1__21RECURSIVE_COUNT_ScMap6___initB9_
FNDA:0,_RNvNvNvNtNtCs47RmZobMba4_11stellar_xdr4curr9generateds4n_1__35RECURSIVE_COUNT_SetTrustLineFlagsOp6___initB9_
FNDA:0,_RNvNvNvNtNtCs47RmZobMba4_11stellar_xdr4curr9generateds61_1__43RECURSIVE_COUNT_SetTrustLineFlagsResultCode6___initB9_
FNDA:0,_RNvNvNvNtNtCs47RmZobMba4_11stellar_xdr4curr9generateds5W_1__39RECURSIVE_COUNT_RevokeSponsorshipResult6___initB9_
FNDA:0,_RNvNvNvNtNtCs47RmZobMba4_11stellar_xdr4curr9generateds1f_1__35RECURSIVE_COUNT_PersistedScpStateV07___getitB9_
FNDA:0,_RNvNvNvNtNtCs47RmZobMba4_11stellar_xdr4curr9generateds2h_1__41RECURSIVE_COUNT_LedgerEntryExtensionV1Ext6___initB9_
FNDA:0,_RNvNvNvNtNtCs47RmZobMba4_11stellar_xdr4curr9generateds1t_1__26RECURSIVE_COUNT_AlphaNum127___getitB9_
FNDA:0,_RNvNvNvNtNtCs47RmZobMba4_11stellar_xdr4curr9generateds5y_1__36RECURSIVE_COUNT_SetOptionsResultCode6___initB9_
FNDA:0,_RNvNvNvNtNtCs47RmZobMba4_11stellar_xdr4curr9generateds6E_1__32RECURSIVE_COUNT_Curve25519Public7___getitB9_
FNDA:0,_RNvNvNvNtNtCs47RmZobMba4_11stellar_xdr4curr9generateds6G_1__29RECURSIVE_COUNT_HmacSha256Mac6___initB9_
FNDA:0,_RNvNvNvNtNtCs47RmZobMba4_11stellar_xdr4curr9generatedsG_1__41RECURSIVE_COUNT_ScSpecUdtUnionCaseTupleV06___initB9_
FNDA:0,_RNvNvNvNtNtCs47RmZobMba4_11stellar_xdr4curr9generateds2E_1__42RECURSIVE_COUNT_LedgerHeaderExtensionV1Ext7___getitB9_
FNDA:0,_RNvNvNvNtNtCs47RmZobMba4_11stellar_xdr4curr9generateds5M_1__34RECURSIVE_COUNT_BumpSequenceResult7___getitB9_
FNDA:0,_RNvNvNvNtNtCs47RmZobMba4_11stellar_xdr4curr9generateds3f_1__31RECURSIVE_COUNT_ContractEventV06___initB9_
FNDA:0,_RNvNvNvNtNtCs47RmZobMba4_11stellar_xdr4curr9generateds10_1__38RECURSIVE_COUNT_ContractExecutableType6___initB9_
FNDA:0,_RNvNvNvNtNtCs47RmZobMba4_11stellar_xdr4curr9generateds5t_1__45RECURSIVE_COUNT_ManageOfferSuccessResultOffer6___initB9_
FNDA:0,_RNvNvNvNtNtCs47RmZobMba4_11stellar_xdr4curr9generateds5p_1__50RECURSIVE_COUNT_PathPaymentStrictSendResultSuccess7___getitB9_
FNDA:0,_RNvNvNvNtNtCs47RmZobMba4_11stellar_xdr4curr9generateds52_1__27RECURSIVE_COUNT_Transaction7___getitB9_
FNDA:0,_RNvNvNvNtNtCs47RmZobMba4_11stellar_xdr4curr9generateds3D_1__24RECURSIVE_COUNT_DontHave7___getitB9_
FNDA:0,_RNvNvNvNtNtCs47RmZobMba4_11stellar_xdr4curr9generatedsZ_1__27RECURSIVE_COUNT_Int256Parts7___getitB9_
FNDA:0,_RNvNvNvNtNtCs47RmZobMba4_11stellar_xdr4curr9generateds4o_1__38RECURSIVE_COUNT_LiquidityPoolDepositOp7___getitB9_
FNDA:0,_RNvNvNvNtNtCs47RmZobMba4_11stellar_xdr4curr9generateds6g_1__37RECURSIVE_COUNT_TransactionResultCode6___initB9_
FNDA:0,_RNvNvNvNtNtCs47RmZobMba4_11stellar_xdr4curr9generateds1h_1__33RECURSIVE_COUNT_PersistedScpState6___initB9_
FNDA:0,_RNvNvNvNtNtCs47RmZobMba4_11stellar_xdr4curr9generateds4K_1__38RECURSIVE_COUNT_HashIdPreimageRevokeId7___getitB9_
FNDA:0,_RNvNvNvNtNtCs47RmZobMba4_11stellar_xdr4curr9generateds3W_1__36RECURSIVE_COUNT_AuthenticatedMessage7___getitB9_
FNDA:0,_RNvNvNvNtNtCs47RmZobMba4_11stellar_xdr4curr9generateds4b_1__29RECURSIVE_COUNT_ChangeTrustOp6___initB9_
FNDA:0,_RNvNvNvNtNtCs47RmZobMba4_11stellar_xdr4curr9generateds5c_1__32RECURSIVE_COUNT_ClaimOfferAtomV07___getitB9_
FNDA:0,_RNvNvNvNtNtCs47RmZobMba4_11stellar_xdr4curr9generateds5l_1__35RECURSIVE_COUNT_SimplePaymentResult7___getitB9_
FNDA:0,_RNvNvNvNtNtCs47RmZobMba4_11stellar_xdr4curr9generateds2m_1__32RECURSIVE_COUNT_LedgerKeyAccount6___initB9_
FNDA:0,_RNvNvNvNtNtCs47RmZobMba4_11stellar_xdr4curr9generateds1m_1__25RECURSIVE_COUNT_DataValue7___getitB9_
FNDA:0,_RNvNvNvNtNtCs47RmZobMba4_11stellar_xdr4curr9generateds2W_1__41RECURSIVE_COUNT_GeneralizedTransactionSet6___initB9_
FNDA:0,_RNvNvNvNtNtCs47RmZobMba4_11stellar_xdr4curr9generatedsd_1__46RECURSIVE_COUNT_ConfigSettingContractComputeV06___initB9_
FNDA:0,_RNvNvNvNtNtCs47RmZobMba4_11stellar_xdr4curr9generateds47_1__32RECURSIVE_COUNT_ManageBuyOfferOp7___getitB9_
FNDA:0,_RNvNvNvNtNtCs47RmZobMba4_11stellar_xdr4curr9generateds3U_1__30RECURSIVE_COUNT_StellarMessage7___getitB9_
FNDA:0,_RNvNvNvNtNtCs47RmZobMba4_11stellar_xdr4curr9generateds2z_1__32RECURSIVE_COUNT_StellarValueType7___getitB9_
FNDA:0,_RNvNvNvNtNtCs47RmZobMba4_11stellar_xdr4curr9generateds2h_1__41RECURSIVE_COUNT_LedgerEntryExtensionV1Ext7___getitB9_
FNDA:0,_RNvNvNvNtNtCs47RmZobMba4_11stellar_xdr4curr9generateds63_1__46RECURSIVE_COUNT_LiquidityPoolDepositResultCode7___getitB9_
FNDA:0,_RNvNvNvNtNtCs47RmZobMba4_11stellar_xdr4curr9generateds64_1__42RECURSIVE_COUNT_LiquidityPoolDepositResult6___initB9_
FNDA:0,_RNvNvNvNtNtCs47RmZobMba4_11stellar_xdr4curr9generateds1z_1__22RECURSIVE_COUNT_Signer6___initB9_
FNDA:0,_RNvNvNvNtNtCs47RmZobMba4_11stellar_xdr4curr9generateds3F_1__41RECURSIVE_COUNT_SurveyMessageResponseType6___initB9_
FNDA:0,_RNvNvNvNtNtCs47RmZobMba4_11stellar_xdr4curr9generateds2v_1__28RECURSIVE_COUNT_LedgerKeyTtl6___initB9_
FNDA:0,_RNvNvNvNtNtCs47RmZobMba4_11stellar_xdr4curr9generateds2a_1__49RECURSIVE_COUNT_LiquidityPoolEntryConstantProduct7___getitB9_
FNDA:0,_RNvNvNvNtNtCs47RmZobMba4_11stellar_xdr4curr9generateds3i_1__31RECURSIVE_COUNT_DiagnosticEvent6___initB9_
FNDA:0,_RNvNvNvNtNtCs47RmZobMba4_11stellar_xdr4curr9generateds6m_1__36RECURSIVE_COUNT_TransactionResultExt6___initB9_
FNDA:0,_RNvNvNvNtNtCs47RmZobMba4_11stellar_xdr4curr9generateds1_1__21RECURSIVE_COUNT_Value6___initB9_
FNDA:0,_RNvNvNvNtNtCs47RmZobMba4_11stellar_xdr4curr9generateds3j_1__38RECURSIVE_COUNT_SorobanTransactionMeta6___initB9_
FNDA:0,_RNvNvNvNtNtCs47RmZobMba4_11stellar_xdr4curr9generatedsr_1__24RECURSIVE_COUNT_ScMetaV07___getitB9_
FNDA:0,_RNvNvNvNtNtCs47RmZobMba4_11stellar_xdr4curr9generateds56_1__34RECURSIVE_COUNT_FeeBumpTransaction6___initB9_
FNDA:0,_RNvNvNvNtNtCs47RmZobMba4_11stellar_xdr4curr9generateds4_1__29RECURSIVE_COUNT_ScpNomination6___initB9_
FNDA:0,_RNvNvNvNtNtCs47RmZobMba4_11stellar_xdr4curr9generateds5F_1__34RECURSIVE_COUNT_AccountMergeResult7___getitB9_
FNDA:0,_RNvNvNvNtNtCs47RmZobMba4_11stellar_xdr4curr9generateds1w_1__27RECURSIVE_COUNT_Liabilities6___initB9_
FNDA:0,_RNvNvNvNtNtCs47RmZobMba4_11stellar_xdr4curr9generateds60_1__46RECURSIVE_COUNT_ClawbackClaimableBalanceResult6___initB9_
FNDA:0,_RNvNvNvNtNtCs47RmZobMba4_11stellar_xdr4curr9generateds5J_1__36RECURSIVE_COUNT_ManageDataResultCode6___initB9_
FNDA:0,_RNvNvNvNtNtCs47RmZobMba4_11stellar_xdr4curr9generateds26_1__48RECURSIVE_COUNT_ClaimableBalanceEntryExtensionV17___getitB9_
FNDA:0,_RNvNvNvNtNtCs47RmZobMba4_11stellar_xdr4curr9generateds4f_1__40RECURSIVE_COUNT_CreateClaimableBalanceOp7___getitB9_
FNDA:0,_RNvNvNvNtNtCs47RmZobMba4_11stellar_xdr4curr9generateds1a_1__34RECURSIVE_COUNT_ScContractInstance7___getitB9_
FNDA:0,_RNvNvNvNtNtCs47RmZobMba4_11stellar_xdr4curr9generateds36_1__33RECURSIVE_COUNT_ScpHistoryEntryV07___getitB9_
FNDA:0,_RNvNvNvNtNtCs47RmZobMba4_11stellar_xdr4curr9generateds3L_1__25RECURSIVE_COUNT_PeerStats6___initB9_
FNDA:0,_RNvNvNvNtNtCs47RmZobMba4_11stellar_xdr4curr9generateds6a_1__40RECURSIVE_COUNT_ExtendFootprintTtlResult6___initB9_
FNDA:0,_RNvNvNvNtNtCs47RmZobMba4_11stellar_xdr4curr9generateds3d_1__33RECURSIVE_COUNT_TransactionMetaV26___initB9_
FNDA:0,_RNvNvNvNtNtCs47RmZobMba4_11stellar_xdr4curr9generateds1I_1__28RECURSIVE_COUNT_AccountEntry7___getitB9_
FNDA:0,_RNvNvNvNtNtCs47RmZobMba4_11stellar_xdr4curr9generatedst_1__27RECURSIVE_COUNT_ScMetaEntry7___getitB9_
FNDA:0,_RNvNvNvNtNtCs47RmZobMba4_11stellar_xdr4curr9generateds3Z_1__28RECURSIVE_COUNT_MuxedAccount7___getitB9_
FNDA:0,_RNvNvNvNtNtCs47RmZobMba4_11stellar_xdr4curr9generateds6F_1__29RECURSIVE_COUNT_HmacSha256Key6___initB9_
FNDA:0,_RNvNvNvNtNtCs47RmZobMba4_11stellar_xdr4curr9generateds3d_1__33RECURSIVE_COUNT_TransactionMetaV27___getitB9_
FNDA:0,_RNvNvNvNtNtCs47RmZobMba4_11stellar_xdr4curr9generateds2_1__25RECURSIVE_COUNT_ScpBallot7___getitB9_
FNDA:0,_RNvNvNvNtNtCs47RmZobMba4_11stellar_xdr4curr9generateds4G_1__34RECURSIVE_COUNT_RestoreFootprintOp6___initB9_
FNDA:0,_RNvNvNvNtNtCs47RmZobMba4_11stellar_xdr4curr9generateds19_1__26RECURSIVE_COUNT_ScNonceKey7___getitB9_
FNDA:0,_RNvNvNvNtNtCs47RmZobMba4_11stellar_xdr4curr9generateds5L_1__38RECURSIVE_COUNT_BumpSequenceResultCode7___getitB9_
FNDA:0,_RNvNvNvNtNtCs47RmZobMba4_11stellar_xdr4curr9generateds1E_1__39RECURSIVE_COUNT_AccountEntryExtensionV27___getitB9_
FNDA:0,_RNvNvNvNtNtCs47RmZobMba4_11stellar_xdr4curr9generateds5i_1__33RECURSIVE_COUNT_PaymentResultCode6___initB9_
FNDA:0,_RNvNvNvNtNtCs47RmZobMba4_11stellar_xdr4curr9generateds3k_1__33RECURSIVE_COUNT_TransactionMetaV36___initB9_
FNDA:0,_RNvNvNvNtNtCs47RmZobMba4_11stellar_xdr4curr9generateds1f_1__35RECURSIVE_COUNT_PersistedScpStateV06___initB9_
FNDA:0,_RNvNvNvNtNtCs47RmZobMba4_11stellar_xdr4curr9generateds5A_1__37RECURSIVE_COUNT_ChangeTrustResultCode7___getitB9_
FNDA:0,_RNvNvNvNtNtCs47RmZobMba4_11stellar_xdr4curr9generateds1R_1__30RECURSIVE_COUNT_TrustLineEntry6___initB9_
FNDA:0,_RNvNvNvNtNtCs47RmZobMba4_11stellar_xdr4curr9generateds2r_1__38RECURSIVE_COUNT_LedgerKeyLiquidityPool6___initB9_
FNDA:0,_RNvNvNvNtNtCs47RmZobMba4_11stellar_xdr4curr9generateds2g_1__24RECURSIVE_COUNT_TtlEntry7___getitB9_
FNDA:0,_RNvNvNvNtNtCs47RmZobMba4_11stellar_xdr4curr9generateds1l_1__30RECURSIVE_COUNT_SequenceNumber7___getitB9_
FNDA:0,_RNvNvNvNtNtCs47RmZobMba4_11stellar_xdr4curr9generateds8_1__35RECURSIVE_COUNT_ScpStatementPledges6___initB9_
FNDA:0,_RNvNvNvNtNtCs47RmZobMba4_11stellar_xdr4curr9generateds4m_1__42RECURSIVE_COUNT_ClawbackClaimableBalanceOp7___getitB9_
FNDA:0,_RNvNvNvNtNtCs47RmZobMba4_11stellar_xdr4curr9generatedsi_1__32RECURSIVE_COUNT_ContractCostType6___initB9_
FNDA:0,_RNvNvNvNtNtCs47RmZobMba4_11stellar_xdr4curr9generateds2J_1__35RECURSIVE_COUNT_ConfigUpgradeSetKey7___getitB9_
FNDA:0,_RNvNvNvNtNtCs47RmZobMba4_11stellar_xdr4curr9generateds2V_1__32RECURSIVE_COUNT_TransactionSetV16___initB9_
FNDA:0,_RNvNvNvNtNtCs47RmZobMba4_11stellar_xdr4curr9generatedsL_1__31RECURSIVE_COUNT_ScSpecUdtEnumV07___getitB9_
FNDA:0,_RNvNvNvNtNtCs47RmZobMba4_11stellar_xdr4curr9generateds5u_1__40RECURSIVE_COUNT_ManageOfferSuccessResult7___getitB9_
FNDA:0,_RNvNvNvNtNtCs47RmZobMba4_11stellar_xdr4curr9generatedso_1__34RECURSIVE_COUNT_ConfigSettingEntry6___initB9_
FNDA:0,_RNvNvNvNtNtCs47RmZobMba4_11stellar_xdr4curr9generatedsT_1__27RECURSIVE_COUNT_ScErrorType7___getitB9_
FNDA:0,_RNvNvNvNtNtCs47RmZobMba4_11stellar_xdr4curr9generateds6r_1__24RECURSIVE_COUNT_Duration7___getitB9_
FNDA:0,_RNvNvNvNtNtCs47RmZobMba4_11stellar_xdr4curr9generateds6C_1__25RECURSIVE_COUNT_AccountId6___initB9_
FNDA:0,_RNvNvNvNtNtCs47RmZobMba4_11stellar_xdr4curr9generateds5g_1__39RECURSIVE_COUNT_CreateAccountResultCode7___getitB9_
FNDA:0,_RNvNvNvNtNtCs47RmZobMba4_11stellar_xdr4curr9generateds1Y_1__30RECURSIVE_COUNT_ClaimPredicate6___initB9_
FNDA:0,_RNvNvNvNtNtCs47RmZobMba4_11stellar_xdr4curr9generateds4S_1__31RECURSIVE_COUNT_PreconditionsV26___initB9_
FNDA:0,_RNvNvNvNtNtCs47RmZobMba4_11stellar_xdr4curr9generateds4c_1__28RECURSIVE_COUNT_AllowTrustOp6___initB9_
FNDA:0,_RNvNvNvNtNtCs47RmZobMba4_11stellar_xdr4curr9generateds10_1__38RECURSIVE_COUNT_ContractExecutableType7___getitB9_
FNDA:0,_RNvNvNvNtNtCs47RmZobMba4_11stellar_xdr4curr9generateds1M_1__44RECURSIVE_COUNT_TrustLineEntryExtensionV2Ext6___initB9_
FNDA:0,_RNvNvNvNtNtCs47RmZobMba4_11stellar_xdr4curr9generateds2n_1__34RECURSIVE_COUNT_LedgerKeyTrustLine7___getitB9_
FNDA:0,_RNvNvNvNtNtCs47RmZobMba4_11stellar_xdr4curr9generateds1Y_1__30RECURSIVE_COUNT_ClaimPredicate7___getitB9_
FNDA:0,_RNvNvNvNtNtCs47RmZobMba4_11stellar_xdr4curr9generatedsY_1__28RECURSIVE_COUNT_UInt256Parts6___initB9_
FNDA:0,_RNvNvNvNtNtCs47RmZobMba4_11stellar_xdr4curr9generateds5G_1__35RECURSIVE_COUNT_InflationResultCode6___initB9_
FNDA:0,_RNvNvNvNtNtCs47RmZobMba4_11stellar_xdr4curr9generateds2z_1__32RECURSIVE_COUNT_StellarValueType6___initB9_
FNDA:0,_RNvNvNvNtNtCs47RmZobMba4_11stellar_xdr4curr9generateds68_1__40RECURSIVE_COUNT_InvokeHostFunctionResult7___getitB9_
FNDA:0,_RNvNvNvNtNtCs47RmZobMba4_11stellar_xdr4curr9generateds6k_1__42RECURSIVE_COUNT_InnerTransactionResultPair7___getitB9_
FNDA:0,_RNvNvNvNtNtCs47RmZobMba4_11stellar_xdr4curr9generateds3A_1__29RECURSIVE_COUNT_PeerAddressIp7___getitB9_
FNDA:0,_RNvNvNvNtNtCs47RmZobMba4_11stellar_xdr4curr9generateds6_1__35RECURSIVE_COUNT_ScpStatementConfirm6___initB9_
FNDA:0,_RNvNvNvNtNtCs47RmZobMba4_11stellar_xdr4curr9generateds16_1__23RECURSIVE_COUNT_ScBytes7___getitB9_
FNDA:0,_RNvNvNvNtNtCs47RmZobMba4_11stellar_xdr4curr9generateds1H_1__31RECURSIVE_COUNT_AccountEntryExt6___initB9_
FNDA:0,_RNvNvNvNtNtCs47RmZobMba4_11stellar_xdr4curr9generateds50_1__37RECURSIVE_COUNT_TransactionV0Envelope6___initB9_
FNDA:0,_RNvNvNvNtNtCs47RmZobMba4_11stellar_xdr4curr9generateds5k_1__50RECURSIVE_COUNT_PathPaymentStrictReceiveResultCode7___getitB9_
FNDA:0,_RNvNvNvNtNtCs47RmZobMba4_11stellar_xdr4curr9generateds4Y_1__32RECURSIVE_COUNT_TransactionV0Ext6___initB9_
FNDA:0,_RNvNvNvNtNtCs47RmZobMba4_11stellar_xdr4curr9generateds6h_1__44RECURSIVE_COUNT_InnerTransactionResultResult7___getitB9_
FNDA:0,_RNvNvNvNtNtCs47RmZobMba4_11stellar_xdr4curr9generateds3u_1__24RECURSIVE_COUNT_SendMore7___getitB9_
FNDA:0,_RNvNvNvNtNtCs47RmZobMba4_11stellar_xdr4curr9generateds2F_1__39RECURSIVE_COUNT_LedgerHeaderExtensionV17___getitB9_
FNDA:0,_RNvNvNvNtNtCs47RmZobMba4_11stellar_xdr4curr9generateds5u_1__40RECURSIVE_COUNT_ManageOfferSuccessResult6___initB9_
FNDA:0,_RNvNvNvNtNtCs47RmZobMba4_11stellar_xdr4curr9generatedss_1__26RECURSIVE_COUNT_ScMetaKind6___initB9_
FNDA:0,_RNvNvNvNtNtCs47RmZobMba4_11stellar_xdr4curr9generatedsH_1__40RECURSIVE_COUNT_ScSpecUdtUnionCaseV0Kind7___getitB9_
FNDA:0,_RNvNvNvNtNtCs47RmZobMba4_11stellar_xdr4curr9generateds3c_1__33RECURSIVE_COUNT_TransactionMetaV16___initB9_
FNDA:0,_RNvNvNvNtNtCs47RmZobMba4_11stellar_xdr4curr9generateds6D_1__32RECURSIVE_COUNT_Curve25519Secret7___getitB9_
FNDA:0,_RNvNvNvNtNtCs47RmZobMba4_11stellar_xdr4curr9generatedsM_1__40RECURSIVE_COUNT_ScSpecUdtErrorEnumCaseV06___initB9_
FNDA:0,_RNvNvNvNtNtCs47RmZobMba4_11stellar_xdr4curr9generateds1O_1__35RECURSIVE_COUNT_TrustLineEntryV1Ext6___initB9_
FNDA:0,_RNvNvNvNtNtCs47RmZobMba4_11stellar_xdr4curr9generateds64_1__42RECURSIVE_COUNT_LiquidityPoolDepositResult7___getitB9_
FNDA:0,_RNvNvNvNtNtCs47RmZobMba4_11stellar_xdr4curr9generateds3b_1__29RECURSIVE_COUNT_OperationMeta6___initB9_
FNDA:0,_RNvNvNvNtNtCs47RmZobMba4_11stellar_xdr4curr9generatedsW_1__28RECURSIVE_COUNT_UInt128Parts6___initB9_
FNDA:0,_RNvNvNvNtNtCs47RmZobMba4_11stellar_xdr4curr9generateds4l_1__26RECURSIVE_COUNT_ClawbackOp6___initB9_
FNDA:0,_RNvNvNvNtNtCs47RmZobMba4_11stellar_xdr4curr9generateds1I_1__28RECURSIVE_COUNT_AccountEntry6___initB9_
FNDA:0,_RNvNvNvNtNtCs47RmZobMba4_11stellar_xdr4curr9generateds4w_1__28RECURSIVE_COUNT_HostFunction7___getitB9_
FNDA:0,_RNvNvNvNtNtCs47RmZobMba4_11stellar_xdr4curr9generateds60_1__46RECURSIVE_COUNT_ClawbackClaimableBalanceResult7___getitB9_
FNDA:0,_RNvNvNvNtNtCs47RmZobMba4_11stellar_xdr4curr9generateds5q_1__43RECURSIVE_COUNT_PathPaymentStrictSendResult6___initB9_
FNDA:0,_RNvNvNvNtNtCs47RmZobMba4_11stellar_xdr4curr9generateds2i_1__38RECURSIVE_COUNT_LedgerEntryExtensionV17___getitB9_
FNDA:0,_RNvNvNvNtNtCs47RmZobMba4_11stellar_xdr4curr9generateds2_1__25RECURSIVE_COUNT_ScpBallot6___initB9_
FNDA:0,_RNvNvNvNtNtCs47RmZobMba4_11stellar_xdr4curr9generateds2H_1__28RECURSIVE_COUNT_LedgerHeader6___initB9_
FNDA:0,_RNvNvNvNtNtCs47RmZobMba4_11stellar_xdr4curr9generatedsE_1__33RECURSIVE_COUNT_ScSpecUdtStructV07___getitB9_
FNDA:0,_RNvNvNvNtNtCs47RmZobMba4_11stellar_xdr4curr9generateds4k_1__35RECURSIVE_COUNT_RevokeSponsorshipOp7___getitB9_
FNDA:0,_RNvNvNvNtNtCs47RmZobMba4_11stellar_xdr4curr9generateds4P_1__20RECURSIVE_COUNT_Memo6___initB9_
FNDA:0,_RNvNvNvNtNtCs47RmZobMba4_11stellar_xdr4curr9generateds4r_1__38RECURSIVE_COUNT_ContractIdPreimageType7___getitB9_
FNDA:0,_RNvNvNvNtNtCs47RmZobMba4_11stellar_xdr4curr9generateds2e_1__33RECURSIVE_COUNT_ContractDataEntry6___initB9_
FNDA:0,_RNvNvNvNtNtCs47RmZobMba4_11stellar_xdr4curr9generateds4s_1__45RECURSIVE_COUNT_ContractIdPreimageFromAddress6___initB9_
FNDA:0,_RNvNvNvNtNtCs47RmZobMba4_11stellar_xdr4curr9generateds13_1__25RECURSIVE_COUNT_ScAddress7___getitB9_
FNDA:0,_RNvNvNvNtNtCs47RmZobMba4_11stellar_xdr4curr9generateds2m_1__32RECURSIVE_COUNT_LedgerKeyAccount7___getitB9_
FNDA:0,_RNvNvNvNtNtCs47RmZobMba4_11stellar_xdr4curr9generatedsY_1__28RECURSIVE_COUNT_UInt256Parts7___getitB9_
FNDA:0,_RNvNvNvNtNtCs47RmZobMba4_11stellar_xdr4curr9generateds3y_1__20RECURSIVE_COUNT_Auth6___initB9_
FNDA:0,_RNvNvNvNtNtCs47RmZobMba4_11stellar_xdr4curr9generateds2s_1__37RECURSIVE_COUNT_LedgerKeyContractData7___getitB9_
FNDA:0,_RNvNvNvNtNtCs47RmZobMba4_11stellar_xdr4curr9generateds29_1__54RECURSIVE_COUNT_LiquidityPoolConstantProductParameters6___initB9_
FNDA:0,_RNvNvNvNtNtCs47RmZobMba4_11stellar_xdr4curr9generateds5k_1__50RECURSIVE_COUNT_PathPaymentStrictReceiveResultCode6___initB9_
FNDA:0,_RNvNvNvNtNtCs47RmZobMba4_11stellar_xdr4curr9generateds2l_1__27RECURSIVE_COUNT_LedgerEntry6___initB9_
FNDA:0,_RNvNvNvNtNtCs47RmZobMba4_11stellar_xdr4curr9generateds5_1__35RECURSIVE_COUNT_ScpStatementPrepare7___getitB9_
FNDA:0,_RNvNvNvNtNtCs47RmZobMba4_11stellar_xdr4curr9generateds37_1__31RECURSIVE_COUNT_ScpHistoryEntry6___initB9_
FNDA:0,_RNvNvNvNtNtCs47RmZobMba4_11stellar_xdr4curr9generateds4t_1__34RECURSIVE_COUNT_ContractIdPreimage6___initB9_
FNDA:0,_RNvNvNvNtNtCs47RmZobMba4_11stellar_xdr4curr9generateds2k_1__30RECURSIVE_COUNT_LedgerEntryExt6___initB9_
FNDA:0,_RNvNvNvNtNtCs47RmZobMba4_11stellar_xdr4curr9generateds6r_1__24RECURSIVE_COUNT_Duration6___initB9_
FNDA:0,_RNvNvNvNtNtCs47RmZobMba4_11stellar_xdr4curr9generateds40_1__34RECURSIVE_COUNT_DecoratedSignature7___getitB9_
FNDA:0,_RNvNvNvNtNtCs47RmZobMba4_11stellar_xdr4curr9generateds59_1__60RECURSIVE_COUNT_TransactionSignaturePayloadTaggedTransaction7___getitB9_
FNDA:0,_RNvNvNvNtNtCs47RmZobMba4_11stellar_xdr4curr9generatedsb_1__28RECURSIVE_COUNT_ScpQuorumSet7___getitB9_
FNDA:0,_RNvNvNvNtNtCs47RmZobMba4_11stellar_xdr4curr9generateds2X_1__37RECURSIVE_COUNT_TransactionResultPair6___initB9_
FNDA:0,_RNvNvNvNtNtCs47RmZobMba4_11stellar_xdr4curr9generateds1y_1__31RECURSIVE_COUNT_LedgerEntryType7___getitB9_
FNDA:0,_RNvNvNvNtNtCs47RmZobMba4_11stellar_xdr4curr9generateds3s_1__25RECURSIVE_COUNT_ErrorCode6___initB9_
FNDA:0,_RNvNvNvNtNtCs47RmZobMba4_11stellar_xdr4curr9generatedsv_1__32RECURSIVE_COUNT_ScSpecTypeOption7___getitB9_
FNDA:0,_RNvNvNvNtNtCs47RmZobMba4_11stellar_xdr4curr9generateds6v_1__29RECURSIVE_COUNT_SignerKeyType7___getitB9_
FNDA:0,_RNvNvNvNtNtCs47RmZobMba4_11stellar_xdr4curr9generateds6l_1__39RECURSIVE_COUNT_TransactionResultResult7___getitB9_
FNDA:0,_RNvNvNvNtNtCs47RmZobMba4_11stellar_xdr4curr9generateds2D_1__33RECURSIVE_COUNT_LedgerHeaderFlags7___getitB9_
FNDA:0,_RNvNvNvNtNtCs47RmZobMba4_11stellar_xdr4curr9generateds55_1__37RECURSIVE_COUNT_FeeBumpTransactionExt6___initB9_
FNDA:0,_RNvNvNvNtNtCs47RmZobMba4_11stellar_xdr4curr9generateds5Y_1__30RECURSIVE_COUNT_ClawbackResult7___getitB9_
FNDA:0,_RNvNvNvNtNtCs47RmZobMba4_11stellar_xdr4curr9generateds68_1__40RECURSIVE_COUNT_InvokeHostFunctionResult6___initB9_
FNDA:0,_RNvNvNvNtNtCs47RmZobMba4_11stellar_xdr4curr9generateds1g_1__35RECURSIVE_COUNT_PersistedScpStateV16___initB9_
FNDA:0,_RNvNvNvNtNtCs47RmZobMba4_11stellar_xdr4curr9generateds2y_1__27RECURSIVE_COUNT_UpgradeType6___initB9_
FNDA:0,_RNvNvNvNtNtCs47RmZobMba4_11stellar_xdr4curr9generateds1A_1__28RECURSIVE_COUNT_AccountFlags7___getitB9_
FNDA:0,_RNvNvNvNtNtCs47RmZobMba4_11stellar_xdr4curr9generateds1c_1__26RECURSIVE_COUNT_ScMapEntry7___getitB9_
FNDA:0,_RNvNvNvNtNtCs47RmZobMba4_11stellar_xdr4curr9generateds2Z_1__42RECURSIVE_COUNT_TransactionHistoryEntryExt7___getitB9_
FNDA:0,_RNvNvNvNtNtCs47RmZobMba4_11stellar_xdr4curr9generateds6d_1__35RECURSIVE_COUNT_OperationResultCode7___getitB9_
FNDA:0,_RNvNvNvNtNtCs47RmZobMba4_11stellar_xdr4curr9generateds5J_1__36RECURSIVE_COUNT_ManageDataResultCode7___getitB9_
FNDA:0,_RNvNvNvNtNtCs47RmZobMba4_11stellar_xdr4curr9generateds2b_1__38RECURSIVE_COUNT_LiquidityPoolEntryBody7___getitB9_
FNDA:0,_RNvNvNvNtNtCs47RmZobMba4_11stellar_xdr4curr9generateds4O_1__24RECURSIVE_COUNT_MemoType7___getitB9_
FNDA:0,_RNvNvNvNtNtCs47RmZobMba4_11stellar_xdr4curr9generateds1G_1__39RECURSIVE_COUNT_AccountEntryExtensionV16___initB9_
FNDA:0,_RNvNvNvNtNtCs47RmZobMba4_11stellar_xdr4curr9generateds2M_1__31RECURSIVE_COUNT_BucketEntryType7___getitB9_
FNDA:0,_RNvNvNvNtNtCs47RmZobMba4_11stellar_xdr4curr9generateds3n_1__37RECURSIVE_COUNT_TransactionResultMeta6___initB9_
FNDA:0,_RNvNvNvNtNtCs47RmZobMba4_11stellar_xdr4curr9generateds4Z_1__29RECURSIVE_COUNT_TransactionV06___initB9_
FNDA:0,_RNvNvNvNtNtCs47RmZobMba4_11stellar_xdr4curr9generateds6x_1__45RECURSIVE_COUNT_SignerKeyEd25519SignedPayload6___initB9_
FNDA:0,_RNvNvNvNtNtCs47RmZobMba4_11stellar_xdr4curr9generateds4Y_1__32RECURSIVE_COUNT_TransactionV0Ext7___getitB9_
FNDA:0,_RNvNvNvNtNtCs47RmZobMba4_11stellar_xdr4curr9generatedsb_1__28RECURSIVE_COUNT_ScpQuorumSet6___initB9_
FNDA:0,_RNvNvNvNtNtCs47RmZobMba4_11stellar_xdr4curr9generateds4J_1__41RECURSIVE_COUNT_HashIdPreimageOperationId6___initB9_
FNDA:0,_RNvNvNvNtNtCs47RmZobMba4_11stellar_xdr4curr9generateds5V_1__43RECURSIVE_COUNT_RevokeSponsorshipResultCode7___getitB9_
FNDA:0,_RNvNvNvNtNtCs47RmZobMba4_11stellar_xdr4curr9generateds49_1__28RECURSIVE_COUNT_SetOptionsOp7___getitB9_
FNDA:0,_RNvNvNvNtNtCs47RmZobMba4_11stellar_xdr4curr9generatedsX_1__27RECURSIVE_COUNT_Int128Parts7___getitB9_
FNDA:0,_RNvNvNvNtNtCs47RmZobMba4_11stellar_xdr4curr9generateds1N_1__41RECURSIVE_COUNT_TrustLineEntryExtensionV26___initB9_
FNDA:0,_RNvNvNvNtNtCs47RmZobMba4_11stellar_xdr4curr9generateds2o_1__30RECURSIVE_COUNT_LedgerKeyOffer7___getitB9_
FNDA:0,_RNvNvNvNtNtCs47RmZobMba4_11stellar_xdr4curr9generateds5P_1__47RECURSIVE_COUNT_ClaimClaimableBalanceResultCode7___getitB9_
FNDA:0,_RNvNvNvNtNtCs47RmZobMba4_11stellar_xdr4curr9generateds4D_1__41RECURSIVE_COUNT_SorobanAuthorizationEntry7___getitB9_
FNDA:0,_RNvNvNvNtNtCs47RmZobMba4_11stellar_xdr4curr9generateds4T_1__32RECURSIVE_COUNT_PreconditionType7___getitB9_
FNDA:0,_RNvNvNvNtNtCs47RmZobMba4_11stellar_xdr4curr9generateds4e_1__30RECURSIVE_COUNT_BumpSequenceOp7___getitB9_
FNDA:0,_RNvNvNvNtNtCs47RmZobMba4_11stellar_xdr4curr9generateds1B_1__37RECURSIVE_COUNT_SponsorshipDescriptor6___initB9_
FNDA:0,_RNvNvNvNtNtCs47RmZobMba4_11stellar_xdr4curr9generateds5c_1__32RECURSIVE_COUNT_ClaimOfferAtomV06___initB9_
FNDA:0,_RNvNvNvNtNtCs47RmZobMba4_11stellar_xdr4curr9generateds5Z_1__50RECURSIVE_COUNT_ClawbackClaimableBalanceResultCode6___initB9_
FNDA:0,_RNvNvNvNtNtCs47RmZobMba4_11stellar_xdr4curr9generateds2q_1__41RECURSIVE_COUNT_LedgerKeyClaimableBalance7___getitB9_
FNDA:0,_RNvNvNvNtNtCs47RmZobMba4_11stellar_xdr4curr9generateds4l_1__26RECURSIVE_COUNT_ClawbackOp7___getitB9_
FNDA:0,_RNvNvNvNtNtCs47RmZobMba4_11stellar_xdr4curr9generateds2Z_1__42RECURSIVE_COUNT_TransactionHistoryEntryExt6___initB9_
FNDA:0,_RNvNvNvNtNtCs47RmZobMba4_11stellar_xdr4curr9generateds6C_1__25RECURSIVE_COUNT_AccountId7___getitB9_
FNDA:0,_RNvNvNvNtNtCs47RmZobMba4_11stellar_xdr4curr9generateds13_1__25RECURSIVE_COUNT_ScAddress6___initB9_
FNDA:0,_RNvNvNvNtNtCs47RmZobMba4_11stellar_xdr4curr9generateds5w_1__40RECURSIVE_COUNT_ManageBuyOfferResultCode6___initB9_
FNDA:0,_RNvNvNvNtNtCs47RmZobMba4_11stellar_xdr4curr9generatedsn_1__31RECURSIVE_COUNT_ConfigSettingId7___getitB9_
FNDA:0,_RNvNvNvNtNtCs47RmZobMba4_11stellar_xdr4curr9generatedsu_1__26RECURSIVE_COUNT_ScSpecType6___initB9_
FNDA:0,_RNvNvNvNtNtCs47RmZobMba4_11stellar_xdr4curr9generateds1_1__21RECURSIVE_COUNT_Value7___getitB9_
FNDA:0,_RNvNvNvNtNtCs47RmZobMba4_11stellar_xdr4curr9generateds2f_1__33RECURSIVE_COUNT_ContractCodeEntry6___initB9_
FNDA:0,_RNvNvNvNtNtCs47RmZobMba4_11stellar_xdr4curr9generateds1r_1__25RECURSIVE_COUNT_AssetCode7___getitB9_
FNDA:0,_RNvNvNvNtNtCs47RmZobMba4_11stellar_xdr4curr9generateds18_1__24RECURSIVE_COUNT_ScSymbol7___getitB9_
FNDA:0,_RNvNvNvNtNtCs47RmZobMba4_11stellar_xdr4curr9generateds28_1__37RECURSIVE_COUNT_ClaimableBalanceEntry7___getitB9_
FNDA:0,_RNvNvNvNtNtCs47RmZobMba4_11stellar_xdr4curr9generateds1P_1__32RECURSIVE_COUNT_TrustLineEntryV16___initB9_
FNDA:0,_RNvNvNvNtNtCs47RmZobMba4_11stellar_xdr4curr9generateds6B_1__22RECURSIVE_COUNT_NodeId7___getitB9_
FNDA:0,_RNvNvNvNtNtCs47RmZobMba4_11stellar_xdr4curr9generateds1t_1__26RECURSIVE_COUNT_AlphaNum126___initB9_
FNDA:0,_RNvNvNvNtNtCs47RmZobMba4_11stellar_xdr4curr9generateds5o_1__47RECURSIVE_COUNT_PathPaymentStrictSendResultCode6___initB9_
FNDA:0,_RNvNvNvNtNtCs47RmZobMba4_11stellar_xdr4curr9generateds53_1__37RECURSIVE_COUNT_TransactionV1Envelope7___getitB9_
FNDA:0,_RNvNvNvNtNtCs47RmZobMba4_11stellar_xdr4curr9generateds4y_1__41RECURSIVE_COUNT_SorobanAuthorizedFunction7___getitB9_
FNDA:0,_RNvNvNvNtNtCs47RmZobMba4_11stellar_xdr4curr9generateds1m_1__25RECURSIVE_COUNT_DataValue6___initB9_
FNDA:0,_RNvNvNvNtNtCs47RmZobMba4_11stellar_xdr4curr9generateds1L_1__30RECURSIVE_COUNT_TrustLineAsset7___getitB9_
FNDA:0,_RNvNvNvNtNtCs47RmZobMba4_11stellar_xdr4curr9generateds49_1__28RECURSIVE_COUNT_SetOptionsOp6___initB9_
FNDA:0,_RNvNvNvNtNtCs47RmZobMba4_11stellar_xdr4curr9generatedsX_1__27RECURSIVE_COUNT_Int128Parts6___initB9_
FNDA:0,_RNvNvNvNtNtCs47RmZobMba4_11stellar_xdr4curr9generateds3I_1__29RECURSIVE_COUNT_EncryptedBody6___initB9_
FNDA:0,_RNvNvNvNtNtCs47RmZobMba4_11stellar_xdr4curr9generateds3y_1__20RECURSIVE_COUNT_Auth7___getitB9_
FNDA:0,_RNvNvNvNtNtCs47RmZobMba4_11stellar_xdr4curr9generateds6d_1__35RECURSIVE_COUNT_OperationResultCode6___initB9_
FNDA:0,_RNvNvNvNtNtCs47RmZobMba4_11stellar_xdr4curr9generateds48_1__40RECURSIVE_COUNT_CreatePassiveSellOfferOp6___initB9_
FNDA:0,_RNvNvNvNtNtCs47RmZobMba4_11stellar_xdr4curr9generateds1G_1__39RECURSIVE_COUNT_AccountEntryExtensionV17___getitB9_
FNDA:0,_RNvNvNvNtNtCs47RmZobMba4_11stellar_xdr4curr9generateds3m_1__31RECURSIVE_COUNT_TransactionMeta7___getitB9_
FNDA:0,_RNvNvNvNtNtCs47RmZobMba4_11stellar_xdr4curr9generateds6p_1__23RECURSIVE_COUNT_Uint2566___initB9_
FNDA:0,_RNvNvNvNtNtCs47RmZobMba4_11stellar_xdr4curr9generateds5B_1__33RECURSIVE_COUNT_ChangeTrustResult6___initB9_
FNDA:0,_RNvNvNvNtNtCs47RmZobMba4_11stellar_xdr4curr9generateds59_1__60RECURSIVE_COUNT_TransactionSignaturePayloadTaggedTransaction6___initB9_
FNDA:0,_RNvNvNvNtNtCs47RmZobMba4_11stellar_xdr4curr9generateds4g_1__39RECURSIVE_COUNT_ClaimClaimableBalanceOp6___initB9_
FNDA:0,_RNvNvNvNtNtCs47RmZobMba4_11stellar_xdr4curr9generateds29_1__54RECURSIVE_COUNT_LiquidityPoolConstantProductParameters7___getitB9_
FNDA:0,_RNvNvNvNtNtCs47RmZobMba4_11stellar_xdr4curr9generateds5H_1__31RECURSIVE_COUNT_InflationPayout6___initB9_
FNDA:0,_RNvNvNvNtNtCs47RmZobMba4_11stellar_xdr4curr9generateds4X_1__38RECURSIVE_COUNT_SorobanTransactionData7___getitB9_
FNDA:0,_RNvNvNvNtNtCs47RmZobMba4_11stellar_xdr4curr9generateds34_1__40RECURSIVE_COUNT_LedgerHeaderHistoryEntry6___initB9_
FNDA:0,_RNvNvNvNtNtCs47RmZobMba4_11stellar_xdr4curr9generateds6v_1__29RECURSIVE_COUNT_SignerKeyType6___initB9_
FNDA:0,_RNvNvNvNtNtCs47RmZobMba4_11stellar_xdr4curr9generateds4p_1__39RECURSIVE_COUNT_LiquidityPoolWithdrawOp6___initB9_
FNDA:0,_RNvNvNvNtNtCs47RmZobMba4_11stellar_xdr4curr9generateds22_1__38RECURSIVE_COUNT_ClaimableBalanceIdType7___getitB9_
FNDA:0,_RNvNvNvNtNtCs47RmZobMba4_11stellar_xdr4curr9generateds6w_1__25RECURSIVE_COUNT_PublicKey7___getitB9_
FNDA:0,_RNvNvNvNtNtCs47RmZobMba4_11stellar_xdr4curr9generateds34_1__40RECURSIVE_COUNT_LedgerHeaderHistoryEntry7___getitB9_
FNDA:0,_RNvNvNvNtNtCs47RmZobMba4_11stellar_xdr4curr9generatedsF_1__40RECURSIVE_COUNT_ScSpecUdtUnionCaseVoidV07___getitB9_
FNDA:0,_RNvNvNvNtNtCs47RmZobMba4_11stellar_xdr4curr9generateds3Z_1__28RECURSIVE_COUNT_MuxedAccount6___initB9_
FNDA:0,_RNvNvNvNtNtCs47RmZobMba4_11stellar_xdr4curr9generateds3b_1__29RECURSIVE_COUNT_OperationMeta7___getitB9_
FNDA:0,_RNvNvNvNtNtCs47RmZobMba4_11stellar_xdr4curr9generatedsh_1__48RECURSIVE_COUNT_ConfigSettingContractBandwidthV07___getitB9_
FNDA:0,_RNvNvNvNtNtCs47RmZobMba4_11stellar_xdr4curr9generateds3a_1__34RECURSIVE_COUNT_LedgerEntryChanges6___initB9_
FNDA:0,_RNvNvNvNtNtCs47RmZobMba4_11stellar_xdr4curr9generateds2G_1__31RECURSIVE_COUNT_LedgerHeaderExt7___getitB9_
FNDA:0,_RNvNvNvNtNtCs47RmZobMba4_11stellar_xdr4curr9generateds6g_1__37RECURSIVE_COUNT_TransactionResultCode7___getitB9_
FNDA:0,_RNvNvNvNtNtCs47RmZobMba4_11stellar_xdr4curr9generateds2H_1__28RECURSIVE_COUNT_LedgerHeader7___getitB9_
FNDA:0,_RNvNvNvNtNtCs47RmZobMba4_11stellar_xdr4curr9generateds39_1__33RECURSIVE_COUNT_LedgerEntryChange6___initB9_
FNDA:0,_RNvNvNvNtNtCs47RmZobMba4_11stellar_xdr4curr9generatedsI_1__36RECURSIVE_COUNT_ScSpecUdtUnionCaseV06___initB9_
FNDA:0,_RNvNvNvNtNtCs47RmZobMba4_11stellar_xdr4curr9generateds1u_1__21RECURSIVE_COUNT_Asset6___initB9_
FNDA:0,_RNvNvNvNtNtCs47RmZobMba4_11stellar_xdr4curr9generateds3J_1__37RECURSIVE_COUNT_SurveyResponseMessage6___initB9_
FNDA:0,_RNvNvNvNtNtCs47RmZobMba4_11stellar_xdr4curr9generateds4B_1__38RECURSIVE_COUNT_SorobanCredentialsType7___getitB9_
FNDA:0,_RNvNvNvNtNtCs47RmZobMba4_11stellar_xdr4curr9generateds1i_1__26RECURSIVE_COUNT_Thresholds6___initB9_
FNDA:0,_RNvNvNvNtNtCs47RmZobMba4_11stellar_xdr4curr9generateds24_1__37RECURSIVE_COUNT_ClaimableBalanceFlags7___getitB9_
FNDA:0,_RNvNvNvNtNtCs47RmZobMba4_11stellar_xdr4curr9generateds4C_1__34RECURSIVE_COUNT_SorobanCredentials6___initB9_
FNDA:0,_RNvNvNvNtNtCs47RmZobMba4_11stellar_xdr4curr9generateds2Y_1__36RECURSIVE_COUNT_TransactionResultSet7___getitB9_
FNDA:0,_RNvNvNvNtNtCs47RmZobMba4_11stellar_xdr4curr9generatedsB_1__29RECURSIVE_COUNT_ScSpecTypeUdt7___getitB9_
FNDA:0,_RNvNvNvNtNtCs47RmZobMba4_11stellar_xdr4curr9generateds2B_1__31RECURSIVE_COUNT_StellarValueExt6___initB9_
FNDA:0,_RNvNvNvNtNtCs47RmZobMba4_11stellar_xdr4curr9generateds5O_1__44RECURSIVE_COUNT_CreateClaimableBalanceResult7___getitB9_
FNDA:0,_RNvNvNvNtNtCs47RmZobMba4_11stellar_xdr4curr9generateds2d_1__38RECURSIVE_COUNT_ContractDataDurability7___getitB9_
FNDA:0,_RNvNvNvNtNtCs47RmZobMba4_11stellar_xdr4curr9generateds1o_1__26RECURSIVE_COUNT_AssetCode47___getitB9_
FNDA:0,_RNvNvNvNtNtCs47RmZobMba4_11stellar_xdr4curr9generateds3N_1__38RECURSIVE_COUNT_TopologyResponseBodyV06___initB9_
FNDA:0,_RNvNvNvNtNtCs47RmZobMba4_11stellar_xdr4curr9generateds5P_1__47RECURSIVE_COUNT_ClaimClaimableBalanceResultCode6___initB9_
FNDA:0,_RNvNvNvNtNtCs47RmZobMba4_11stellar_xdr4curr9generateds6G_1__29RECURSIVE_COUNT_HmacSha256Mac7___getitB9_
FNDA:0,_RNvNvNvNtNtCs47RmZobMba4_11stellar_xdr4curr9generateds1k_1__24RECURSIVE_COUNT_String647___getitB9_
FNDA:0,_RNvNvNvNtNtCs47RmZobMba4_11stellar_xdr4curr9generateds58_1__35RECURSIVE_COUNT_TransactionEnvelope7___getitB9_
FNDA:0,_RNvNvNvNtNtCs47RmZobMba4_11stellar_xdr4curr9generatedsS_1__25RECURSIVE_COUNT_ScValType7___getitB9_
FNDA:0,_RNvNvNvNtNtCs47RmZobMba4_11stellar_xdr4curr9generateds1l_1__30RECURSIVE_COUNT_SequenceNumber6___initB9_
FNDA:0,_RNvNvNvNtNtCs47RmZobMba4_11stellar_xdr4curr9generateds30_1__39RECURSIVE_COUNT_TransactionHistoryEntry6___initB9_
FNDA:0,_RNvNvNvNtNtCs47RmZobMba4_11stellar_xdr4curr9generatedsK_1__35RECURSIVE_COUNT_ScSpecUdtEnumCaseV07___getitB9_
FNDA:0,_RNvNvNvNtNtCs47RmZobMba4_11stellar_xdr4curr9generateds3R_1__27RECURSIVE_COUNT_FloodAdvert6___initB9_
FNDA:0,_RNvNvNvNtNtCs47RmZobMba4_11stellar_xdr4curr9generatedsT_1__27RECURSIVE_COUNT_ScErrorType6___initB9_
FNDA:0,_RNvNvNvNtNtCs47RmZobMba4_11stellar_xdr4curr9generateds2N_1__33RECURSIVE_COUNT_BucketMetadataExt7___getitB9_
FNDA:0,_RNvNvNvNtNtCs47RmZobMba4_11stellar_xdr4curr9generateds5j_1__29RECURSIVE_COUNT_PaymentResult6___initB9_
FNDA:0,_RNvNvNvNtNtCs47RmZobMba4_11stellar_xdr4curr9generateds28_1__37RECURSIVE_COUNT_ClaimableBalanceEntry6___initB9_
FNDA:0,_RNvNvNvNtNtCs47RmZobMba4_11stellar_xdr4curr9generateds1k_1__24RECURSIVE_COUNT_String646___initB9_
FNDA:0,_RNvNvNvNtNtCs47RmZobMba4_11stellar_xdr4curr9generateds4W_1__32RECURSIVE_COUNT_SorobanResources6___initB9_
FNDA:0,_RNvNvNvNtNtCs47RmZobMba4_11stellar_xdr4curr9generateds20_1__26RECURSIVE_COUNT_ClaimantV06___initB9_
FNDA:0,_RNvNvNvNtNtCs47RmZobMba4_11stellar_xdr4curr9generateds2W_1__41RECURSIVE_COUNT_GeneralizedTransactionSet7___getitB9_
FNDA:0,_RNvNvNvNtNtCs47RmZobMba4_11stellar_xdr4curr9generateds21_1__24RECURSIVE_COUNT_Claimant7___getitB9_
FNDA:0,_RNvNvNvNtNtCs47RmZobMba4_11stellar_xdr4curr9generateds67_1__44RECURSIVE_COUNT_InvokeHostFunctionResultCode6___initB9_
FNDA:0,_RNvNvNvNtNtCs47RmZobMba4_11stellar_xdr4curr9generateds2I_1__33RECURSIVE_COUNT_LedgerUpgradeType6___initB9_
FNDA:0,_RNvNvNvNtNtCs47RmZobMba4_11stellar_xdr4curr9generatedsO_1__37RECURSIVE_COUNT_ScSpecFunctionInputV07___getitB9_
FNDA:0,_RNvNvNvNtNtCs47RmZobMba4_11stellar_xdr4curr9generatedsp_1__29RECURSIVE_COUNT_ScEnvMetaKind7___getitB9_
FNDA:0,_RNvNvNvNtNtCs47RmZobMba4_11stellar_xdr4curr9generateds38_1__37RECURSIVE_COUNT_LedgerEntryChangeType7___getitB9_
FNDA:0,_RNvNvNvNtNtCs47RmZobMba4_11stellar_xdr4curr9generateds3C_1__27RECURSIVE_COUNT_MessageType6___initB9_
FNDA:0,_RNvNvNvNtNtCs47RmZobMba4_11stellar_xdr4curr9generateds2J_1__35RECURSIVE_COUNT_ConfigUpgradeSetKey6___initB9_
FNDA:0,_RNvNvNvNtNtCs47RmZobMba4_11stellar_xdr4curr9generateds2E_1__42RECURSIVE_COUNT_LedgerHeaderExtensionV1Ext6___initB9_
FNDA:0,_RNvNvNvNtNtCs47RmZobMba4_11stellar_xdr4curr9generateds3f_1__31RECURSIVE_COUNT_ContractEventV07___getitB9_
FNDA:0,_RNvNvNvNtNtCs47RmZobMba4_11stellar_xdr4curr9generateds3x_1__21RECURSIVE_COUNT_Hello7___getitB9_
FNDA:0,_RNvNvNvNtNtCs47RmZobMba4_11stellar_xdr4curr9generateds2L_1__32RECURSIVE_COUNT_ConfigUpgradeSet6___initB9_
FNDA:0,_RNvNvNvNtNtCs47RmZobMba4_11stellar_xdr4curr9generateds4_1__29RECURSIVE_COUNT_ScpNomination7___getitB9_
FNDA:0,_RNvNvNvNtNtCs47RmZobMba4_11stellar_xdr4curr9generateds22_1__38RECURSIVE_COUNT_ClaimableBalanceIdType6___initB9_
FNDA:0,_RNvNvNvNtNtCs47RmZobMba4_11stellar_xdr4curr9generateds23_1__34RECURSIVE_COUNT_ClaimableBalanceId7___getitB9_
FNDA:0,_RNvNvNvNtNtCs47RmZobMba4_11stellar_xdr4curr9generatedsB_1__29RECURSIVE_COUNT_ScSpecTypeUdt6___initB9_
FNDA:0,_RNvNvNvNtNtCs47RmZobMba4_11stellar_xdr4curr9generatedsK_1__35RECURSIVE_COUNT_ScSpecUdtEnumCaseV06___initB9_
FNDA:0,_RNvNvNvNtNtCs47RmZobMba4_11stellar_xdr4curr9generateds1F_1__42RECURSIVE_COUNT_AccountEntryExtensionV1Ext7___getitB9_
FNDA:0,_RNvNvNvNtNtCs47RmZobMba4_11stellar_xdr4curr9generateds2g_1__24RECURSIVE_COUNT_TtlEntry6___initB9_
FNDA:4,_RNvNvNvNtNtCs47RmZobMba4_11stellar_xdr4curr9generatedsU_1__27RECURSIVE_COUNT_ScErrorCode6___initB9_
FNDA:0,_RNvNvNvNtNtCs47RmZobMba4_11stellar_xdr4curr9generateds4i_1__37RECURSIVE_COUNT_RevokeSponsorshipType7___getitB9_
FNDA:0,_RNvNvNvNtNtCs47RmZobMba4_11stellar_xdr4curr9generatedsE_1__33RECURSIVE_COUNT_ScSpecUdtStructV06___initB9_
FNDA:0,_RNvNvNvNtNtCs47RmZobMba4_11stellar_xdr4curr9generateds2A_1__41RECURSIVE_COUNT_LedgerCloseValueSignature7___getitB9_
FNDA:0,_RNvNvNvNtNtCs47RmZobMba4_11stellar_xdr4curr9generateds1B_1__37RECURSIVE_COUNT_SponsorshipDescriptor7___getitB9_
FNDA:0,_RNvNvNvNtNtCs47RmZobMba4_11stellar_xdr4curr9generateds5f_1__25RECURSIVE_COUNT_ClaimAtom6___initB9_
FNDA:0,_RNvNvNvNtNtCs47RmZobMba4_11stellar_xdr4curr9generatedsk_1__37RECURSIVE_COUNT_StateArchivalSettings7___getitB9_
FNDA:0,_RNvNvNvNtNtCs47RmZobMba4_11stellar_xdr4curr9generatedsg_1__45RECURSIVE_COUNT_ConfigSettingContractEventsV07___getitB9_
FNDA:0,_RNvNvNvNtNtCs47RmZobMba4_11stellar_xdr4curr9generateds54_1__41RECURSIVE_COUNT_FeeBumpTransactionInnerTx6___initB9_
FNDA:0,_RNvNvNvNtNtCs47RmZobMba4_11stellar_xdr4curr9generateds1M_1__44RECURSIVE_COUNT_TrustLineEntryExtensionV2Ext7___getitB9_
FNDA:0,_RNvNvNvNtNtCs47RmZobMba4_11stellar_xdr4curr9generateds3D_1__24RECURSIVE_COUNT_DontHave6___initB9_
FNDA:0,_RNvNvNvNtNtCs47RmZobMba4_11stellar_xdr4curr9generateds5Y_1__30RECURSIVE_COUNT_ClawbackResult6___initB9_
FNDA:0,_RNvNvNvNtNtCs47RmZobMba4_11stellar_xdr4curr9generateds1d_1__36RECURSIVE_COUNT_StoredTransactionSet7___getitB9_
FNDA:0,_RNvNvNvNtNtCs47RmZobMba4_11stellar_xdr4curr9generateds4R_1__28RECURSIVE_COUNT_LedgerBounds7___getitB9_
FNDA:0,_RNvNvNvNtNtCs47RmZobMba4_11stellar_xdr4curr9generateds4M_1__50RECURSIVE_COUNT_HashIdPreimageSorobanAuthorization7___getitB9_
FNDA:0,_RNvNvNvNtNtCs47RmZobMba4_11stellar_xdr4curr9generateds2L_1__32RECURSIVE_COUNT_ConfigUpgradeSet7___getitB9_
FNDA:0,_RNvNvNvNtNtCs47RmZobMba4_11stellar_xdr4curr9generateds6_1__35RECURSIVE_COUNT_ScpStatementConfirm7___getitB9_
FNDA:0,_RNvNvNvNtNtCs47RmZobMba4_11stellar_xdr4curr9generateds1H_1__31RECURSIVE_COUNT_AccountEntryExt7___getitB9_
FNDA:0,_RNvNvNvNtNtCs47RmZobMba4_11stellar_xdr4curr9generateds5a_1__43RECURSIVE_COUNT_TransactionSignaturePayload6___initB9_
FNDA:0,_RNvNvNvNtNtCs47RmZobMba4_11stellar_xdr4curr9generateds2Y_1__36RECURSIVE_COUNT_TransactionResultSet6___initB9_
FNDA:0,_RNvNvNvNtNtCs47RmZobMba4_11stellar_xdr4curr9generateds39_1__33RECURSIVE_COUNT_LedgerEntryChange7___getitB9_
FNDA:0,_RNvNvNvNtNtCs47RmZobMba4_11stellar_xdr4curr9generateds4k_1__35RECURSIVE_COUNT_RevokeSponsorshipOp6___initB9_
FNDA:0,_RNvNvNvNtNtCs47RmZobMba4_11stellar_xdr4curr9generateds35_1__33RECURSIVE_COUNT_LedgerScpMessages6___initB9_
FNDA:0,_RNvNvNvNtNtCs47RmZobMba4_11stellar_xdr4curr9generatedsm_1__34RECURSIVE_COUNT_ContractCostParams6___initB9_
FNDA:0,_RNvNvNvNtNtCs47RmZobMba4_11stellar_xdr4curr9generateds1p_1__27RECURSIVE_COUNT_AssetCode127___getitB9_
FNDA:0,_RNvNvNvNtNtCs47RmZobMba4_11stellar_xdr4curr9generateds4c_1__28RECURSIVE_COUNT_AllowTrustOp7___getitB9_
FNDA:0,_RNvNvNvNtNtCs47RmZobMba4_11stellar_xdr4curr9generateds4d_1__28RECURSIVE_COUNT_ManageDataOp6___initB9_
FNDA:0,_RNvNvNvNtNtCs47RmZobMba4_11stellar_xdr4curr9generateds5T_1__53RECURSIVE_COUNT_EndSponsoringFutureReservesResultCode6___initB9_
FNDA:0,_RNvNvNvNtNtCs47RmZobMba4_11stellar_xdr4curr9generateds8_1__35RECURSIVE_COUNT_ScpStatementPledges7___getitB9_
FNDA:0,_RNvNvNvNtNtCs47RmZobMba4_11stellar_xdr4curr9generatedsi_1__32RECURSIVE_COUNT_ContractCostType7___getitB9_
FNDA:0,_RNvNvNvNtNtCs47RmZobMba4_11stellar_xdr4curr9generateds6o_1__20RECURSIVE_COUNT_Hash6___initB9_
FNDA:0,_RNvNvNvNtNtCs47RmZobMba4_11stellar_xdr4curr9generateds2A_1__41RECURSIVE_COUNT_LedgerCloseValueSignature6___initB9_
FNDA:0,_RNvNvNvNtNtCs47RmZobMba4_11stellar_xdr4curr9generateds3H_1__42RECURSIVE_COUNT_SignedSurveyRequestMessage6___initB9_
FNDA:0,_RNvNvNvNtNtCs47RmZobMba4_11stellar_xdr4curr9generateds3B_1__27RECURSIVE_COUNT_PeerAddress6___initB9_
FNDA:0,_RNvNvNvNtNtCs47RmZobMba4_11stellar_xdr4curr9generateds50_1__37RECURSIVE_COUNT_TransactionV0Envelope7___getitB9_
FNDA:0,_RNvNvNvNtNtCs47RmZobMba4_11stellar_xdr4curr9generateds3T_1__27RECURSIVE_COUNT_FloodDemand7___getitB9_
FNDA:0,_RNvNvNvNtNtCs47RmZobMba4_11stellar_xdr4curr9generatedse_1__49RECURSIVE_COUNT_ConfigSettingContractLedgerCostV07___getitB9_
FNDA:0,_RNvNvNvNtNtCs47RmZobMba4_11stellar_xdr4curr9generateds1v_1__21RECURSIVE_COUNT_Price6___initB9_
FNDA:0,_RNvNvNvNtNtCs47RmZobMba4_11stellar_xdr4curr9generateds1Q_1__33RECURSIVE_COUNT_TrustLineEntryExt6___initB9_
FNDA:0,_RNvNvNvNtNtCs47RmZobMba4_11stellar_xdr4curr9generateds1j_1__24RECURSIVE_COUNT_String326___initB9_
FNDA:0,_RNvNvNvNtNtCs47RmZobMba4_11stellar_xdr4curr9generateds6i_1__41RECURSIVE_COUNT_InnerTransactionResultExt7___getitB9_
FNDA:0,_RNvNvNvNtNtCs47RmZobMba4_11stellar_xdr4curr9generateds6y_1__25RECURSIVE_COUNT_SignerKey7___getitB9_
FNDA:0,_RNvNvNvNtNtCs47RmZobMba4_11stellar_xdr4curr9generateds6u_1__29RECURSIVE_COUNT_PublicKeyType6___initB9_
FNDA:0,_RNvNvNvNtNtCs47RmZobMba4_11stellar_xdr4curr9generateds0_1__23RECURSIVE_COUNT_StringM7___getitB9_
FNDA:0,_RNvNvNvNtNtCs47RmZobMba4_11stellar_xdr4curr9generateds3v_1__32RECURSIVE_COUNT_SendMoreExtended7___getitB9_
FNDA:0,_RNvNvNvNtNtCs47RmZobMba4_11stellar_xdr4curr9generateds21_1__24RECURSIVE_COUNT_Claimant6___initB9_
FNDA:0,_RNvNvNvNtNtCs47RmZobMba4_11stellar_xdr4curr9generateds1n_1__22RECURSIVE_COUNT_PoolId6___initB9_
FNDA:0,_RNvNvNvNtNtCs47RmZobMba4_11stellar_xdr4curr9generateds43_1__25RECURSIVE_COUNT_PaymentOp7___getitB9_
FNDA:0,_RNvNvNvNtNtCs47RmZobMba4_11stellar_xdr4curr9generateds5R_1__55RECURSIVE_COUNT_BeginSponsoringFutureReservesResultCode6___initB9_
FNDA:0,_RNvNvNvNtNtCs47RmZobMba4_11stellar_xdr4curr9generateds65_1__47RECURSIVE_COUNT_LiquidityPoolWithdrawResultCode7___getitB9_
FNDA:0,_RNvNvNvNtNtCs47RmZobMba4_11stellar_xdr4curr9generateds3r_1__31RECURSIVE_COUNT_LedgerCloseMeta6___initB9_
FNDA:0,_RNvNvNvNtNtCs47RmZobMba4_11stellar_xdr4curr9generateds2B_1__31RECURSIVE_COUNT_StellarValueExt7___getitB9_
FNDA:0,_RNvNvNvNtNtCs47RmZobMba4_11stellar_xdr4curr9generateds4g_1__39RECURSIVE_COUNT_ClaimClaimableBalanceOp7___getitB9_
FNDA:0,_RNvNvNvNtNtCs47RmZobMba4_11stellar_xdr4curr9generateds3N_1__38RECURSIVE_COUNT_TopologyResponseBodyV07___getitB9_
FNDA:0,_RNvNvNvNtNtCs47RmZobMba4_11stellar_xdr4curr9generatedsf_1__53RECURSIVE_COUNT_ConfigSettingContractHistoricalDataV07___getitB9_
FNDA:0,_RNvNvNvNtNtCs47RmZobMba4_11stellar_xdr4curr9generateds2P_1__27RECURSIVE_COUNT_BucketEntry7___getitB9_
FNDA:0,_RNvNvNvNtNtCs47RmZobMba4_11stellar_xdr4curr9generatedsk_1__37RECURSIVE_COUNT_StateArchivalSettings6___initB9_
FNDA:0,_RNvNvNvNtNtCs47RmZobMba4_11stellar_xdr4curr9generateds4W_1__32RECURSIVE_COUNT_SorobanResources7___getitB9_
FNDA:0,_RNvNvNvNtNtCs47RmZobMba4_11stellar_xdr4curr9generatedsg_1__45RECURSIVE_COUNT_ConfigSettingContractEventsV06___initB9_
FNDA:0,_RNvNvNvNtNtCs47RmZobMba4_11stellar_xdr4curr9generateds62_1__39RECURSIVE_COUNT_SetTrustLineFlagsResult6___initB9_
FNDA:0,_RNvNvNvNtNtCs47RmZobMba4_11stellar_xdr4curr9generateds31_1__48RECURSIVE_COUNT_TransactionHistoryResultEntryExt7___getitB9_
FNDA:0,_RNvNvNvNtNtCs47RmZobMba4_11stellar_xdr4curr9generateds67_1__44RECURSIVE_COUNT_InvokeHostFunctionResultCode7___getitB9_
FNDA:0,_RNvNvNvNtNtCs47RmZobMba4_11stellar_xdr4curr9generateds3l_1__49RECURSIVE_COUNT_InvokeHostFunctionSuccessPreImage6___initB9_
FNDA:0,_RNvNvNvNtNtCs47RmZobMba4_11stellar_xdr4curr9generateds6a_1__40RECURSIVE_COUNT_ExtendFootprintTtlResult7___getitB9_
FNDA:0,_RNvNvNvNtNtCs47RmZobMba4_11stellar_xdr4curr9generateds61_1__43RECURSIVE_COUNT_SetTrustLineFlagsResultCode7___getitB9_
FNDA:0,_RNvNvNvNtNtCs47RmZobMba4_11stellar_xdr4curr9generateds4A_1__41RECURSIVE_COUNT_SorobanAddressCredentials6___initB9_
FNDA:0,_RNvNvNvNtNtCs47RmZobMba4_11stellar_xdr4curr9generateds4u_1__34RECURSIVE_COUNT_CreateContractArgs7___getitB9_
FNDA:0,_RNvNvNvNtNtCs47RmZobMba4_11stellar_xdr4curr9generateds45_1__39RECURSIVE_COUNT_PathPaymentStrictSendOp7___getitB9_
FNDA:0,_RNvNvNvNtNtCs47RmZobMba4_11stellar_xdr4curr9generatedse_1__49RECURSIVE_COUNT_ConfigSettingContractLedgerCostV06___initB9_
FNDA:0,_RNvNvNvNtNtCs47RmZobMba4_11stellar_xdr4curr9generateds5I_1__31RECURSIVE_COUNT_InflationResult7___getitB9_
FNDA:0,_RNvNvNvNtNtCs47RmZobMba4_11stellar_xdr4curr9generateds4K_1__38RECURSIVE_COUNT_HashIdPreimageRevokeId6___initB9_
FNDA:0,_RNvNvNvNtNtCs47RmZobMba4_11stellar_xdr4curr9generateds1K_1__33RECURSIVE_COUNT_LiquidityPoolType7___getitB9_
FNDA:0,_RNvNvNvNtNtCs47RmZobMba4_11stellar_xdr4curr9generateds2t_1__37RECURSIVE_COUNT_LedgerKeyContractCode6___initB9_
FNDA:0,_RNvNvNvNtNtCs47RmZobMba4_11stellar_xdr4curr9generateds4Q_1__26RECURSIVE_COUNT_TimeBounds6___initB9_
FNDA:0,_RNvNvNvNtNtCs47RmZobMba4_11stellar_xdr4curr9generateds4i_1__37RECURSIVE_COUNT_RevokeSponsorshipType6___initB9_
FNDA:0,_RNvNvNvNtNtCs47RmZobMba4_11stellar_xdr4curr9generateds2X_1__37RECURSIVE_COUNT_TransactionResultPair7___getitB9_
FNDA:0,_RNvNvNvNtNtCs47RmZobMba4_11stellar_xdr4curr9generatedsR_1__27RECURSIVE_COUNT_ScSpecEntry6___initB9_
FNDA:0,_RNvNvNvNtNtCs47RmZobMba4_11stellar_xdr4curr9generatedsP_1__32RECURSIVE_COUNT_ScSpecFunctionV07___getitB9_
FNDA:0,_RNvNvNvNtNtCs47RmZobMba4_11stellar_xdr4curr9generateds_1__22RECURSIVE_COUNT_BytesM7___getitB9_
FNDA:0,_RNvNvNvNtNtCs47RmZobMba4_11stellar_xdr4curr9generateds9_1__28RECURSIVE_COUNT_ScpStatement7___getitB9_
FNDA:0,_RNvNvNvNtNtCs47RmZobMba4_11stellar_xdr4curr9generateds2F_1__39RECURSIVE_COUNT_LedgerHeaderExtensionV16___initB9_
FNDA:0,_RNvNvNvNtNtCs47RmZobMba4_11stellar_xdr4curr9generatedsa_1__27RECURSIVE_COUNT_ScpEnvelope6___initB9_
FNDA:0,_RNvNvNvNtNtCs47RmZobMba4_11stellar_xdr4curr9generateds2Q_1__34RECURSIVE_COUNT_TxSetComponentType6___initB9_
FNDA:0,_RNvNvNvNtNtCs47RmZobMba4_11stellar_xdr4curr9generatedsH_1__40RECURSIVE_COUNT_ScSpecUdtUnionCaseV0Kind6___initB9_
FNDA:0,_RNvNvNvNtNtCs47RmZobMba4_11stellar_xdr4curr9generateds0_1__23RECURSIVE_COUNT_StringM6___initB9_
FNDA:0,_RNvNvNvNtNtCs47RmZobMba4_11stellar_xdr4curr9generateds3Q_1__30RECURSIVE_COUNT_TxAdvertVector7___getitB9_
FNDA:0,_RNvNvNvNtNtCs47RmZobMba4_11stellar_xdr4curr9generateds20_1__26RECURSIVE_COUNT_ClaimantV07___getitB9_
FNDA:0,_RNvNvNvNtNtCs47RmZobMba4_11stellar_xdr4curr9generateds1L_1__30RECURSIVE_COUNT_TrustLineAsset6___initB9_
FNDA:0,_RNvNvNvNtNtCs47RmZobMba4_11stellar_xdr4curr9generateds5I_1__31RECURSIVE_COUNT_InflationResult6___initB9_
FNDA:0,_RNvNvNvNtNtCs47RmZobMba4_11stellar_xdr4curr9generateds4x_1__45RECURSIVE_COUNT_SorobanAuthorizedFunctionType7___getitB9_
FNDA:0,_RNvNvNvNtNtCs47RmZobMba4_11stellar_xdr4curr9generateds6t_1__29RECURSIVE_COUNT_CryptoKeyType6___initB9_
FNDA:0,_RNvNvNvNtNtCs47RmZobMba4_11stellar_xdr4curr9generateds18_1__24RECURSIVE_COUNT_ScSymbol6___initB9_
FNDA:0,_RNvNvNvNtNtCs47RmZobMba4_11stellar_xdr4curr9generateds11_1__34RECURSIVE_COUNT_ContractExecutable6___initB9_
FNDA:0,_RNvNvNvNtNtCs47RmZobMba4_11stellar_xdr4curr9generateds2o_1__30RECURSIVE_COUNT_LedgerKeyOffer6___initB9_
FNDA:0,_RNvNvNvNtNtCs47RmZobMba4_11stellar_xdr4curr9generateds4V_1__31RECURSIVE_COUNT_LedgerFootprint6___initB9_
FNDA:0,_RNvNvNvNtNtCs47RmZobMba4_11stellar_xdr4curr9generateds1U_1__26RECURSIVE_COUNT_OfferEntry7___getitB9_
FNDA:0,_RNvNvNvNtNtCs47RmZobMba4_11stellar_xdr4curr9generatedsj_1__38RECURSIVE_COUNT_ContractCostParamEntry7___getitB9_
FNDA:0,_RNvNvNvNtNtCs47RmZobMba4_11stellar_xdr4curr9generateds37_1__31RECURSIVE_COUNT_ScpHistoryEntry7___getitB9_
FNDA:0,_RNvNvNvNtNtCs47RmZobMba4_11stellar_xdr4curr9generateds6b_1__42RECURSIVE_COUNT_RestoreFootprintResultCode7___getitB9_
FNDA:0,_RNvNvNvNtNtCs47RmZobMba4_11stellar_xdr4curr9generateds5U_1__49RECURSIVE_COUNT_EndSponsoringFutureReservesResult6___initB9_
FNDA:0,_RNvNvNvNtNtCs47RmZobMba4_11stellar_xdr4curr9generateds6A_1__29RECURSIVE_COUNT_SignatureHint6___initB9_
FNDA:0,_RNvNvNvNtNtCs47RmZobMba4_11stellar_xdr4curr9generateds5d_1__30RECURSIVE_COUNT_ClaimOfferAtom6___initB9_
FNDA:0,_RNvNvNvNtNtCs47RmZobMba4_11stellar_xdr4curr9generateds4U_1__29RECURSIVE_COUNT_Preconditions6___initB9_
FNDA:0,_RNvNvNvNtNtCs47RmZobMba4_11stellar_xdr4curr9generateds2c_1__34RECURSIVE_COUNT_LiquidityPoolEntry6___initB9_
FNDA:0,_RNvNvNvNtNtCs47RmZobMba4_11stellar_xdr4curr9generateds2T_1__32RECURSIVE_COUNT_TransactionPhase7___getitB9_
FNDA:0,_RNvNvNvNtNtCs47RmZobMba4_11stellar_xdr4curr9generateds6n_1__33RECURSIVE_COUNT_TransactionResult6___initB9_
FNDA:0,_RNvNvNvNtNtCs47RmZobMba4_11stellar_xdr4curr9generatedsn_1__31RECURSIVE_COUNT_ConfigSettingId6___initB9_
FNDA:0,_RNvNvNvNtNtCs47RmZobMba4_11stellar_xdr4curr9generateds4s_1__45RECURSIVE_COUNT_ContractIdPreimageFromAddress7___getitB9_
FNDA:0,_RNvNvNvNtNtCs47RmZobMba4_11stellar_xdr4curr9generateds6j_1__38RECURSIVE_COUNT_InnerTransactionResult7___getitB9_
FNDA:0,_RNvNvNvNtNtCs47RmZobMba4_11stellar_xdr4curr9generateds1r_1__25RECURSIVE_COUNT_AssetCode6___initB9_
FNDA:0,_RNvNvNvNtNtCs47RmZobMba4_11stellar_xdr4curr9generateds3_1__32RECURSIVE_COUNT_ScpStatementType6___initB9_
FNDA:0,_RNvNvNvNtNtCs47RmZobMba4_11stellar_xdr4curr9generateds4X_1__38RECURSIVE_COUNT_SorobanTransactionData6___initB9_
FNDA:0,_RNvNvNvNtNtCs47RmZobMba4_11stellar_xdr4curr9generatedsJ_1__32RECURSIVE_COUNT_ScSpecUdtUnionV07___getitB9_
FNDA:4,_RNvNvNvNtNtCs47RmZobMba4_11stellar_xdr4curr9generatedsV_1__23RECURSIVE_COUNT_ScError6___initB9_
FNDA:0,_RNvNvNvNtNtCs47RmZobMba4_11stellar_xdr4curr9generateds1g_1__35RECURSIVE_COUNT_PersistedScpStateV17___getitB9_
FNDA:0,_RNvNvNvNtNtCs47RmZobMba4_11stellar_xdr4curr9generateds4J_1__41RECURSIVE_COUNT_HashIdPreimageOperationId7___getitB9_
FNDA:0,_RNvNvNvNtNtCs47RmZobMba4_11stellar_xdr4curr9generateds5G_1__35RECURSIVE_COUNT_InflationResultCode7___getitB9_
FNDA:0,_RNvNvNvNtNtCs47RmZobMba4_11stellar_xdr4curr9generateds6m_1__36RECURSIVE_COUNT_TransactionResultExt7___getitB9_
FNDA:0,_RNvNvNvNtNtCs47RmZobMba4_11stellar_xdr4curr9generatedsD_1__38RECURSIVE_COUNT_ScSpecUdtStructFieldV06___initB9_
FNDA:0,_RNvNvNvNtNtCs47RmZobMba4_11stellar_xdr4curr9generateds2y_1__27RECURSIVE_COUNT_UpgradeType7___getitB9_
FNDA:0,_RNvNvNvNtNtCs47RmZobMba4_11stellar_xdr4curr9generateds3j_1__38RECURSIVE_COUNT_SorobanTransactionMeta7___getitB9_
FNDA:0,_RNvNvNvNtNtCs47RmZobMba4_11stellar_xdr4curr9generateds4y_1__41RECURSIVE_COUNT_SorobanAuthorizedFunction6___initB9_
FNDA:0,_RNvNvNvNtNtCs47RmZobMba4_11stellar_xdr4curr9generateds6u_1__29RECURSIVE_COUNT_PublicKeyType7___getitB9_
FNDA:0,_RNvNvNvNtNtCs47RmZobMba4_11stellar_xdr4curr9generateds3G_1__36RECURSIVE_COUNT_SurveyRequestMessage7___getitB9_
FNDA:0,_RNvNvNvNtNtCs47RmZobMba4_11stellar_xdr4curr9generateds4m_1__42RECURSIVE_COUNT_ClawbackClaimableBalanceOp6___initB9_
FNDA:0,_RNvNvNvNtNtCs47RmZobMba4_11stellar_xdr4curr9generateds9_1__28RECURSIVE_COUNT_ScpStatement6___initB9_
FNDA:0,_RNvNvNvNtNtCs47RmZobMba4_11stellar_xdr4curr9generateds3q_1__33RECURSIVE_COUNT_LedgerCloseMetaV17___getitB9_
FNDA:0,_RNvNvNvNtNtCs47RmZobMba4_11stellar_xdr4curr9generatedsj_1__38RECURSIVE_COUNT_ContractCostParamEntry6___initB9_
FNDA:0,_RNvNvNvNtNtCs47RmZobMba4_11stellar_xdr4curr9generateds5R_1__55RECURSIVE_COUNT_BeginSponsoringFutureReservesResultCode7___getitB9_
FNDA:0,_RNvNvNvNtNtCs47RmZobMba4_11stellar_xdr4curr9generateds6e_1__33RECURSIVE_COUNT_OperationResultTr7___getitB9_
FNDA:0,_RNvNvNvNtNtCs47RmZobMba4_11stellar_xdr4curr9generateds2x_1__28RECURSIVE_COUNT_EnvelopeType7___getitB9_
FNDA:0,_RNvNvNvNtNtCs47RmZobMba4_11stellar_xdr4curr9generateds6x_1__45RECURSIVE_COUNT_SignerKeyEd25519SignedPayload7___getitB9_
FNDA:0,_RNvNvNvNtNtCs47RmZobMba4_11stellar_xdr4curr9generateds3p_1__33RECURSIVE_COUNT_LedgerCloseMetaV07___getitB9_
FNDA:0,_RNvNvNvNtNtCs47RmZobMba4_11stellar_xdr4curr9generateds6c_1__38RECURSIVE_COUNT_RestoreFootprintResult7___getitB9_
FNDA:0,_RNvNvNvNtNtCs47RmZobMba4_11stellar_xdr4curr9generateds3Q_1__30RECURSIVE_COUNT_TxAdvertVector6___initB9_
FNDA:0,_RNvNvNvNtNtCs47RmZobMba4_11stellar_xdr4curr9generateds4B_1__38RECURSIVE_COUNT_SorobanCredentialsType6___initB9_
FNDA:0,_RNvNvNvNtNtCs47RmZobMba4_11stellar_xdr4curr9generateds38_1__37RECURSIVE_COUNT_LedgerEntryChangeType6___initB9_
FNDA:0,_RNvNvNvNtNtCs47RmZobMba4_11stellar_xdr4curr9generateds4L_1__40RECURSIVE_COUNT_HashIdPreimageContractId7___getitB9_
FNDA:0,_RNvNvNvNtNtCs47RmZobMba4_11stellar_xdr4curr9generateds3I_1__29RECURSIVE_COUNT_EncryptedBody7___getitB9_
FNDA:0,_RNvNvNvNtNtCs47RmZobMba4_11stellar_xdr4curr9generateds5N_1__48RECURSIVE_COUNT_CreateClaimableBalanceResultCode6___initB9_
FNDA:0,_RNvNvNvNtNtCs47RmZobMba4_11stellar_xdr4curr9generateds2K_1__29RECURSIVE_COUNT_LedgerUpgrade7___getitB9_
FNDA:0,_RNvNvNvNtNtCs47RmZobMba4_11stellar_xdr4curr9generateds2f_1__33RECURSIVE_COUNT_ContractCodeEntry7___getitB9_
FNDA:0,_RNvNvNvNtNtCs47RmZobMba4_11stellar_xdr4curr9generateds2n_1__34RECURSIVE_COUNT_LedgerKeyTrustLine6___initB9_
FNDA:0,_RNvNvNvNtNtCs47RmZobMba4_11stellar_xdr4curr9generateds1s_1__25RECURSIVE_COUNT_AlphaNum47___getitB9_
FNDA:0,_RNvNvNvNtNtCs47RmZobMba4_11stellar_xdr4curr9generateds3E_1__40RECURSIVE_COUNT_SurveyMessageCommandType7___getitB9_
FNDA:0,_RNvNvNvNtNtCs47RmZobMba4_11stellar_xdr4curr9generateds3V_1__38RECURSIVE_COUNT_AuthenticatedMessageV06___initB9_
FNDA:0,_RNvNvNvNtNtCs47RmZobMba4_11stellar_xdr4curr9generateds3P_1__34RECURSIVE_COUNT_SurveyResponseBody6___initB9_
FNDA:0,_RNvNvNvNtNtCs47RmZobMba4_11stellar_xdr4curr9generateds1S_1__31RECURSIVE_COUNT_OfferEntryFlags6___initB9_
FNDA:0,_RNvNvNvNtNtCs47RmZobMba4_11stellar_xdr4curr9generated1__20RECURSIVE_COUNT_VecM6___initB9_
FNDA:0,_RNvNvNvNtNtCs47RmZobMba4_11stellar_xdr4curr9generatedsQ_1__31RECURSIVE_COUNT_ScSpecEntryKind6___initB9_
FNDA:0,_RNvNvNvNtNtCs47RmZobMba4_11stellar_xdr4curr9generateds4p_1__39RECURSIVE_COUNT_LiquidityPoolWithdrawOp7___getitB9_
FNDA:0,_RNvNvNvNtNtCs47RmZobMba4_11stellar_xdr4curr9generateds5o_1__47RECURSIVE_COUNT_PathPaymentStrictSendResultCode7___getitB9_
FNDA:0,_RNvNvNvNtNtCs47RmZobMba4_11stellar_xdr4curr9generateds6z_1__25RECURSIVE_COUNT_Signature6___initB9_
FNDA:0,_RNvNvNvNtNtCs47RmZobMba4_11stellar_xdr4curr9generateds69_1__44RECURSIVE_COUNT_ExtendFootprintTtlResultCode6___initB9_
FNDA:0,_RNvNvNvNtNtCs47RmZobMba4_11stellar_xdr4curr9generateds66_1__43RECURSIVE_COUNT_LiquidityPoolWithdrawResult6___initB9_
FNDA:0,_RNvNvNvNtNtCs47RmZobMba4_11stellar_xdr4curr9generateds2b_1__38RECURSIVE_COUNT_LiquidityPoolEntryBody6___initB9_
FNDA:0,_RNvNvNvNtNtCs47RmZobMba4_11stellar_xdr4curr9generateds32_1__45RECURSIVE_COUNT_TransactionHistoryResultEntry6___initB9_
FNDA:0,_RNvNvNvNtNtCs47RmZobMba4_11stellar_xdr4curr9generatedsx_1__29RECURSIVE_COUNT_ScSpecTypeVec7___getitB9_
FNDA:0,_RNvNvNvNtNtCs47RmZobMba4_11stellar_xdr4curr9generateds5b_1__29RECURSIVE_COUNT_ClaimAtomType7___getitB9_
FNDA:0,_RNvNvNvNtNtCs47RmZobMba4_11stellar_xdr4curr9generateds4o_1__38RECURSIVE_COUNT_LiquidityPoolDepositOp6___initB9_
FNDA:0,_RNvNvNvNtNtCs47RmZobMba4_11stellar_xdr4curr9generateds3a_1__34RECURSIVE_COUNT_LedgerEntryChanges7___getitB9_
FNDA:0,_RNvNvNvNtNtCs47RmZobMba4_11stellar_xdr4curr9generateds3R_1__27RECURSIVE_COUNT_FloodAdvert7___getitB9_
FNDA:0,_RNvNvNvNtNtCs47RmZobMba4_11stellar_xdr4curr9generateds5y_1__36RECURSIVE_COUNT_SetOptionsResultCode7___getitB9_
FNDA:0,_RNvNvNvNtNtCs47RmZobMba4_11stellar_xdr4curr9generateds4v_1__34RECURSIVE_COUNT_InvokeContractArgs6___initB9_
FNDA:0,_RNvNvNvNtNtCs47RmZobMba4_11stellar_xdr4curr9generateds2S_1__30RECURSIVE_COUNT_TxSetComponent6___initB9_
FNDA:0,_RNvNvNvNtNtCs47RmZobMba4_11stellar_xdr4curr9generateds2u_1__38RECURSIVE_COUNT_LedgerKeyConfigSetting6___initB9_
FNDA:0,_RNvNvNvNtNtCs47RmZobMba4_11stellar_xdr4curr9generateds1u_1__21RECURSIVE_COUNT_Asset7___getitB9_
FNDA:0,_RNvNvNvNtNtCs47RmZobMba4_11stellar_xdr4curr9generateds6s_1__30RECURSIVE_COUNT_ExtensionPoint7___getitB9_
FNDA:0,_RNvNvNvNtNtCs47RmZobMba4_11stellar_xdr4curr9generateds2u_1__38RECURSIVE_COUNT_LedgerKeyConfigSetting7___getitB9_
FNDA:0,_RNvNvNvNtNtCs47RmZobMba4_11stellar_xdr4curr9generatedsC_1__29RECURSIVE_COUNT_ScSpecTypeDef7___getitB9_
FNDA:0,_RNvNvNvNtNtCs47RmZobMba4_11stellar_xdr4curr9generateds1N_1__41RECURSIVE_COUNT_TrustLineEntryExtensionV27___getitB9_
FNDA:0,_RNvNvNvNtNtCs47RmZobMba4_11stellar_xdr4curr9generateds1U_1__26RECURSIVE_COUNT_OfferEntry6___initB9_
FNDA:0,_RNvNvNvNtNtCs47RmZobMba4_11stellar_xdr4curr9generateds2K_1__29RECURSIVE_COUNT_LedgerUpgrade6___initB9_
FNDA:0,_RNvNvNvNtNtCs47RmZobMba4_11stellar_xdr4curr9generateds4j_1__41RECURSIVE_COUNT_RevokeSponsorshipOpSigner6___initB9_
FNDA:0,_RNvNvNvNtNtCs47RmZobMba4_11stellar_xdr4curr9generateds1b_1__21RECURSIVE_COUNT_ScVal7___getitB9_
FNDA:0,_RNvNvNvNtNtCs47RmZobMba4_11stellar_xdr4curr9generateds26_1__48RECURSIVE_COUNT_ClaimableBalanceEntryExtensionV16___initB9_
FNDA:0,_RNvNvNvNtNtCs47RmZobMba4_11stellar_xdr4curr9generateds2O_1__30RECURSIVE_COUNT_BucketMetadata6___initB9_
FNDA:0,_RNvNvNvNtNtCs47RmZobMba4_11stellar_xdr4curr9generateds3h_1__29RECURSIVE_COUNT_ContractEvent6___initB9_
FNDA:0,_RNvNvNvNtNtCs47RmZobMba4_11stellar_xdr4curr9generateds2i_1__38RECURSIVE_COUNT_LedgerEntryExtensionV16___initB9_
FNDA:0,_RNvNvNvNtNtCs47RmZobMba4_11stellar_xdr4curr9generateds5v_1__37RECURSIVE_COUNT_ManageSellOfferResult7___getitB9_
FNDA:0,_RNvNvNvNtNtCs47RmZobMba4_11stellar_xdr4curr9generateds3p_1__33RECURSIVE_COUNT_LedgerCloseMetaV06___initB9_
FNDA:0,_RNvNvNvNtNtCs47RmZobMba4_11stellar_xdr4curr9generatedsx_1__29RECURSIVE_COUNT_ScSpecTypeVec6___initB9_
FNDA:0,_RNvNvNvNtNtCs47RmZobMba4_11stellar_xdr4curr9generateds25_1__51RECURSIVE_COUNT_ClaimableBalanceEntryExtensionV1Ext6___initB9_
FNDA:0,_RNvNvNvNtNtCs47RmZobMba4_11stellar_xdr4curr9generateds3w_1__24RECURSIVE_COUNT_AuthCert7___getitB9_
FNDA:0,_RNvNvNvNtNtCs47RmZobMba4_11stellar_xdr4curr9generateds43_1__25RECURSIVE_COUNT_PaymentOp6___initB9_
FNDA:0,_RNvNvNvNtNtCs47RmZobMba4_11stellar_xdr4curr9generatedsc_1__53RECURSIVE_COUNT_ConfigSettingContractExecutionLanesV06___initB9_
FNDA:0,_RNvNvNvNtNtCs47RmZobMba4_11stellar_xdr4curr9generatedsZ_1__27RECURSIVE_COUNT_Int256Parts6___initB9_
FNDA:0,_RNvNvNvNtNtCs47RmZobMba4_11stellar_xdr4curr9generateds5s_1__33RECURSIVE_COUNT_ManageOfferEffect7___getitB9_
FNDA:0,_RNvNvNvNtNtCs47RmZobMba4_11stellar_xdr4curr9generateds4F_1__36RECURSIVE_COUNT_ExtendFootprintTtlOp7___getitB9_
FNDA:0,_RNvNvNvNtNtCs47RmZobMba4_11stellar_xdr4curr9generateds1q_1__25RECURSIVE_COUNT_AssetType7___getitB9_
FNDA:0,_RNvNvNvNtNtCs47RmZobMba4_11stellar_xdr4curr9generateds2s_1__37RECURSIVE_COUNT_LedgerKeyContractData6___initB9_
FNDA:0,_RNvNvNvNtNtCs47RmZobMba4_11stellar_xdr4curr9generateds1x_1__32RECURSIVE_COUNT_ThresholdIndexes6___initB9_
FNDA:0,_RNvNvNvNtNtCs47RmZobMba4_11stellar_xdr4curr9generateds3c_1__33RECURSIVE_COUNT_TransactionMetaV17___getitB9_
FNDA:0,_RNvNvNvNtNtCs47RmZobMba4_11stellar_xdr4curr9generateds4P_1__20RECURSIVE_COUNT_Memo7___getitB9_
FNDA:0,_RNvNvNvNtNtCs47RmZobMba4_11stellar_xdr4curr9generateds3J_1__37RECURSIVE_COUNT_SurveyResponseMessage7___getitB9_
FNDA:0,_RNvNvNvNtNtCs47RmZobMba4_11stellar_xdr4curr9generateds1V_1__28RECURSIVE_COUNT_DataEntryExt7___getitB9_
FNDA:0,_RNvNvNvNtNtCs47RmZobMba4_11stellar_xdr4curr9generateds5B_1__33RECURSIVE_COUNT_ChangeTrustResult7___getitB9_
FNDA:0,_RNvNvNvNtNtCs47RmZobMba4_11stellar_xdr4curr9generateds2x_1__28RECURSIVE_COUNT_EnvelopeType6___initB9_
FNDA:0,_RNvNvNvNtNtCs47RmZobMba4_11stellar_xdr4curr9generatedsz_1__31RECURSIVE_COUNT_ScSpecTypeTuple7___getitB9_
FNDA:0,_RNvNvNvNtNtCs47RmZobMba4_11stellar_xdr4curr9generateds4E_1__36RECURSIVE_COUNT_InvokeHostFunctionOp7___getitB9_
FNDA:0,_RNvNvNvNtNtCs47RmZobMba4_11stellar_xdr4curr9generateds5V_1__43RECURSIVE_COUNT_RevokeSponsorshipResultCode6___initB9_
FNDA:0,_RNvNvNvNtNtCs47RmZobMba4_11stellar_xdr4curr9generateds2U_1__30RECURSIVE_COUNT_TransactionSet7___getitB9_
FNDA:0,_RNvNvNvNtNtCs47RmZobMba4_11stellar_xdr4curr9generatedsv_1__32RECURSIVE_COUNT_ScSpecTypeOption6___initB9_
FNDA:0,_RNvNvNvNtNtCs47RmZobMba4_11stellar_xdr4curr9generatedsF_1__40RECURSIVE_COUNT_ScSpecUdtUnionCaseVoidV06___initB9_
FNDA:0,_RNvNvNvNtNtCs47RmZobMba4_11stellar_xdr4curr9generateds44_1__42RECURSIVE_COUNT_PathPaymentStrictReceiveOp7___getitB9_
FNDA:0,_RNvNvNvNtNtCs47RmZobMba4_11stellar_xdr4curr9generateds1s_1__25RECURSIVE_COUNT_AlphaNum46___initB9_
FNDA:0,_RNvNvNvNtNtCs47RmZobMba4_11stellar_xdr4curr9generateds3E_1__40RECURSIVE_COUNT_SurveyMessageCommandType6___initB9_
FNDA:0,_RNvNvNvNtNtCs47RmZobMba4_11stellar_xdr4curr9generateds4t_1__34RECURSIVE_COUNT_ContractIdPreimage7___getitB9_
FNDA:0,_RNvNvNvNtNtCs47RmZobMba4_11stellar_xdr4curr9generateds1b_1__21RECURSIVE_COUNT_ScVal6___initB9_
FNDA:0,_RNvNvNvNtNtCs47RmZobMba4_11stellar_xdr4curr9generateds5H_1__31RECURSIVE_COUNT_InflationPayout7___getitB9_
FNDA:0,_RNvNvNvNtNtCs47RmZobMba4_11stellar_xdr4curr9generateds3z_1__26RECURSIVE_COUNT_IpAddrType6___initB9_
FNDA:0,_RNvNvNvNtNtCs47RmZobMba4_11stellar_xdr4curr9generateds5l_1__35RECURSIVE_COUNT_SimplePaymentResult6___initB9_
FNDA:0,_RNvNvNvNtNtCs47RmZobMba4_11stellar_xdr4curr9generateds1A_1__28RECURSIVE_COUNT_AccountFlags6___initB9_
FNDA:0,_RNvNvNvNtNtCs47RmZobMba4_11stellar_xdr4curr9generateds5t_1__45RECURSIVE_COUNT_ManageOfferSuccessResultOffer7___getitB9_
FNDA:0,_RNvNvNvNtNtCs47RmZobMba4_11stellar_xdr4curr9generateds4z_1__43RECURSIVE_COUNT_SorobanAuthorizedInvocation6___initB9_
FNDA:0,_RNvNvNvNtNtCs47RmZobMba4_11stellar_xdr4curr9generateds5Z_1__50RECURSIVE_COUNT_ClawbackClaimableBalanceResultCode7___getitB9_
FNDA:8,_RNvNvNvNtNtCs47RmZobMba4_11stellar_xdr4curr9generatedsU_1__27RECURSIVE_COUNT_ScErrorCode7___getitB9_
FNDA:0,_RNvNvNvNtNtCs47RmZobMba4_11stellar_xdr4curr9generateds3K_1__43RECURSIVE_COUNT_SignedSurveyResponseMessage7___getitB9_
FNDA:0,_RNvNvNvNtNtCs47RmZobMba4_11stellar_xdr4curr9generateds15_1__21RECURSIVE_COUNT_ScMap7___getitB9_
FNDA:0,_RNvNvNvNtNtCs47RmZobMba4_11stellar_xdr4curr9generateds36_1__33RECURSIVE_COUNT_ScpHistoryEntryV06___initB9_
FNDA:0,_RNvNvNvNtNtCs47RmZobMba4_11stellar_xdr4curr9generateds24_1__37RECURSIVE_COUNT_ClaimableBalanceFlags6___initB9_
FNDA:0,_RNvNvNvNtNtCs47RmZobMba4_11stellar_xdr4curr9generateds5W_1__39RECURSIVE_COUNT_RevokeSponsorshipResult7___getitB9_
FNDA:0,_RNvNvNvNtNtCs47RmZobMba4_11stellar_xdr4curr9generateds3L_1__25RECURSIVE_COUNT_PeerStats7___getitB9_
FNDA:0,_RNvNvNvNtNtCs47RmZobMba4_11stellar_xdr4curr9generateds4D_1__41RECURSIVE_COUNT_SorobanAuthorizationEntry6___initB9_
FNDA:0,_RNvNvNvNtNtCs47RmZobMba4_11stellar_xdr4curr9generateds3g_1__33RECURSIVE_COUNT_ContractEventBody6___initB9_
FNDA:0,_RNvNvNvNtNtCs47RmZobMba4_11stellar_xdr4curr9generateds4T_1__32RECURSIVE_COUNT_PreconditionType6___initB9_
FNDA:0,_RNvNvNvNtNtCs47RmZobMba4_11stellar_xdr4curr9generateds4e_1__30RECURSIVE_COUNT_BumpSequenceOp6___initB9_
FNDA:0,_RNvNvNvNtNtCs47RmZobMba4_11stellar_xdr4curr9generateds3V_1__38RECURSIVE_COUNT_AuthenticatedMessageV07___getitB9_
FNDA:0,_RNvNvNvNtNtCs47RmZobMba4_11stellar_xdr4curr9generateds4b_1__29RECURSIVE_COUNT_ChangeTrustOp7___getitB9_
FNDA:0,_RNvNvNvNtNtCs47RmZobMba4_11stellar_xdr4curr9generateds2a_1__49RECURSIVE_COUNT_LiquidityPoolEntryConstantProduct6___initB9_
FNDA:0,_RNvNvNvNtNtCs47RmZobMba4_11stellar_xdr4curr9generateds6s_1__30RECURSIVE_COUNT_ExtensionPoint6___initB9_
FNDA:0,_RNvNvNvNtNtCs47RmZobMba4_11stellar_xdr4curr9generateds5U_1__49RECURSIVE_COUNT_EndSponsoringFutureReservesResult7___getitB9_
FNDA:0,_RNvNvNvNtNtCs47RmZobMba4_11stellar_xdr4curr9generateds6y_1__25RECURSIVE_COUNT_SignerKey6___initB9_
FNDA:0,_RNvNvNvNtNtCs47RmZobMba4_11stellar_xdr4curr9generatedsr_1__24RECURSIVE_COUNT_ScMetaV06___initB9_
FNDA:0,_RNvNvNvNtNtCs47RmZobMba4_11stellar_xdr4curr9generateds3X_1__39RECURSIVE_COUNT_LiquidityPoolParameters7___getitB9_
FNDA:0,_RNvNvNvNtNtCs47RmZobMba4_11stellar_xdr4curr9generateds45_1__39RECURSIVE_COUNT_PathPaymentStrictSendOp6___initB9_
FNDA:0,_RNvNvNvNtNtCs47RmZobMba4_11stellar_xdr4curr9generateds5K_1__32RECURSIVE_COUNT_ManageDataResult7___getitB9_
FNDA:0,_RNvNvNvNtNtCs47RmZobMba4_11stellar_xdr4curr9generateds4I_1__25RECURSIVE_COUNT_Operation6___initB9_
FNDA:0,_RNvNvNvNtNtCs47RmZobMba4_11stellar_xdr4curr9generateds5A_1__37RECURSIVE_COUNT_ChangeTrustResultCode6___initB9_
FNDA:0,_RNvNvNvNtNtCs47RmZobMba4_11stellar_xdr4curr9generateds65_1__47RECURSIVE_COUNT_LiquidityPoolWithdrawResultCode6___initB9_
FNDA:0,_RNvNvNvNtNtCs47RmZobMba4_11stellar_xdr4curr9generateds3i_1__31RECURSIVE_COUNT_DiagnosticEvent7___getitB9_
FNDA:0,_RNvNvNvNtNtCs47RmZobMba4_11stellar_xdr4curr9generateds1T_1__29RECURSIVE_COUNT_OfferEntryExt6___initB9_
FNDA:0,_RNvNvNvNtNtCs47RmZobMba4_11stellar_xdr4curr9generateds3t_1__22RECURSIVE_COUNT_SError6___initB9_
FNDA:0,_RNvNvNvNtNtCs47RmZobMba4_11stellar_xdr4curr9generateds3T_1__27RECURSIVE_COUNT_FloodDemand6___initB9_
FNDA:0,_RNvNvNvNtNtCs47RmZobMba4_11stellar_xdr4curr9generateds3u_1__24RECURSIVE_COUNT_SendMore6___initB9_
FNDA:0,_RNvNvNvNtNtCs47RmZobMba4_11stellar_xdr4curr9generatedsd_1__46RECURSIVE_COUNT_ConfigSettingContractComputeV07___getitB9_
FNDA:0,_RNvNvNvNtNtCs47RmZobMba4_11stellar_xdr4curr9generateds3M_1__28RECURSIVE_COUNT_PeerStatList7___getitB9_
FNDA:0,_RNvNvNvNtNtCs47RmZobMba4_11stellar_xdr4curr9generatedsy_1__29RECURSIVE_COUNT_ScSpecTypeMap7___getitB9_
FNDA:0,_RNvNvNvNtNtCs47RmZobMba4_11stellar_xdr4curr9generateds1e_1__41RECURSIVE_COUNT_StoredDebugTransactionSet6___initB9_
FNDA:0,_RNvNvNvNtNtCs47RmZobMba4_11stellar_xdr4curr9generateds4H_1__29RECURSIVE_COUNT_OperationBody6___initB9_
FNDA:0,_RNvNvNvNtNtCs47RmZobMba4_11stellar_xdr4curr9generateds5h_1__35RECURSIVE_COUNT_CreateAccountResult6___initB9_
FNDA:0,_RNvNvNvNtNtCs47RmZobMba4_11stellar_xdr4curr9generateds3A_1__29RECURSIVE_COUNT_PeerAddressIp6___initB9_
FNDA:0,_RNvNvNvNtNtCs47RmZobMba4_11stellar_xdr4curr9generateds19_1__26RECURSIVE_COUNT_ScNonceKey6___initB9_
FNDA:0,_RNvNvNvNtNtCs47RmZobMba4_11stellar_xdr4curr9generateds4N_1__30RECURSIVE_COUNT_HashIdPreimage6___initB9_
FNDA:0,_RNvNvNvNtNtCs47RmZobMba4_11stellar_xdr4curr9generatedsw_1__32RECURSIVE_COUNT_ScSpecTypeResult7___getitB9_
FNDA:0,_RNvNvNvNtNtCs47RmZobMba4_11stellar_xdr4curr9generateds1X_1__34RECURSIVE_COUNT_ClaimPredicateType7___getitB9_
FNDA:0,_RNvNvNvNtNtCs47RmZobMba4_11stellar_xdr4curr9generatedsQ_1__31RECURSIVE_COUNT_ScSpecEntryKind7___getitB9_
FNDA:0,_RNvNvNvNtNtCs47RmZobMba4_11stellar_xdr4curr9generateds5E_1__38RECURSIVE_COUNT_AccountMergeResultCode7___getitB9_
FNDA:0,_RNvNvNvNtNtCs47RmZobMba4_11stellar_xdr4curr9generateds2C_1__28RECURSIVE_COUNT_StellarValue7___getitB9_
FNDA:0,_RNvNvNvNtNtCs47RmZobMba4_11stellar_xdr4curr9generateds5K_1__32RECURSIVE_COUNT_ManageDataResult6___initB9_
FNDA:0,_RNvNvNvNtNtCs47RmZobMba4_11stellar_xdr4curr9generateds1D_1__42RECURSIVE_COUNT_AccountEntryExtensionV2Ext6___initB9_
FNDA:0,_RNvNvNvNtNtCs47RmZobMba4_11stellar_xdr4curr9generateds5x_1__36RECURSIVE_COUNT_ManageBuyOfferResult7___getitB9_
FNDA:0,_RNvNvNvNtNtCs47RmZobMba4_11stellar_xdr4curr9generateds4a_1__32RECURSIVE_COUNT_ChangeTrustAsset7___getitB9_
FNDA:0,_RNvNvNvNtNtCs47RmZobMba4_11stellar_xdr4curr9generateds5F_1__34RECURSIVE_COUNT_AccountMergeResult6___initB9_
FNDA:0,_RNvNvNvNtNtCs47RmZobMba4_11stellar_xdr4curr9generateds1x_1__32RECURSIVE_COUNT_ThresholdIndexes7___getitB9_
FNDA:0,_RNvNvNvNtNtCs47RmZobMba4_11stellar_xdr4curr9generateds5a_1__43RECURSIVE_COUNT_TransactionSignaturePayload7___getitB9_
FNDA:0,_RNvNvNvNtNtCs47RmZobMba4_11stellar_xdr4curr9generateds7_1__39RECURSIVE_COUNT_ScpStatementExternalize6___initB9_
FNDA:0,_RNvNvNvNtNtCs47RmZobMba4_11stellar_xdr4curr9generateds3U_1__30RECURSIVE_COUNT_StellarMessage6___initB9_
FNDA:0,_RNvNvNvNtNtCs47RmZobMba4_11stellar_xdr4curr9generateds6w_1__25RECURSIVE_COUNT_PublicKey6___initB9_
FNDA:0,_RNvNvNvNtNtCs47RmZobMba4_11stellar_xdr4curr9generateds33_1__43RECURSIVE_COUNT_LedgerHeaderHistoryEntryExt6___initB9_
FNDA:0,_RNvNvNvNtNtCs47RmZobMba4_11stellar_xdr4curr9generateds2D_1__33RECURSIVE_COUNT_LedgerHeaderFlags6___initB9_
FNDA:0,_RNvNvNvNtNtCs47RmZobMba4_11stellar_xdr4curr9generatedsu_1__26RECURSIVE_COUNT_ScSpecType7___getitB9_
FNDA:0,_RNvNvNvNtNtCs47RmZobMba4_11stellar_xdr4curr9generateds3h_1__29RECURSIVE_COUNT_ContractEvent7___getitB9_
FNDA:0,_RNvNvNvNtNtCs47RmZobMba4_11stellar_xdr4curr9generatedsG_1__41RECURSIVE_COUNT_ScSpecUdtUnionCaseTupleV07___getitB9_
FNDA:0,_RNvNvNvNtNtCs47RmZobMba4_11stellar_xdr4curr9generateds4v_1__34RECURSIVE_COUNT_InvokeContractArgs7___getitB9_
FNDA:0,_RNvNvNvNtNtCs47RmZobMba4_11stellar_xdr4curr9generateds54_1__41RECURSIVE_COUNT_FeeBumpTransactionInnerTx7___getitB9_
FNDA:0,_RNvNvNvNtNtCs47RmZobMba4_11stellar_xdr4curr9generateds2t_1__37RECURSIVE_COUNT_LedgerKeyContractCode7___getitB9_
FNDA:0,_RNvNvNvNtNtCs47RmZobMba4_11stellar_xdr4curr9generateds1Z_1__28RECURSIVE_COUNT_ClaimantType6___initB9_
FNDA:0,_RNvNvNvNtNtCs47RmZobMba4_11stellar_xdr4curr9generateds1v_1__21RECURSIVE_COUNT_Price7___getitB9_
FNDA:0,_RNvNvNvNtNtCs47RmZobMba4_11stellar_xdr4curr9generateds2c_1__34RECURSIVE_COUNT_LiquidityPoolEntry7___getitB9_
FNDA:0,_RNvNvNvNtNtCs47RmZobMba4_11stellar_xdr4curr9generateds3n_1__37RECURSIVE_COUNT_TransactionResultMeta7___getitB9_
FNDA:0,_RNvNvNvNtNtCs47RmZobMba4_11stellar_xdr4curr9generateds3o_1__32RECURSIVE_COUNT_UpgradeEntryMeta6___initB9_
FNDA:0,_RNvNvNvNtNtCs47RmZobMba4_11stellar_xdr4curr9generateds3z_1__26RECURSIVE_COUNT_IpAddrType7___getitB9_
FNDA:0,_RNvNvNvNtNtCs47RmZobMba4_11stellar_xdr4curr9generateds4S_1__31RECURSIVE_COUNT_PreconditionsV27___getitB9_
FNDA:0,_RNvNvNvNtNtCs47RmZobMba4_11stellar_xdr4curr9generatedsc_1__53RECURSIVE_COUNT_ConfigSettingContractExecutionLanesV07___getitB9_
FNDA:0,_RNvNvNvNtNtCs47RmZobMba4_11stellar_xdr4curr9generateds5z_1__32RECURSIVE_COUNT_SetOptionsResult6___initB9_
FNDA:0,_RNvNvNvNtNtCs47RmZobMba4_11stellar_xdr4curr9generatedsw_1__32RECURSIVE_COUNT_ScSpecTypeResult6___initB9_
FNDA:0,_RNvNvNvNtNtCs47RmZobMba4_11stellar_xdr4curr9generateds5O_1__44RECURSIVE_COUNT_CreateClaimableBalanceResult6___initB9_
FNDA:0,_RNvNvNvNtNtCs47RmZobMba4_11stellar_xdr4curr9generateds4d_1__28RECURSIVE_COUNT_ManageDataOp7___getitB9_
FNDA:0,_RNvNvNvNtNtCs47RmZobMba4_11stellar_xdr4curr9generateds41_1__29RECURSIVE_COUNT_OperationType6___initB9_
FNDA:0,_RNvNvNvNtNtCs47RmZobMba4_11stellar_xdr4curr9generateds6E_1__32RECURSIVE_COUNT_Curve25519Public6___initB9_
FNDA:0,_RNvNvNvNtNtCs47RmZobMba4_11stellar_xdr4curr9generateds5e_1__34RECURSIVE_COUNT_ClaimLiquidityAtom6___initB9_
FNDA:0,_RNvNvNvNtNtCs47RmZobMba4_11stellar_xdr4curr9generateds4q_1__32RECURSIVE_COUNT_HostFunctionType7___getitB9_
FNDA:0,_RNvNvNvNtNtCs47RmZobMba4_11stellar_xdr4curr9generateds5Q_1__43RECURSIVE_COUNT_ClaimClaimableBalanceResult6___initB9_
FNDA:0,_RNvNvNvNtNtCs47RmZobMba4_11stellar_xdr4curr9generateds5p_1__50RECURSIVE_COUNT_PathPaymentStrictSendResultSuccess6___initB9_
FNDA:0,_RNvNvNvNtNtCs47RmZobMba4_11stellar_xdr4curr9generateds1C_1__39RECURSIVE_COUNT_AccountEntryExtensionV37___getitB9_
FNDA:0,_RNvNvNvNtNtCs47RmZobMba4_11stellar_xdr4curr9generateds4w_1__28RECURSIVE_COUNT_HostFunction6___initB9_
FNDA:0,_RNvNvNvNtNtCs47RmZobMba4_11stellar_xdr4curr9generateds4I_1__25RECURSIVE_COUNT_Operation7___getitB9_
FNDA:0,_RNvNvNvNtNtCs47RmZobMba4_11stellar_xdr4curr9generateds4E_1__36RECURSIVE_COUNT_InvokeHostFunctionOp6___initB9_
FNDA:0,_RNvNvNvNtNtCs47RmZobMba4_11stellar_xdr4curr9generateds5i_1__33RECURSIVE_COUNT_PaymentResultCode7___getitB9_
FNDA:0,_RNvNvNvNtNtCs47RmZobMba4_11stellar_xdr4curr9generateds2j_1__31RECURSIVE_COUNT_LedgerEntryData6___initB9_
FNDA:0,_RNvNvNvNtNtCs47RmZobMba4_11stellar_xdr4curr9generateds1T_1__29RECURSIVE_COUNT_OfferEntryExt7___getitB9_
FNDA:0,_RNvNvNvNtNtCs47RmZobMba4_11stellar_xdr4curr9generateds3k_1__33RECURSIVE_COUNT_TransactionMetaV37___getitB9_
FNDA:0,_RNvNvNvNtNtCs47RmZobMba4_11stellar_xdr4curr9generatedsJ_1__32RECURSIVE_COUNT_ScSpecUdtUnionV06___initB9_
FNDA:0,_RNvNvNvNtNtCs47RmZobMba4_11stellar_xdr4curr9generateds4F_1__36RECURSIVE_COUNT_ExtendFootprintTtlOp6___initB9_
FNDA:0,_RNvNvNvNtNtCs47RmZobMba4_11stellar_xdr4curr9generateds35_1__33RECURSIVE_COUNT_LedgerScpMessages7___getitB9_
FNDA:0,_RNvNvNvNtNtCs47RmZobMba4_11stellar_xdr4curr9generateds3P_1__34RECURSIVE_COUNT_SurveyResponseBody7___getitB9_
FNDA:0,_RNvNvNvNtNtCs47RmZobMba4_11stellar_xdr4curr9generateds4C_1__34RECURSIVE_COUNT_SorobanCredentials7___getitB9_
FNDA:0,_RNvNvNvNtNtCs47RmZobMba4_11stellar_xdr4curr9generateds3Y_1__36RECURSIVE_COUNT_MuxedAccountMed255197___getitB9_
FNDA:0,_RNvNvNvNtNtCs47RmZobMba4_11stellar_xdr4curr9generatedsO_1__37RECURSIVE_COUNT_ScSpecFunctionInputV06___initB9_
FNDA:0,_RNvNvNvNtNtCs47RmZobMba4_11stellar_xdr4curr9generateds30_1__39RECURSIVE_COUNT_TransactionHistoryEntry7___getitB9_
FNDA:0,_RNvNvNvNtNtCs47RmZobMba4_11stellar_xdr4curr9generateds5f_1__25RECURSIVE_COUNT_ClaimAtom7___getitB9_
FNDA:0,_RNvNvNvNtNtCs47RmZobMba4_11stellar_xdr4curr9generateds2C_1__28RECURSIVE_COUNT_StellarValue6___initB9_
FNDA:0,_RNvNvNvNtNtCs47RmZobMba4_11stellar_xdr4curr9generateds3O_1__38RECURSIVE_COUNT_TopologyResponseBodyV17___getitB9_
FNDA:0,_RNvNvNvNtNtCs47RmZobMba4_11stellar_xdr4curr9generateds3q_1__33RECURSIVE_COUNT_LedgerCloseMetaV16___initB9_
FNDA:0,_RNvNvNvNtNtCs47RmZobMba4_11stellar_xdr4curr9generatedso_1__34RECURSIVE_COUNT_ConfigSettingEntry7___getitB9_
FNDA:0,_RNvNvNvNtNtCs47RmZobMba4_11stellar_xdr4curr9generatedsP_1__32RECURSIVE_COUNT_ScSpecFunctionV06___initB9_
FNDA:0,_RNvNvNvNtNtCs47RmZobMba4_11stellar_xdr4curr9generateds6c_1__38RECURSIVE_COUNT_RestoreFootprintResult6___initB9_
FNDA:0,_RNvNvNvNtNtCs47RmZobMba4_11stellar_xdr4curr9generateds4h_1__47RECURSIVE_COUNT_BeginSponsoringFutureReservesOp7___getitB9_
FNDA:0,_RNvNvNvNtNtCs47RmZobMba4_11stellar_xdr4curr9generateds4L_1__40RECURSIVE_COUNT_HashIdPreimageContractId6___initB9_
FNDA:0,_RNvNvNvNtNtCs47RmZobMba4_11stellar_xdr4curr9generateds14_1__21RECURSIVE_COUNT_ScVec7___getitB9_
FNDA:0,_RNvNvNvNtNtCs47RmZobMba4_11stellar_xdr4curr9generateds23_1__34RECURSIVE_COUNT_ClaimableBalanceId6___initB9_
FNDA:0,_RNvNvNvNtNtCs47RmZobMba4_11stellar_xdr4curr9generateds1e_1__41RECURSIVE_COUNT_StoredDebugTransactionSet7___getitB9_
FNDA:0,_RNvNvNvNtNtCs47RmZobMba4_11stellar_xdr4curr9generateds4M_1__50RECURSIVE_COUNT_HashIdPreimageSorobanAuthorization6___initB9_
FNDA:0,_RNvNvNvNtNtCs47RmZobMba4_11stellar_xdr4curr9generateds40_1__34RECURSIVE_COUNT_DecoratedSignature6___initB9_
FNDA:0,_RNvNvNvNtNtCs47RmZobMba4_11stellar_xdr4curr9generatedsm_1__34RECURSIVE_COUNT_ContractCostParams7___getitB9_
FNDA:0,_RNvNvNvNtNtCs47RmZobMba4_11stellar_xdr4curr9generateds4f_1__40RECURSIVE_COUNT_CreateClaimableBalanceOp6___initB9_
FNDA:0,_RNvNvNvNtNtCs47RmZobMba4_11stellar_xdr4curr9generateds5n_1__46RECURSIVE_COUNT_PathPaymentStrictReceiveResult7___getitB9_
FNDA:0,_RNvNvNvNtNtCs47RmZobMba4_11stellar_xdr4curr9generateds63_1__46RECURSIVE_COUNT_LiquidityPoolDepositResultCode6___initB9_
FNDA:0,_RNvNvNvNtNtCs47RmZobMba4_11stellar_xdr4curr9generateds1a_1__34RECURSIVE_COUNT_ScContractInstance6___initB9_
FNDA:0,_RNvNvNvNtNtCs47RmZobMba4_11stellar_xdr4curr9generatedsA_1__32RECURSIVE_COUNT_ScSpecTypeBytesN6___initB9_
FNDA:0,_RNvNvNvNtNtCs47RmZobMba4_11stellar_xdr4curr9generateds2l_1__27RECURSIVE_COUNT_LedgerEntry7___getitB9_
FNDA:0,_RNvNvNvNtNtCs47RmZobMba4_11stellar_xdr4curr9generateds5T_1__53RECURSIVE_COUNT_EndSponsoringFutureReservesResultCode7___getitB9_
FNDA:0,_RNvNvNvNtNtCs47RmZobMba4_11stellar_xdr4curr9generateds6l_1__39RECURSIVE_COUNT_TransactionResultResult6___initB9_
FNDA:0,_RNvNvNvNtNtCs47RmZobMba4_11stellar_xdr4curr9generatedsq_1__30RECURSIVE_COUNT_ScEnvMetaEntry7___getitB9_
FNDA:0,_RNvNvNvNtNtCs47RmZobMba4_11stellar_xdr4curr9generateds6D_1__32RECURSIVE_COUNT_Curve25519Secret6___initB9_
FNDA:0,_RNvNvNvNtNtCs47RmZobMba4_11stellar_xdr4curr9generateds2Q_1__34RECURSIVE_COUNT_TxSetComponentType7___getitB9_
FNDA:0,_RNvNvNvNtNtCs47RmZobMba4_11stellar_xdr4curr9generatedsl_1__32RECURSIVE_COUNT_EvictionIterator7___getitB9_
FNDA:0,_RNvNvNvNtNtCs47RmZobMba4_11stellar_xdr4curr9generateds6q_1__25RECURSIVE_COUNT_TimePoint6___initB9_
FNDA:0,_RNvNvNvNtNtCs47RmZobMba4_11stellar_xdr4curr9generateds3O_1__38RECURSIVE_COUNT_TopologyResponseBodyV16___initB9_
FNDA:0,_RNvNvNvNtNtCs47RmZobMba4_11stellar_xdr4curr9generateds5s_1__33RECURSIVE_COUNT_ManageOfferEffect6___initB9_
FNDA:0,_RNvNvNvNtNtCs47RmZobMba4_11stellar_xdr4curr9generateds1X_1__34RECURSIVE_COUNT_ClaimPredicateType6___initB9_
FNDA:0,_RNvNvNvNtNtCs47RmZobMba4_11stellar_xdr4curr9generateds4H_1__29RECURSIVE_COUNT_OperationBody7___getitB9_
FNDA:0,_RNvNvNvNtNtCs47RmZobMba4_11stellar_xdr4curr9generateds25_1__51RECURSIVE_COUNT_ClaimableBalanceEntryExtensionV1Ext7___getitB9_
FNDA:0,_RNvNvNvNtNtCs47RmZobMba4_11stellar_xdr4curr9generateds5X_1__34RECURSIVE_COUNT_ClawbackResultCode6___initB9_
FNDA:0,_RNvNvNvNtNtCs47RmZobMba4_11stellar_xdr4curr9generateds3s_1__25RECURSIVE_COUNT_ErrorCode7___getitB9_
FNDA:0,_RNvNvNvNtNtCs47RmZobMba4_11stellar_xdr4curr9generateds1S_1__31RECURSIVE_COUNT_OfferEntryFlags7___getitB9_
FNDA:0,_RNvNvNvNtNtCs47RmZobMba4_11stellar_xdr4curr9generateds5g_1__39RECURSIVE_COUNT_CreateAccountResultCode6___initB9_
FNDA:8,_RNvNvNvNtNtCs47RmZobMba4_11stellar_xdr4curr9generatedsV_1__23RECURSIVE_COUNT_ScError7___getitB9_
FNDA:0,_RNvNvNvNtNtCs47RmZobMba4_11stellar_xdr4curr9generateds4N_1__30RECURSIVE_COUNT_HashIdPreimage7___getitB9_
FNDA:0,_RNvNvNvNtNtCs47RmZobMba4_11stellar_xdr4curr9generateds12_1__29RECURSIVE_COUNT_ScAddressType7___getitB9_
FNDA:0,_RNvNvNvNtNtCs47RmZobMba4_11stellar_xdr4curr9generateds2M_1__31RECURSIVE_COUNT_BucketEntryType6___initB9_
FNDA:0,_RNvNvNvNtNtCs47RmZobMba4_11stellar_xdr4curr9generateds1p_1__27RECURSIVE_COUNT_AssetCode126___initB9_
FNDA:0,_RNvNvNvNtNtCs47RmZobMba4_11stellar_xdr4curr9generateds4q_1__32RECURSIVE_COUNT_HostFunctionType6___initB9_
FNDA:0,_RNvNvNvNtNtCs47RmZobMba4_11stellar_xdr4curr9generateds5z_1__32RECURSIVE_COUNT_SetOptionsResult7___getitB9_
FNDA:0,_RNvNvNvNtNtCs47RmZobMba4_11stellar_xdr4curr9generateds2w_1__25RECURSIVE_COUNT_LedgerKey6___initB9_
FNDA:0,_RNvNvNvNtNtCs47RmZobMba4_11stellar_xdr4curr9generateds1q_1__25RECURSIVE_COUNT_AssetType6___initB9_
FNDA:0,_RNvNvNvNtNtCs47RmZobMba4_11stellar_xdr4curr9generateds17_1__24RECURSIVE_COUNT_ScString6___initB9_
FNDA:0,_RNvNvNvNtNtCs47RmZobMba4_11stellar_xdr4curr9generatedsL_1__31RECURSIVE_COUNT_ScSpecUdtEnumV06___initB9_
FNDA:0,_RNvNvNvNtNtCs47RmZobMba4_11stellar_xdr4curr9generateds5v_1__37RECURSIVE_COUNT_ManageSellOfferResult6___initB9_
FNDA:0,_RNvNvNvNtNtCs47RmZobMba4_11stellar_xdr4curr9generateds1h_1__33RECURSIVE_COUNT_PersistedScpState7___getitB9_
FNDA:0,_RNvNvNvNtNtCs47RmZobMba4_11stellar_xdr4curr9generatedsq_1__30RECURSIVE_COUNT_ScEnvMetaEntry6___initB9_
FNDA:0,_RNvNvNvNtNtCs47RmZobMba4_11stellar_xdr4curr9generateds4Z_1__29RECURSIVE_COUNT_TransactionV07___getitB9_
FNDA:0,_RNvNvNvNtNtCs47RmZobMba4_11stellar_xdr4curr9generateds41_1__29RECURSIVE_COUNT_OperationType7___getitB9_
FNDA:0,_RNvNvNvNtNtCs47RmZobMba4_11stellar_xdr4curr9generateds6z_1__25RECURSIVE_COUNT_Signature7___getitB9_
FNDA:0,_RNvNvNvNtNtCs47RmZobMba4_11stellar_xdr4curr9generateds1w_1__27RECURSIVE_COUNT_Liabilities7___getitB9_
FNDA:0,_RNvNvNvNtNtCs47RmZobMba4_11stellar_xdr4curr9generateds3S_1__30RECURSIVE_COUNT_TxDemandVector6___initB9_
FNDA:0,_RNvNvNvNtNtCs47RmZobMba4_11stellar_xdr4curr9generateds2q_1__41RECURSIVE_COUNT_LedgerKeyClaimableBalance6___initB9_
FNDA:0,_RNvNvNvNtNtCs47RmZobMba4_11stellar_xdr4curr9generateds4x_1__45RECURSIVE_COUNT_SorobanAuthorizedFunctionType6___initB9_
FNDA:0,_RNvNvNvNtNtCs47RmZobMba4_11stellar_xdr4curr9generateds5n_1__46RECURSIVE_COUNT_PathPaymentStrictReceiveResult6___initB9_
FNDA:0,_RNvNvNvNtNtCs47RmZobMba4_11stellar_xdr4curr9generateds1W_1__25RECURSIVE_COUNT_DataEntry7___getitB9_
FNDA:0,_RNvNvNvNtNtCs47RmZobMba4_11stellar_xdr4curr9generatedsD_1__38RECURSIVE_COUNT_ScSpecUdtStructFieldV07___getitB9_
FNDA:0,_RNvNvNvNtNtCs47RmZobMba4_11stellar_xdr4curr9generateds1d_1__36RECURSIVE_COUNT_StoredTransactionSet6___initB9_
FNDA:0,_RNvNvNvNtNtCs47RmZobMba4_11stellar_xdr4curr9generateds2U_1__30RECURSIVE_COUNT_TransactionSet6___initB9_
FNDA:0,_RNvNvNvNtNtCs47RmZobMba4_11stellar_xdr4curr9generateds3Y_1__36RECURSIVE_COUNT_MuxedAccountMed255196___initB9_
FNDA:0,_RNvNvNvNtNtCs47RmZobMba4_11stellar_xdr4curr9generateds47_1__32RECURSIVE_COUNT_ManageBuyOfferOp6___initB9_
FNDA:0,_RNvNvNvNtNtCs47RmZobMba4_11stellar_xdr4curr9generateds44_1__42RECURSIVE_COUNT_PathPaymentStrictReceiveOp6___initB9_
FNF:2
FNH:2
DA:80,1319
DA:83,4516
DA:84,4516
DA:85,4516
DA:86,4516
DA:87,4516
DA:88,4516
DA:89,4516
DA:90,4516
DA:91,4516
DA:100,4516
DA:101,4516
DA:102,4516
BRF:0
BRH:0
LF:13
LH:13
end_of_record
SF:/src/rs-soroban-env/soroban-env-common/src/arbitrary.rs
FN:33,_RNvXs0_NtCsdmZoVYnqinT_18soroban_env_common9arbitraryNtNtB7_6symbol6SymbolNtCseH6kS7iZI6C_9arbitrary9Arbitrary9arbitrary
FN:27,_RNvXs_NtCsdmZoVYnqinT_18soroban_env_common9arbitraryNtNtB6_3val4VoidNtCseH6kS7iZI6C_9arbitrary9Arbitrary9size_hint
FN:57,_RNCNvXs1_NtCsdmZoVYnqinT_18soroban_env_common9arbitraryNtNtB9_12storage_type11StorageTypeNtCseH6kS7iZI6C_9arbitrary9Arbitrary9arbitrary0B9_
FN:11,_RNvXNtCsdmZoVYnqinT_18soroban_env_common9arbitraryNtNtB4_5error5ErrorNtCseH6kS7iZI6C_9arbitrary9Arbitrary9arbitrary
FN:60,_RNvXs1_NtCsdmZoVYnqinT_18soroban_env_common9arbitraryNtNtB7_12storage_type11StorageTypeNtCseH6kS7iZI6C_9arbitrary9Arbitrary9size_hint
FN:51,_RNvXs1_NtCsdmZoVYnqinT_18soroban_env_common9arbitraryNtNtB7_12storage_type11StorageTypeNtCseH6kS7iZI6C_9arbitrary9Arbitrary9arbitrary
FN:45,_RNCNvXs0_NtCsdmZoVYnqinT_18soroban_env_common9arbitraryNtNtB9_6symbol6SymbolNtCseH6kS7iZI6C_9arbitrary9Arbitrary9arbitrary0B9_
FN:17,_RNvXNtCsdmZoVYnqinT_18soroban_env_common9arbitraryNtNtB4_5error5ErrorNtCseH6kS7iZI6C_9arbitrary9Arbitrary9size_hint
FN:23,_RNvXs_NtCsdmZoVYnqinT_18soroban_env_common9arbitraryNtNtB6_3val4VoidNtCseH6kS7iZI6C_9arbitrary9Arbitrary9arbitrary
FNDA:114,_RNvXs0_NtCsdmZoVYnqinT_18soroban_env_common9arbitraryNtNtB7_6symbol6SymbolNtCseH6kS7iZI6C_9arbitrary9Arbitrary9arbitrary
FNDA:0,_RNvXs_NtCsdmZoVYnqinT_18soroban_env_common9arbitraryNtNtB6_3val4VoidNtCseH6kS7iZI6C_9arbitrary9Arbitrary9size_hint
FNDA:338,_RNCNvXs1_NtCsdmZoVYnqinT_18soroban_env_common9arbitraryNtNtB9_12storage_type11StorageTypeNtCseH6kS7iZI6C_9arbitrary9Arbitrary9arbitrary0B9_
FNDA:57,_RNvXNtCsdmZoVYnqinT_18soroban_env_common9arbitraryNtNtB4_5error5ErrorNtCseH6kS7iZI6C_9arbitrary9Arbitrary9arbitrary
FNDA:0,_RNvXs1_NtCsdmZoVYnqinT_18soroban_env_common9arbitraryNtNtB7_12storage_type11StorageTypeNtCseH6kS7iZI6C_9arbitrary9Arbitrary9size_hint
FNDA:338,_RNvXs1_NtCsdmZoVYnqinT_18soroban_env_common9arbitraryNtNtB7_12storage_type11StorageTypeNtCseH6kS7iZI6C_9arbitrary9Arbitrary9arbitrary
FNDA:0,_RNCNvXs0_NtCsdmZoVYnqinT_18soroban_env_common9arbitraryNtNtB9_6symbol6SymbolNtCseH6kS7iZI6C_9arbitrary9Arbitrary9arbitrary0B9_
FNDA:0,_RNvXNtCsdmZoVYnqinT_18soroban_env_common9arbitraryNtNtB4_5error5ErrorNtCseH6kS7iZI6C_9arbitrary9Arbitrary9size_hint
FNDA:60,_RNvXs_NtCsdmZoVYnqinT_18soroban_env_common9arbitraryNtNtB6_3val4VoidNtCseH6kS7iZI6C_9arbitrary9Arbitrary9arbitrary
FNF:9
FNH:5
DA:11,57
DA:12,57
DA:13,57
DA:14,57
DA:15,57
DA:17,0
DA:18,0
DA:19,0
DA:23,60
DA:24,60
DA:25,60
DA:27,0
DA:28,0
DA:29,0
DA:33,114
DA:34,114
DA:35,114
DA:36,445
DA:37,445
DA:38,445
DA:39,445
DA:40,445
DA:41,445
DA:42,445
DA:44,114
DA:45,114
DA:46,114
DA:47,114
DA:51,338
DA:52,338
DA:53,338
DA:54,338
DA:55,338
DA:56,338
DA:57,338
DA:58,338
DA:60,0
DA:61,0
DA:62,0
BRF:0
BRH:0
LF:41
LH:31
end_of_record
SF:/src/rs-soroban-env/soroban-env-common/src/bytes.rs
FN:72,_RNvXs3_NtCsdmZoVYnqinT_18soroban_env_common5bytesNtNtB7_3val3ValINtNtB7_7convert10TryFromValNtNtCs8j26R3SUG40_16soroban_env_host4host4HostRShE12try_from_valB1w_
FN:64,_RNvXs2_NtCsdmZoVYnqinT_18soroban_env_common5bytesNtB5_11BytesObjectINtNtB7_7convert10TryFromValNtNtCs8j26R3SUG40_16soroban_env_host4host4HostRShE12try_from_valB1z_
FN:55,_RNvXININtCsdmZoVYnqinT_18soroban_env_common5bytess1_0pEINtNtCsjllP7bAX7YC_5alloc3vec3VechEINtNtB7_7convert10TryFromValpNtNtB7_3val3ValE12try_from_valB7_
FN:31,_RNvXININtCsdmZoVYnqinT_18soroban_env_common5bytess_0pKpEAhpINtNtB7_7convert10TryFromValpNtNtB7_3val3ValE12try_from_valB7_
FN:80,_RNvXININtCsdmZoVYnqinT_18soroban_env_common5bytess4_0pKpENtB5_11BytesObjectINtNtB7_7convert10TryFromValpAhpE12try_from_valB7_
FN:41,_RNvXININtCsdmZoVYnqinT_18soroban_env_common5bytess0_0pEINtNtCsjllP7bAX7YC_5alloc3vec3VechEINtNtB7_7convert10TryFromValpNtB5_11BytesObjectE12try_from_valB7_
FN:88,_RNvXININtCsdmZoVYnqinT_18soroban_env_common5bytess5_0pKpENtNtB7_3val3ValINtNtB7_7convert10TryFromValpAhpE12try_from_valB7_
FN:12,_RNvXININtCsdmZoVYnqinT_18soroban_env_common5bytes0pKpEAhpINtNtB7_7convert10TryFromValpNtB5_11BytesObjectE12try_from_valB7_
FN:72,_RNvXININtCsdmZoVYnqinT_18soroban_env_common5bytess3_0pENtNtB7_3val3ValINtNtB7_7convert10TryFromValpRShE12try_from_valB7_
FN:106,_RNvXININtCsdmZoVYnqinT_18soroban_env_common5bytess7_0pENtNtB7_3val3ValINtNtB7_7convert10TryFromValpINtNtCsjllP7bAX7YC_5alloc3vec3VechEE12try_from_valB7_
FN:64,_RNvXININtCsdmZoVYnqinT_18soroban_env_common5bytess2_0pENtB5_11BytesObjectINtNtB7_7convert10TryFromValpRShE12try_from_valB7_
FN:97,_RNvXININtCsdmZoVYnqinT_18soroban_env_common5bytess6_0pENtB5_11BytesObjectINtNtB7_7convert10TryFromValpINtNtCsjllP7bAX7YC_5alloc3vec3VechEE12try_from_valB7_
FNDA:0,_RNvXs3_NtCsdmZoVYnqinT_18soroban_env_common5bytesNtNtB7_3val3ValINtNtB7_7convert10TryFromValNtNtCs8j26R3SUG40_16soroban_env_host4host4HostRShE12try_from_valB1w_
FNDA:0,_RNvXs2_NtCsdmZoVYnqinT_18soroban_env_common5bytesNtB5_11BytesObjectINtNtB7_7convert10TryFromValNtNtCs8j26R3SUG40_16soroban_env_host4host4HostRShE12try_from_valB1z_
FNDA:0,_RNvXININtCsdmZoVYnqinT_18soroban_env_common5bytess1_0pEINtNtCsjllP7bAX7YC_5alloc3vec3VechEINtNtB7_7convert10TryFromValpNtNtB7_3val3ValE12try_from_valB7_
FNDA:0,_RNvXININtCsdmZoVYnqinT_18soroban_env_common5bytess_0pKpEAhpINtNtB7_7convert10TryFromValpNtNtB7_3val3ValE12try_from_valB7_
FNDA:0,_RNvXININtCsdmZoVYnqinT_18soroban_env_common5bytess4_0pKpENtB5_11BytesObjectINtNtB7_7convert10TryFromValpAhpE12try_from_valB7_
FNDA:0,_RNvXININtCsdmZoVYnqinT_18soroban_env_common5bytess0_0pEINtNtCsjllP7bAX7YC_5alloc3vec3VechEINtNtB7_7convert10TryFromValpNtB5_11BytesObjectE12try_from_valB7_
FNDA:0,_RNvXININtCsdmZoVYnqinT_18soroban_env_common5bytess5_0pKpENtNtB7_3val3ValINtNtB7_7convert10TryFromValpAhpE12try_from_valB7_
FNDA:0,_RNvXININtCsdmZoVYnqinT_18soroban_env_common5bytes0pKpEAhpINtNtB7_7convert10TryFromValpNtB5_11BytesObjectE12try_from_valB7_
FNDA:0,_RNvXININtCsdmZoVYnqinT_18soroban_env_common5bytess3_0pENtNtB7_3val3ValINtNtB7_7convert10TryFromValpRShE12try_from_valB7_
FNDA:0,_RNvXININtCsdmZoVYnqinT_18soroban_env_common5bytess7_0pENtNtB7_3val3ValINtNtB7_7convert10TryFromValpINtNtCsjllP7bAX7YC_5alloc3vec3VechEE12try_from_valB7_
FNDA:0,_RNvXININtCsdmZoVYnqinT_18soroban_env_common5bytess2_0pENtB5_11BytesObjectINtNtB7_7convert10TryFromValpRShE12try_from_valB7_
FNDA:0,_RNvXININtCsdmZoVYnqinT_18soroban_env_common5bytess6_0pENtB5_11BytesObjectINtNtB7_7convert10TryFromValpINtNtCsjllP7bAX7YC_5alloc3vec3VechEE12try_from_valB7_
FNF:10
FNH:0
DA:12,0
DA:13,0
DA:14,0
DA:15,0
DA:16,0
DA:17,0
DA:18,0
DA:19,0
DA:20,0
DA:21,0
DA:22,0
DA:23,0
DA:24,0
DA:25,0
DA:31,0
DA:32,0
DA:33,0
DA:34,0
DA:41,0
DA:42,0
DA:43,0
DA:44,0
DA:45,0
DA:46,0
DA:47,0
DA:48,0
DA:55,0
DA:56,0
DA:57,0
DA:58,0
DA:64,0
DA:65,0
DA:66,0
DA:72,0
DA:73,0
DA:74,0
DA:80,0
DA:81,0
DA:82,0
DA:88,0
DA:89,0
DA:90,0
DA:97,0
DA:98,0
DA:99,0
DA:106,0
DA:107,0
DA:108,0
BRF:0
BRH:0
LF:48
LH:0
end_of_record
SF:/src/rs-soroban-env/soroban-env-common/src/compare.rs
FN:58,_RNvXs5_NtCsdmZoVYnqinT_18soroban_env_common7compareNtNtCs8j26R3SUG40_16soroban_env_host6budget6BudgetINtB5_7CompareTRNtNtNtCs47RmZobMba4_11stellar_xdr4curr9generated9ScAddressRNtB1T_5ScValRNtB1T_22ContractDataDurabilityEE7compareBR_
FN:30,_RNvXNtCsdmZoVYnqinT_18soroban_env_common7compareNtNtCs8j26R3SUG40_16soroban_env_host4host4HostINtB2_7CompareRNtNtBO_11host_object10HostObjectE7compareBO_
FN:30,_RNvXNtCsdmZoVYnqinT_18soroban_env_common7compareNtNtCs8j26R3SUG40_16soroban_env_host6budget6BudgetINtB2_7CompareRNtNtNtCs47RmZobMba4_11stellar_xdr4curr9generated7ScErrorE7compareBO_
FN:30,_RNvXNtCsdmZoVYnqinT_18soroban_env_common7compareNtNtCs8j26R3SUG40_16soroban_env_host6budget6BudgetINtB2_7CompareRNtNtNtCs47RmZobMba4_11stellar_xdr4curr9generated12UInt256PartsE7compareBO_
FN:30,_RNvXNtCsdmZoVYnqinT_18soroban_env_common7compareNtNtCs8j26R3SUG40_16soroban_env_host6budget6BudgetINtB2_7CompareRNtNtNtCs47RmZobMba4_11stellar_xdr4curr9generated22ContractDataDurabilityE7compareBO_
FN:30,_RNvXNtCsdmZoVYnqinT_18soroban_env_common7compareNtNtCs8j26R3SUG40_16soroban_env_host6budget6BudgetINtB2_7CompareRNtNtNtCs47RmZobMba4_11stellar_xdr4curr9generated18ContractExecutableE7compareBO_
FN:30,_RNvXNtCsdmZoVYnqinT_18soroban_env_common7compareNtNtCs8j26R3SUG40_16soroban_env_host6budget6BudgetINtB2_7CompareRNtNtNtCs47RmZobMba4_11stellar_xdr4curr9generated21LedgerKeyContractDataE7compareBO_
FN:30,_RNvXNtCsdmZoVYnqinT_18soroban_env_common7compareNtNtCs8j26R3SUG40_16soroban_env_host6budget6BudgetINtB2_7CompareRmE7compareBO_
FN:30,_RNvXNtCsdmZoVYnqinT_18soroban_env_common7compareNtNtCs8j26R3SUG40_16soroban_env_host6budget6BudgetINtB2_7CompareRINtNtCs7L5q00ejtpZ_4core6option6OptionNtNtNtCs47RmZobMba4_11stellar_xdr4curr9generated5ScMapEE7compareBO_
FN:30,_RNvXNtCsdmZoVYnqinT_18soroban_env_common7compareNtNtCs8j26R3SUG40_16soroban_env_host6budget6BudgetINtB2_7CompareRNtNtNtCs47RmZobMba4_11stellar_xdr4curr9generated21LedgerKeyContractCodeE7compareBO_
FN:130,_RNvXs3_NtCsdmZoVYnqinT_18soroban_env_common7compareNtNtCs8j26R3SUG40_16soroban_env_host4host4HostINtB5_7CompareNtNtB7_3val3ValE7compareBR_
FN:30,_RNvXNtCsdmZoVYnqinT_18soroban_env_common7compareNtNtCs8j26R3SUG40_16soroban_env_host6budget6BudgetINtB2_7CompareRNtNtNtCs47RmZobMba4_11stellar_xdr4curr9generated9ScAddressE7compareBO_
FN:30,_RNvXNtCsdmZoVYnqinT_18soroban_env_common7compareNtNtCs8j26R3SUG40_16soroban_env_host6budget6BudgetINtB2_7CompareRNtNtNtCs47RmZobMba4_11stellar_xdr4curr9generated8DurationE7compareBO_
FN:30,_RNvXNtCsdmZoVYnqinT_18soroban_env_common7compareNtNtCs8j26R3SUG40_16soroban_env_host6budget6BudgetINtB2_7CompareRNtNtNtCs47RmZobMba4_11stellar_xdr4curr9generated5ScValE7compareBO_
FN:78,_RNvXs0_NtCsdmZoVYnqinT_18soroban_env_common7compareNtNtCs8j26R3SUG40_16soroban_env_host6budget6BudgetINtB5_7CompareINtNtCsjllP7bAX7YC_5alloc3vec3VecNtNtNtCs47RmZobMba4_11stellar_xdr4curr9generated5ScValEE7compareBR_
FN:78,_RNvXs0_NtCsdmZoVYnqinT_18soroban_env_common7compareNtNtCs8j26R3SUG40_16soroban_env_host4host4HostINtB5_7CompareINtNtCsjllP7bAX7YC_5alloc3vec3VecTNtNtB7_3val3ValB2j_EEE7compareBR_
FN:78,_RNvXs0_NtCsdmZoVYnqinT_18soroban_env_common7compareNtNtCs8j26R3SUG40_16soroban_env_host6budget6BudgetINtB5_7CompareINtNtCsjllP7bAX7YC_5alloc3vec3VecNtNtNtCs47RmZobMba4_11stellar_xdr4curr9generated10ScMapEntryEE7compareBR_
FN:30,_RNvXNtCsdmZoVYnqinT_18soroban_env_common7compareNtNtCs8j26R3SUG40_16soroban_env_host6budget6BudgetINtB2_7CompareRNtNtNtCs47RmZobMba4_11stellar_xdr4curr9generated16LedgerKeyAccountE7compareBO_
FN:30,_RNvXNtCsdmZoVYnqinT_18soroban_env_common7compareNtNtCs8j26R3SUG40_16soroban_env_host6budget6BudgetINtB2_7CompareRNtNtNtCs47RmZobMba4_11stellar_xdr4curr9generated9TimePointE7compareBO_
FN:30,_RNvXNtCsdmZoVYnqinT_18soroban_env_common7compareNtNtCs8j26R3SUG40_16soroban_env_host6budget6BudgetINtB2_7CompareRNtNtNtCs47RmZobMba4_11stellar_xdr4curr9generated12UInt128PartsE7compareBO_
FN:30,_RNvXNtCsdmZoVYnqinT_18soroban_env_common7compareNtNtCs8j26R3SUG40_16soroban_env_host6budget6BudgetINtB2_7CompareRNtNtNtCs47RmZobMba4_11stellar_xdr4curr9generated11Int256PartsE7compareBO_
FN:30,_RNvXNtCsdmZoVYnqinT_18soroban_env_common7compareNtNtCs8j26R3SUG40_16soroban_env_host6budget6BudgetINtB2_7CompareRlE7compareBO_
FN:30,_RNvXNtCsdmZoVYnqinT_18soroban_env_common7compareNtNtCs8j26R3SUG40_16soroban_env_host6budget6BudgetINtB2_7CompareRxE7compareBO_
FN:58,_RNvXs4_NtCsdmZoVYnqinT_18soroban_env_common7compareNtNtCs8j26R3SUG40_16soroban_env_host6budget6BudgetINtB5_7CompareTRNtNtNtCs47RmZobMba4_11stellar_xdr4curr9generated18ContractExecutableRINtNtCs7L5q00ejtpZ_4core6option6OptionNtB1T_5ScMapEEE7compareBR_
FN:30,_RNvXNtCsdmZoVYnqinT_18soroban_env_common7compareNtNtCs8j26R3SUG40_16soroban_env_host4host4HostINtB2_7CompareRNtNtB4_3val3ValE7compareBO_
FN:30,_RNvXNtCsdmZoVYnqinT_18soroban_env_common7compareNtNtCs8j26R3SUG40_16soroban_env_host6budget6BudgetINtB2_7CompareRbE7compareBO_
FN:30,_RNvXNtCsdmZoVYnqinT_18soroban_env_common7compareNtNtCs8j26R3SUG40_16soroban_env_host6budget6BudgetINtB2_7CompareRNtNtNtCs47RmZobMba4_11stellar_xdr4curr9generated18ScContractInstanceE7compareBO_
FN:107,_RNvXs2_NtCsdmZoVYnqinT_18soroban_env_common7compareNtNtCs8j26R3SUG40_16soroban_env_host6budget6BudgetINtB5_7CompareINtNtCsjllP7bAX7YC_5alloc2rc2RcNtNtNtCs47RmZobMba4_11stellar_xdr4curr9generated9LedgerKeyEE7compareBR_
FN:30,_RNvXNtCsdmZoVYnqinT_18soroban_env_common7compareNtNtCs8j26R3SUG40_16soroban_env_host6budget6BudgetINtB2_7CompareRNtNtNtCs47RmZobMba4_11stellar_xdr4curr9generated10ScNonceKeyE7compareBO_
FN:58,_RNvXs4_NtCsdmZoVYnqinT_18soroban_env_common7compareNtNtCs8j26R3SUG40_16soroban_env_host4host4HostINtB5_7CompareTNtNtB7_3val3ValB1M_EE7compareBR_
FN:30,_RNvXNtCsdmZoVYnqinT_18soroban_env_common7compareNtNtCs8j26R3SUG40_16soroban_env_host6budget6BudgetINtB2_7CompareRyE7compareBO_
FN:78,_RNvXs0_NtCsdmZoVYnqinT_18soroban_env_common7compareNtNtCs8j26R3SUG40_16soroban_env_host4host4HostINtB5_7CompareINtNtCsjllP7bAX7YC_5alloc3vec3VecNtNtB7_3val3ValEE7compareBR_
FN:30,_RNvXNtCsdmZoVYnqinT_18soroban_env_common7compareNtNtCs8j26R3SUG40_16soroban_env_host6budget6BudgetINtB2_7CompareRNtNtNtCs47RmZobMba4_11stellar_xdr4curr9generated11Int128PartsE7compareBO_
FN:39,_RNvXs_NtCsdmZoVYnqinT_18soroban_env_common7compareNtNtCs8j26R3SUG40_16soroban_env_host6budget6BudgetINtB4_7CompareINtNtCs7L5q00ejtpZ_4core6option6OptionNtNtNtCs47RmZobMba4_11stellar_xdr4curr9generated5ScMapEE7compareBQ_
FN:30,_RNvXNtCsdmZoVYnqinT_18soroban_env_common7compareNtNtCs8j26R3SUG40_16soroban_env_host6budget6BudgetINtB2_7CompareRNtNtNtCs47RmZobMba4_11stellar_xdr4curr9generated18LedgerKeyTrustLineE7compareBO_
FN:107,_RNvXININtCsdmZoVYnqinT_18soroban_env_common7compares2_0ppEpINtB5_7CompareINtNtCsjllP7bAX7YC_5alloc2rc2RcpEE7compareB7_
FN:30,_RNvXININtCsdmZoVYnqinT_18soroban_env_common7compare0ppEpINtB5_7CompareRpE7compareB7_
FN:58,_RNvXININtCsdmZoVYnqinT_18soroban_env_common7compares4_0ppppEpINtB5_7CompareTppEE7compareB7_
FN:58,_RNvXININtCsdmZoVYnqinT_18soroban_env_common7compares7_0pppppppEpINtB5_7CompareTpppppEE7compareB7_
FN:130,_RNvXININtCsdmZoVYnqinT_18soroban_env_common7compares3_0pEpINtB5_7CompareNtNtB7_3val3ValE7compareB7_
FN:78,_RNvXININtCsdmZoVYnqinT_18soroban_env_common7compares0_0ppEpINtB5_7CompareINtNtCsjllP7bAX7YC_5alloc3vec3VecpEE7compareB7_
FN:98,_RNvXININtCsdmZoVYnqinT_18soroban_env_common7compares1_0ppEpINtB5_7CompareINtNtCsjllP7bAX7YC_5alloc5boxed3BoxpEE7compareB7_
FN:58,_RNvXININtCsdmZoVYnqinT_18soroban_env_common7compares5_0pppppEpINtB5_7CompareTpppEE7compareB7_
FN:58,_RNvXININtCsdmZoVYnqinT_18soroban_env_common7compares6_0ppppppEpINtB5_7CompareTppppEE7compareB7_
FN:39,_RNvXININtCsdmZoVYnqinT_18soroban_env_common7compares_0ppEpINtB5_7CompareINtNtCs7L5q00ejtpZ_4core6option6OptionpEE7compareB7_
FNDA:67009,_RNvXs5_NtCsdmZoVYnqinT_18soroban_env_common7compareNtNtCs8j26R3SUG40_16soroban_env_host6budget6BudgetINtB5_7CompareTRNtNtNtCs47RmZobMba4_11stellar_xdr4curr9generated9ScAddressRNtB1T_5ScValRNtB1T_22ContractDataDurabilityEE7compareBR_
FNDA:2164,_RNvXNtCsdmZoVYnqinT_18soroban_env_common7compareNtNtCs8j26R3SUG40_16soroban_env_host4host4HostINtB2_7CompareRNtNtBO_11host_object10HostObjectE7compareBO_
FNDA:12,_RNvXNtCsdmZoVYnqinT_18soroban_env_common7compareNtNtCs8j26R3SUG40_16soroban_env_host6budget6BudgetINtB2_7CompareRNtNtNtCs47RmZobMba4_11stellar_xdr4curr9generated7ScErrorE7compareBO_
FNDA:0,_RNvXNtCsdmZoVYnqinT_18soroban_env_common7compareNtNtCs8j26R3SUG40_16soroban_env_host6budget6BudgetINtB2_7CompareRNtNtNtCs47RmZobMba4_11stellar_xdr4curr9generated12UInt256PartsE7compareBO_
FNDA:30562,_RNvXNtCsdmZoVYnqinT_18soroban_env_common7compareNtNtCs8j26R3SUG40_16soroban_env_host6budget6BudgetINtB2_7CompareRNtNtNtCs47RmZobMba4_11stellar_xdr4curr9generated22ContractDataDurabilityE7compareBO_
FNDA:0,_RNvXNtCsdmZoVYnqinT_18soroban_env_common7compareNtNtCs8j26R3SUG40_16soroban_env_host6budget6BudgetINtB2_7CompareRNtNtNtCs47RmZobMba4_11stellar_xdr4curr9generated18ContractExecutableE7compareBO_
FNDA:67009,_RNvXNtCsdmZoVYnqinT_18soroban_env_common7compareNtNtCs8j26R3SUG40_16soroban_env_host6budget6BudgetINtB2_7CompareRNtNtNtCs47RmZobMba4_11stellar_xdr4curr9generated21LedgerKeyContractDataE7compareBO_
FNDA:2511,_RNvXNtCsdmZoVYnqinT_18soroban_env_common7compareNtNtCs8j26R3SUG40_16soroban_env_host6budget6BudgetINtB2_7CompareRmE7compareBO_
FNDA:0,_RNvXNtCsdmZoVYnqinT_18soroban_env_common7compareNtNtCs8j26R3SUG40_16soroban_env_host6budget6BudgetINtB2_7CompareRINtNtCs7L5q00ejtpZ_4core6option6OptionNtNtNtCs47RmZobMba4_11stellar_xdr4curr9generated5ScMapEE7compareBO_
FNDA:53866,_RNvXNtCsdmZoVYnqinT_18soroban_env_common7compareNtNtCs8j26R3SUG40_16soroban_env_host6budget6BudgetINtB2_7CompareRNtNtNtCs47RmZobMba4_11stellar_xdr4curr9generated21LedgerKeyContractCodeE7compareBO_
FNDA:2247,_RNvXs3_NtCsdmZoVYnqinT_18soroban_env_common7compareNtNtCs8j26R3SUG40_16soroban_env_host4host4HostINtB5_7CompareNtNtB7_3val3ValE7compareBR_
FNDA:67015,_RNvXNtCsdmZoVYnqinT_18soroban_env_common7compareNtNtCs8j26R3SUG40_16soroban_env_host6budget6BudgetINtB2_7CompareRNtNtNtCs47RmZobMba4_11stellar_xdr4curr9generated9ScAddressE7compareBO_
FNDA:0,_RNvXNtCsdmZoVYnqinT_18soroban_env_common7compareNtNtCs8j26R3SUG40_16soroban_env_host6budget6BudgetINtB2_7CompareRNtNtNtCs47RmZobMba4_11stellar_xdr4curr9generated8DurationE7compareBO_
FNDA:35782,_RNvXNtCsdmZoVYnqinT_18soroban_env_common7compareNtNtCs8j26R3SUG40_16soroban_env_host6budget6BudgetINtB2_7CompareRNtNtNtCs47RmZobMba4_11stellar_xdr4curr9generated5ScValE7compareBO_
FNDA:0,_RNvXs0_NtCsdmZoVYnqinT_18soroban_env_common7compareNtNtCs8j26R3SUG40_16soroban_env_host6budget6BudgetINtB5_7CompareINtNtCsjllP7bAX7YC_5alloc3vec3VecNtNtNtCs47RmZobMba4_11stellar_xdr4curr9generated5ScValEE7compareBR_
FNDA:0,_RNvXs0_NtCsdmZoVYnqinT_18soroban_env_common7compareNtNtCs8j26R3SUG40_16soroban_env_host4host4HostINtB5_7CompareINtNtCsjllP7bAX7YC_5alloc3vec3VecTNtNtB7_3val3ValB2j_EEE7compareBR_
FNDA:6,_RNvXs0_NtCsdmZoVYnqinT_18soroban_env_common7compareNtNtCs8j26R3SUG40_16soroban_env_host6budget6BudgetINtB5_7CompareINtNtCsjllP7bAX7YC_5alloc3vec3VecNtNtNtCs47RmZobMba4_11stellar_xdr4curr9generated10ScMapEntryEE7compareBR_
FNDA:55924,_RNvXNtCsdmZoVYnqinT_18soroban_env_common7compareNtNtCs8j26R3SUG40_16soroban_env_host6budget6BudgetINtB2_7CompareRNtNtNtCs47RmZobMba4_11stellar_xdr4curr9generated16LedgerKeyAccountE7compareBO_
FNDA:0,_RNvXNtCsdmZoVYnqinT_18soroban_env_common7compareNtNtCs8j26R3SUG40_16soroban_env_host6budget6BudgetINtB2_7CompareRNtNtNtCs47RmZobMba4_11stellar_xdr4curr9generated9TimePointE7compareBO_
FNDA:0,_RNvXNtCsdmZoVYnqinT_18soroban_env_common7compareNtNtCs8j26R3SUG40_16soroban_env_host6budget6BudgetINtB2_7CompareRNtNtNtCs47RmZobMba4_11stellar_xdr4curr9generated12UInt128PartsE7compareBO_
FNDA:0,_RNvXNtCsdmZoVYnqinT_18soroban_env_common7compareNtNtCs8j26R3SUG40_16soroban_env_host6budget6BudgetINtB2_7CompareRNtNtNtCs47RmZobMba4_11stellar_xdr4curr9generated11Int256PartsE7compareBO_
FNDA:0,_RNvXNtCsdmZoVYnqinT_18soroban_env_common7compareNtNtCs8j26R3SUG40_16soroban_env_host6budget6BudgetINtB2_7CompareRlE7compareBO_
FNDA:0,_RNvXNtCsdmZoVYnqinT_18soroban_env_common7compareNtNtCs8j26R3SUG40_16soroban_env_host6budget6BudgetINtB2_7CompareRxE7compareBO_
FNDA:0,_RNvXs4_NtCsdmZoVYnqinT_18soroban_env_common7compareNtNtCs8j26R3SUG40_16soroban_env_host6budget6BudgetINtB5_7CompareTRNtNtNtCs47RmZobMba4_11stellar_xdr4curr9generated18ContractExecutableRINtNtCs7L5q00ejtpZ_4core6option6OptionNtB1T_5ScMapEEE7compareBR_
FNDA:0,_RNvXNtCsdmZoVYnqinT_18soroban_env_common7compareNtNtCs8j26R3SUG40_16soroban_env_host4host4HostINtB2_7CompareRNtNtB4_3val3ValE7compareBO_
FNDA:3,_RNvXNtCsdmZoVYnqinT_18soroban_env_common7compareNtNtCs8j26R3SUG40_16soroban_env_host6budget6BudgetINtB2_7CompareRbE7compareBO_
FNDA:0,_RNvXNtCsdmZoVYnqinT_18soroban_env_common7compareNtNtCs8j26R3SUG40_16soroban_env_host6budget6BudgetINtB2_7CompareRNtNtNtCs47RmZobMba4_11stellar_xdr4curr9generated18ScContractInstanceE7compareBO_
FNDA:299955,_RNvXs2_NtCsdmZoVYnqinT_18soroban_env_common7compareNtNtCs8j26R3SUG40_16soroban_env_host6budget6BudgetINtB5_7CompareINtNtCsjllP7bAX7YC_5alloc2rc2RcNtNtNtCs47RmZobMba4_11stellar_xdr4curr9generated9LedgerKeyEE7compareBR_
FNDA:8,_RNvXNtCsdmZoVYnqinT_18soroban_env_common7compareNtNtCs8j26R3SUG40_16soroban_env_host6budget6BudgetINtB2_7CompareRNtNtNtCs47RmZobMba4_11stellar_xdr4curr9generated10ScNonceKeyE7compareBO_
FNDA:0,_RNvXs4_NtCsdmZoVYnqinT_18soroban_env_common7compareNtNtCs8j26R3SUG40_16soroban_env_host4host4HostINtB5_7CompareTNtNtB7_3val3ValB1M_EE7compareBR_
FNDA:0,_RNvXNtCsdmZoVYnqinT_18soroban_env_common7compareNtNtCs8j26R3SUG40_16soroban_env_host6budget6BudgetINtB2_7CompareRyE7compareBO_
FNDA:0,_RNvXs0_NtCsdmZoVYnqinT_18soroban_env_common7compareNtNtCs8j26R3SUG40_16soroban_env_host4host4HostINtB5_7CompareINtNtCsjllP7bAX7YC_5alloc3vec3VecNtNtB7_3val3ValEE7compareBR_
FNDA:0,_RNvXNtCsdmZoVYnqinT_18soroban_env_common7compareNtNtCs8j26R3SUG40_16soroban_env_host6budget6BudgetINtB2_7CompareRNtNtNtCs47RmZobMba4_11stellar_xdr4curr9generated11Int128PartsE7compareBO_
FNDA:0,_RNvXs_NtCsdmZoVYnqinT_18soroban_env_common7compareNtNtCs8j26R3SUG40_16soroban_env_host6budget6BudgetINtB4_7CompareINtNtCs7L5q00ejtpZ_4core6option6OptionNtNtNtCs47RmZobMba4_11stellar_xdr4curr9generated5ScMapEE7compareBQ_
FNDA:0,_RNvXNtCsdmZoVYnqinT_18soroban_env_common7compareNtNtCs8j26R3SUG40_16soroban_env_host6budget6BudgetINtB2_7CompareRNtNtNtCs47RmZobMba4_11stellar_xdr4curr9generated18LedgerKeyTrustLineE7compareBO_
FNDA:0,_RNvXININtCsdmZoVYnqinT_18soroban_env_common7compares2_0ppEpINtB5_7CompareINtNtCsjllP7bAX7YC_5alloc2rc2RcpEE7compareB7_
FNDA:0,_RNvXININtCsdmZoVYnqinT_18soroban_env_common7compare0ppEpINtB5_7CompareRpE7compareB7_
FNDA:0,_RNvXININtCsdmZoVYnqinT_18soroban_env_common7compares4_0ppppEpINtB5_7CompareTppEE7compareB7_
FNDA:0,_RNvXININtCsdmZoVYnqinT_18soroban_env_common7compares7_0pppppppEpINtB5_7CompareTpppppEE7compareB7_
FNDA:0,_RNvXININtCsdmZoVYnqinT_18soroban_env_common7compares3_0pEpINtB5_7CompareNtNtB7_3val3ValE7compareB7_
FNDA:0,_RNvXININtCsdmZoVYnqinT_18soroban_env_common7compares0_0ppEpINtB5_7CompareINtNtCsjllP7bAX7YC_5alloc3vec3VecpEE7compareB7_
FNDA:0,_RNvXININtCsdmZoVYnqinT_18soroban_env_common7compares1_0ppEpINtB5_7CompareINtNtCsjllP7bAX7YC_5alloc5boxed3BoxpEE7compareB7_
FNDA:0,_RNvXININtCsdmZoVYnqinT_18soroban_env_common7compares5_0pppppEpINtB5_7CompareTpppEE7compareB7_
FNDA:0,_RNvXININtCsdmZoVYnqinT_18soroban_env_common7compares6_0ppppppEpINtB5_7CompareTppppEE7compareB7_
FNDA:0,_RNvXININtCsdmZoVYnqinT_18soroban_env_common7compares_0ppEpINtB5_7CompareINtNtCs7L5q00ejtpZ_4core6option6OptionpEE7compareB7_
FNF:7
FNH:5
DA:30,314856
DA:31,314856
DA:32,314856
DA:39,0
DA:40,0
DA:41,0
DA:42,0
DA:43,0
DA:45,0
DA:58,67009
DA:59,0
DA:60,35782
DA:63,30562
DA:64,67009
DA:78,6
DA:79,6
DA:81,6
DA:82,6
DA:83,0
DA:84,0
DA:85,0
DA:86,0
DA:87,0
DA:91,6
DA:98,0
DA:99,0
DA:100,0
DA:107,299955
DA:108,299955
DA:109,299955
DA:130,2247
DA:131,2247
DA:133,2
DA:134,2245
DA:135,2245
DA:137,2168
DA:138,2168
DA:139,2158
DA:140,10
DA:141,5
DA:143,5
DA:145,77
DA:146,77
DA:147,77
DA:148,77
DA:149,0
DA:150,77
DA:151,0
DA:154,77
DA:155,0
DA:156,0
DA:157,0
DA:159,0
DA:161,77
DA:162,0
DA:164,0
DA:165,0
DA:167,0
DA:168,0
DA:170,0
DA:171,0
DA:173,0
DA:174,0
DA:176,0
DA:178,0
DA:179,0
DA:197,0
DA:198,0
DA:199,0
DA:200,0
DA:202,0
DA:203,0
DA:206,2247
BRF:0
BRH:0
LF:73
LH:34
end_of_record
SF:/src/rs-soroban-env/soroban-env-common/src/convert.rs
FN:55,_RNvXNtCsdmZoVYnqinT_18soroban_env_common7convertTNtNtB4_6symbol6SymbolNtNtB4_3val3ValEINtB2_10TryIntoValNtNtCs8j26R3SUG40_16soroban_env_host4host4HostB16_E12try_into_valB1I_
FN:55,_RNvXNtCsdmZoVYnqinT_18soroban_env_common7convertNtNtB4_3val3ValINtB2_10TryIntoValNtNtCs8j26R3SUG40_16soroban_env_host4host4HostNtNtCsi2TmYI1UVRz_6ethnum3int4I256E12try_into_valB1l_
FN:55,_RNvXNtCsdmZoVYnqinT_18soroban_env_common7convertNtNtB4_3val9MapObjectINtB2_10TryIntoValNtNtCs8j26R3SUG40_16soroban_env_host4host4HostNtNtNtB1r_17builtin_contracts16account_contract27CreateContractHostFnContextE12try_into_valB1r_
FN:55,_RNvXNtCsdmZoVYnqinT_18soroban_env_common7convertbINtB2_10TryIntoValNtNtCs8j26R3SUG40_16soroban_env_host4host4HostNtNtB4_3val3ValE12try_into_valB17_
FN:55,_RNvXNtCsdmZoVYnqinT_18soroban_env_common7convertNtNtNtCs8j26R3SUG40_16soroban_env_host17builtin_contracts12common_types18ContractExecutableINtB2_10TryIntoValNtNtBQ_4host4HostNtNtB4_3val3ValE12try_into_valBQ_
FN:55,_RNvXNtCsdmZoVYnqinT_18soroban_env_common7convertNtNtB4_3val13AddressObjectINtB2_10TryIntoValNtNtCs8j26R3SUG40_16soroban_env_host4host4HostNtNtNtB1w_17builtin_contracts10base_types7AddressE12try_into_valB1w_
FN:55,_RNvXNtCsdmZoVYnqinT_18soroban_env_common7convertNtNtB4_6symbol11SymbolSmallINtB2_10TryIntoValNtNtCs8j26R3SUG40_16soroban_env_host4host4HostNtNtB4_3val3ValE12try_into_valB1x_
FN:130,_RNvXs4_NtCsdmZoVYnqinT_18soroban_env_common7convertNtNtB7_3num6U64ValINtB5_10TryFromValNtNtCs8j26R3SUG40_16soroban_env_host4host4HostyE12try_from_valB1r_
FN:55,_RNvXNtCsdmZoVYnqinT_18soroban_env_common7convertNtNtNtCs8j26R3SUG40_16soroban_env_host17builtin_contracts16account_contract28ContractAuthorizationContextINtB2_10TryIntoValNtNtBQ_4host4HostNtNtB4_3val3ValE12try_into_valBQ_
FN:55,_RNvXNtCsdmZoVYnqinT_18soroban_env_common7convertNtNtB4_3val9VecObjectINtB2_10TryIntoValNtNtCs8j26R3SUG40_16soroban_env_host4host4HostNtNtNtNtB1r_17builtin_contracts22stellar_asset_contract13storage_types15InstanceDataKeyE12try_into_valB1r_
FN:55,_RNvXNtCsdmZoVYnqinT_18soroban_env_common7convertNtNtB4_3val9MapObjectINtB2_10TryIntoValNtNtCs8j26R3SUG40_16soroban_env_host4host4HostNtNtNtNtB1r_17builtin_contracts22stellar_asset_contract12public_types18AlphaNum4AssetInfoE12try_into_valB1r_
FN:55,_RNvXNtCsdmZoVYnqinT_18soroban_env_common7convertNtNtNtCs47RmZobMba4_11stellar_xdr4curr9generated8ScSymbolINtB2_10TryIntoValNtNtCs8j26R3SUG40_16soroban_env_host4host4HostNtNtB4_6symbol6SymbolE12try_into_valB21_
FN:55,_RNvXNtCsdmZoVYnqinT_18soroban_env_common7convertNtNtB4_3val3ValINtB2_10TryIntoValNtNtCs8j26R3SUG40_16soroban_env_host4host4HostNtNtNtB1l_17builtin_contracts16account_contract28ContractAuthorizationContextE12try_into_valB1l_
FN:55,_RNvXNtCsdmZoVYnqinT_18soroban_env_common7convertNtNtB4_3val9MapObjectINtB2_10TryIntoValNtNtCs8j26R3SUG40_16soroban_env_host4host4HostNtNtNtNtB1r_17builtin_contracts22stellar_asset_contract13storage_types16AllowanceDataKeyE12try_into_valB1r_
FN:55,_RNvXNtCsdmZoVYnqinT_18soroban_env_common7convertNtNtNtNtCs8j26R3SUG40_16soroban_env_host17builtin_contracts22stellar_asset_contract13storage_types12BalanceValueINtB2_10TryIntoValNtNtBS_4host4HostNtNtB4_3val3ValE12try_into_valBS_
FN:55,_RNvXNtCsdmZoVYnqinT_18soroban_env_common7convertReINtB2_10TryIntoValNtNtCs8j26R3SUG40_16soroban_env_host4host4HostNtNtB4_6symbol6SymbolE12try_into_valB18_
FN:55,_RNvXNtCsdmZoVYnqinT_18soroban_env_common7convertNtNtB4_3val3ValINtB2_10TryIntoValNtNtCs8j26R3SUG40_16soroban_env_host4host4HostNtNtNtB1l_17builtin_contracts10base_types7AddressE12try_into_valB1l_
FN:55,_RNvXNtCsdmZoVYnqinT_18soroban_env_common7convertmINtB2_10TryIntoValNtNtCs8j26R3SUG40_16soroban_env_host4host4HostNtNtB4_3val3ValE12try_into_valB17_
FN:55,_RNvXNtCsdmZoVYnqinT_18soroban_env_common7convertNtNtB4_3val9VecObjectINtB2_10TryIntoValNtNtCs8j26R3SUG40_16soroban_env_host4host4HostNtNtNtB1r_17builtin_contracts21invoker_contract_auth24InvokerContractAuthEntryE12try_into_valB1r_
FN:55,_RNvXNtCsdmZoVYnqinT_18soroban_env_common7convertNtNtB4_3val3ValINtB2_10TryIntoValNtNtCs8j26R3SUG40_16soroban_env_host4host4HostbE12try_into_valB1l_
FN:55,_RNvXNtCsdmZoVYnqinT_18soroban_env_common7convertNtNtCsi2TmYI1UVRz_6ethnum4uint4U256INtB2_10TryIntoValNtNtCs8j26R3SUG40_16soroban_env_host4host4HostNtNtB4_3num7U256ValE12try_into_valB1F_
FN:55,_RNvXNtCsdmZoVYnqinT_18soroban_env_common7convertNtNtB4_3val3ValINtB2_10TryIntoValNtNtCs8j26R3SUG40_16soroban_env_host4host4HostNtNtNtNtB1l_17builtin_contracts22stellar_asset_contract13storage_types12BalanceValueE12try_into_valB1l_
FN:310,_RNvXsh_NtCsdmZoVYnqinT_18soroban_env_common7convertNtNtB7_3num7I256ValINtB5_10TryFromValNtNtCs8j26R3SUG40_16soroban_env_host4host4HostNtNtCsi2TmYI1UVRz_6ethnum3int4I256E12try_from_valB1s_
FN:55,_RNvXNtCsdmZoVYnqinT_18soroban_env_common7convertNtNtB4_3val3ValINtB2_10TryIntoValNtNtCs8j26R3SUG40_16soroban_env_host4host4HostNtNtB4_5bytes11BytesObjectE12try_into_valB1l_
FN:354,_RNvXsk_NtCsdmZoVYnqinT_18soroban_env_common7convertNtNtB7_3num7U256ValINtB5_10TryFromValNtNtCs8j26R3SUG40_16soroban_env_host4host4HostNtNtCsi2TmYI1UVRz_6ethnum4uint4U256E12try_from_valB1s_
FN:55,_RNvXNtCsdmZoVYnqinT_18soroban_env_common7convertNtNtB4_3val9VecObjectINtB2_10TryIntoValNtNtCs8j26R3SUG40_16soroban_env_host4host4HostNtNtNtB1r_17builtin_contracts12common_types18ContractExecutableE12try_into_valB1r_
FN:55,_RNvXNtCsdmZoVYnqinT_18soroban_env_common7convertNtNtB4_6symbol6SymbolINtB2_10TryIntoValNtNtCs8j26R3SUG40_16soroban_env_host4host4HostNtNtB4_3val3ValE12try_into_valB1r_
FN:55,_RNvXNtCsdmZoVYnqinT_18soroban_env_common7convertNtNtCsi2TmYI1UVRz_6ethnum3int4I256INtB2_10TryIntoValNtNtCs8j26R3SUG40_16soroban_env_host4host4HostNtNtB4_3num7I256ValE12try_into_valB1E_
FN:55,_RNvXNtCsdmZoVYnqinT_18soroban_env_common7convertNtNtB4_3val3ValINtB2_10TryIntoValNtNtCs8j26R3SUG40_16soroban_env_host4host4HostBK_E12try_into_valB1l_
FN:55,_RNvXNtCsdmZoVYnqinT_18soroban_env_common7convertNtNtNtCs8j26R3SUG40_16soroban_env_host17builtin_contracts10base_types6StringINtB2_10TryIntoValNtNtBQ_4host4HostNtNtB4_3val3ValE12try_into_valBQ_
FN:55,_RNvXNtCsdmZoVYnqinT_18soroban_env_common7convertNtNtNtCs8j26R3SUG40_16soroban_env_host17builtin_contracts10base_types7AddressINtB2_10TryIntoValNtNtBQ_4host4HostNtNtB4_3val3ValE12try_into_valBQ_
FN:55,_RNvXNtCsdmZoVYnqinT_18soroban_env_common7convertNtNtB4_6symbol6SymbolINtB2_10TryIntoValNtNtCs8j26R3SUG40_16soroban_env_host4host4HostNtBM_9SymbolStrE12try_into_valB1r_
FN:55,_RNvXNtCsdmZoVYnqinT_18soroban_env_common7convertNtNtB4_3val3ValINtB2_10TryIntoValNtNtCs8j26R3SUG40_16soroban_env_host4host4HostNtNtNtB1l_17builtin_contracts10base_types6StringE12try_into_valB1l_
FN:201,_RNvXs9_NtCsdmZoVYnqinT_18soroban_env_common7convertnINtB5_10TryFromValNtNtCs8j26R3SUG40_16soroban_env_host4host4HostNtNtB7_3val3ValE12try_from_valB1a_
FN:55,_RNvXNtCsdmZoVYnqinT_18soroban_env_common7convertNtNtB4_3val9MapObjectINtB2_10TryIntoValNtNtCs8j26R3SUG40_16soroban_env_host4host4HostNtNtNtB1r_17builtin_contracts21invoker_contract_auth21SubContractInvocationE12try_into_valB1r_
FN:55,_RNvXNtCsdmZoVYnqinT_18soroban_env_common7convertNtNtB4_6object6ObjectINtB2_10TryIntoValNtNtCs8j26R3SUG40_16soroban_env_host4host4HostNtBM_11ScValObjectE12try_into_valB1r_
FN:476,_RNvXsm_NtCsdmZoVYnqinT_18soroban_env_common7convertNtNtB7_3val3ValINtB5_10TryFromValNtNtCs8j26R3SUG40_16soroban_env_host4host4HostNtNtNtCs47RmZobMba4_11stellar_xdr4curr9generated5ScValE12try_from_valB1o_
FN:55,_RNvXNtCsdmZoVYnqinT_18soroban_env_common7convertNtNtB4_3val9MapObjectINtB2_10TryIntoValNtNtCs8j26R3SUG40_16soroban_env_host4host4HostNtNtNtNtB1r_17builtin_contracts22stellar_asset_contract12public_types19AlphaNum12AssetInfoE12try_into_valB1r_
FN:55,_RNvXNtCsdmZoVYnqinT_18soroban_env_common7convertTNtNtB4_6symbol6SymbolEINtB2_10TryIntoValNtNtCs8j26R3SUG40_16soroban_env_host4host4HostNtNtB4_3val3ValE12try_into_valB1t_
FN:55,_RNvXNtCsdmZoVYnqinT_18soroban_env_common7convertNtNtNtNtCs8j26R3SUG40_16soroban_env_host17builtin_contracts22stellar_asset_contract13storage_types7DataKeyINtB2_10TryIntoValNtNtBS_4host4HostNtNtB4_3val3ValE12try_into_valBS_
FN:55,_RNvXNtCsdmZoVYnqinT_18soroban_env_common7convertNtNtNtNtCs8j26R3SUG40_16soroban_env_host17builtin_contracts22stellar_asset_contract8metadata28StellarAssetContractMetadataINtB2_10TryIntoValNtNtBS_4host4HostNtNtB4_3val3ValE12try_into_valBS_
FN:55,_RNvXNtCsdmZoVYnqinT_18soroban_env_common7convertINtNtNtCs8j26R3SUG40_16soroban_env_host17builtin_contracts10base_types6BytesNKj20_EINtB2_10TryIntoValNtNtBR_4host4HostNtNtB4_3val3ValE12try_into_valBR_
FN:225,_RNvXsb_NtCsdmZoVYnqinT_18soroban_env_common7convertNtNtB7_3num7I128ValINtB5_10TryFromValNtNtCs8j26R3SUG40_16soroban_env_host4host4HostnE12try_from_valB1s_
FN:55,_RNvXNtCsdmZoVYnqinT_18soroban_env_common7convertNtNtB4_3val3ValINtB2_10TryIntoValNtNtCs8j26R3SUG40_16soroban_env_host4host4HostmE12try_into_valB1l_
FN:55,_RNvXNtCsdmZoVYnqinT_18soroban_env_common7convertReINtB2_10TryIntoValNtNtCs8j26R3SUG40_16soroban_env_host4host4HostNtNtB4_3val3ValE12try_into_valB18_
FN:383,_RNCNvXsl_NtCsdmZoVYnqinT_18soroban_env_common7convertNtNtNtCs47RmZobMba4_11stellar_xdr4curr9generated5ScValINtB7_10TryFromValNtNtCs8j26R3SUG40_16soroban_env_host4host4HostNtNtB9_3val3ValE12try_from_val0B23_
FN:55,_RNvXNtCsdmZoVYnqinT_18soroban_env_common7convertNtNtB4_3val3ValINtB2_10TryIntoValNtNtCs8j26R3SUG40_16soroban_env_host4host4HostnE12try_into_valB1l_
FN:55,_RNvXNtCsdmZoVYnqinT_18soroban_env_common7convertNtNtB4_3val9MapObjectINtB2_10TryIntoValNtNtCs8j26R3SUG40_16soroban_env_host4host4HostNtNtNtB1r_17builtin_contracts16account_contract28ContractAuthorizationContextE12try_into_valB1r_
FN:55,_RNvXNtCsdmZoVYnqinT_18soroban_env_common7convertNtNtB4_3val3ValINtB2_10TryIntoValNtNtCs8j26R3SUG40_16soroban_env_host4host4HostINtNtNtB1l_17builtin_contracts10base_types6BytesNKj40_EE12try_into_valB1l_
FN:55,_RNvXNtCsdmZoVYnqinT_18soroban_env_common7convertuINtB2_10TryIntoValNtNtCs8j26R3SUG40_16soroban_env_host4host4HostNtNtB4_3val3ValE12try_into_valB17_
FN:328,_RNvXsi_NtCsdmZoVYnqinT_18soroban_env_common7convertNtNtCsi2TmYI1UVRz_6ethnum4uint4U256INtB5_10TryFromValNtNtCs8j26R3SUG40_16soroban_env_host4host4HostNtNtB7_3val3ValE12try_from_valB1I_
FN:378,_RNvXsl_NtCsdmZoVYnqinT_18soroban_env_common7convertNtNtNtCs47RmZobMba4_11stellar_xdr4curr9generated5ScValINtB5_10TryFromValNtNtCs8j26R3SUG40_16soroban_env_host4host4HostNtNtB7_3val3ValE12try_from_valB21_
FN:55,_RNvXNtCsdmZoVYnqinT_18soroban_env_common7convertNtNtB4_3val3ValINtB2_10TryIntoValNtNtCs8j26R3SUG40_16soroban_env_host4host4HostNtNtNtNtB1l_17builtin_contracts22stellar_asset_contract12public_types9AssetInfoE12try_into_valB1l_
FN:55,_RNvXNtCsdmZoVYnqinT_18soroban_env_common7convertNtNtB4_3val3ValINtB2_10TryIntoValNtNtCs8j26R3SUG40_16soroban_env_host4host4HostNtNtCsi2TmYI1UVRz_6ethnum4uint4U256E12try_into_valB1l_
FN:79,_RNvXs0_NtCsdmZoVYnqinT_18soroban_env_common7convertNtNtB7_3val3ValINtB5_10TryFromValNtNtCs8j26R3SUG40_16soroban_env_host4host4HostxE12try_from_valB1o_
FN:55,_RNvXNtCsdmZoVYnqinT_18soroban_env_common7convertINtNtNtCs8j26R3SUG40_16soroban_env_host17builtin_contracts10base_types6BytesNKj40_EINtB2_10TryIntoValNtNtBR_4host4HostNtNtB4_3val3ValE12try_into_valBR_
FN:55,_RNvXNtCsdmZoVYnqinT_18soroban_env_common7convertNtNtNtNtCs8j26R3SUG40_16soroban_env_host17builtin_contracts22stellar_asset_contract12public_types9AssetInfoINtB2_10TryIntoValNtNtBS_4host4HostNtNtB4_3val3ValE12try_into_valBS_
FN:55,_RNvXNtCsdmZoVYnqinT_18soroban_env_common7convertNtNtB4_3val9MapObjectINtB2_10TryIntoValNtNtCs8j26R3SUG40_16soroban_env_host4host4HostNtNtNtNtB1r_17builtin_contracts22stellar_asset_contract13storage_types14AllowanceValueE12try_into_valB1r_
FN:55,_RNvXNtCsdmZoVYnqinT_18soroban_env_common7convertNtNtB4_3val9MapObjectINtB2_10TryIntoValNtNtCs8j26R3SUG40_16soroban_env_host4host4HostNtNtNtNtB1r_17builtin_contracts22stellar_asset_contract8metadata28StellarAssetContractMetadataE12try_into_valB1r_
FN:55,_RNvXNtCsdmZoVYnqinT_18soroban_env_common7convertNtNtB4_3val9VecObjectINtB2_10TryIntoValNtNtCs8j26R3SUG40_16soroban_env_host4host4HostNtNtNtNtB1r_17builtin_contracts22stellar_asset_contract13storage_types7DataKeyE12try_into_valB1r_
FN:55,_RNvXNtCsdmZoVYnqinT_18soroban_env_common7convertNtNtB4_3val3ValINtB2_10TryIntoValNtNtCs8j26R3SUG40_16soroban_env_host4host4HostNtNtB4_6symbol6SymbolE12try_into_valB1l_
FN:217,_RNvXsa_NtCsdmZoVYnqinT_18soroban_env_common7convertNtNtB7_3val3ValINtB5_10TryFromValNtNtCs8j26R3SUG40_16soroban_env_host4host4HostnE12try_from_valB1o_
FN:55,_RNvXNtCsdmZoVYnqinT_18soroban_env_common7convertNtNtNtNtCs8j26R3SUG40_16soroban_env_host17builtin_contracts22stellar_asset_contract13storage_types14AllowanceValueINtB2_10TryIntoValNtNtBS_4host4HostNtNtB4_3val3ValE12try_into_valBS_
FN:55,_RNvXNtCsdmZoVYnqinT_18soroban_env_common7convertNtNtB4_3val3ValINtB2_10TryIntoValNtNtCs8j26R3SUG40_16soroban_env_host4host4HostNtNtNtB1l_17builtin_contracts12common_types18ContractExecutableE12try_into_valB1l_
FN:55,_RNvXNtCsdmZoVYnqinT_18soroban_env_common7convertNtNtB4_3val9MapObjectINtB2_10TryIntoValNtNtCs8j26R3SUG40_16soroban_env_host4host4HostNtNtNtB1r_17builtin_contracts16account_contract23AccountEd25519SignatureE12try_into_valB1r_
FN:55,_RNvXNtCsdmZoVYnqinT_18soroban_env_common7convertNtNtNtNtCs8j26R3SUG40_16soroban_env_host17builtin_contracts22stellar_asset_contract13storage_types15InstanceDataKeyINtB2_10TryIntoValNtNtBS_4host4HostNtNtB4_3val3ValE12try_into_valBS_
FN:55,_RNvXNtCsdmZoVYnqinT_18soroban_env_common7convertnINtB2_10TryIntoValNtNtCs8j26R3SUG40_16soroban_env_host4host4HostNtNtB4_3val3ValE12try_into_valB17_
FN:55,_RNvXNtCsdmZoVYnqinT_18soroban_env_common7convertNtNtNtCs8j26R3SUG40_16soroban_env_host17builtin_contracts10base_types3VecINtB2_10TryIntoValNtNtBQ_4host4HostNtNtB4_3val3ValE12try_into_valBQ_
FN:55,_RNvXNtCsdmZoVYnqinT_18soroban_env_common7convertNtNtNtCs47RmZobMba4_11stellar_xdr4curr9generated5ScValINtB2_10TryIntoValNtNtCs8j26R3SUG40_16soroban_env_host4host4HostNtNtB4_3val3ValE12try_into_valB1Y_
FN:55,_RNvXNtCsdmZoVYnqinT_18soroban_env_common7convertNtNtB4_3val3ValINtB2_10TryIntoValNtNtCs8j26R3SUG40_16soroban_env_host4host4HostNtNtNtB1l_17builtin_contracts10base_types3VecE12try_into_valB1l_
FN:55,_RNvXNtCsdmZoVYnqinT_18soroban_env_common7convertNtNtNtNtCs8j26R3SUG40_16soroban_env_host17builtin_contracts22stellar_asset_contract12public_types9AssetInfoINtB2_10TryIntoValNtNtBS_4host4HostNtNtNtCs47RmZobMba4_11stellar_xdr4curr9generated5AssetE12try_into_valBS_
FN:108,_RNvXs2_NtCsdmZoVYnqinT_18soroban_env_common7convertNtNtB7_3val3ValINtB5_10TryFromValNtNtCs8j26R3SUG40_16soroban_env_host4host4HostyE12try_from_valB1o_
FN:55,_RNvXNtCsdmZoVYnqinT_18soroban_env_common7convertNtNtB4_3val9VecObjectINtB2_10TryIntoValNtNtCs8j26R3SUG40_16soroban_env_host4host4HostNtNtNtB1r_17builtin_contracts16account_contract20AuthorizationContextE12try_into_valB1r_
FN:55,_RNvXNtCsdmZoVYnqinT_18soroban_env_common7convertNtNtB4_3val3ValINtB2_10TryIntoValNtNtCs8j26R3SUG40_16soroban_env_host4host4HostINtNtNtB1l_17builtin_contracts10base_types6BytesNKj20_EE12try_into_valB1l_
FN:55,_RNvXNtCsdmZoVYnqinT_18soroban_env_common7convertNtNtB4_3val9MapObjectINtB2_10TryIntoValNtNtCs8j26R3SUG40_16soroban_env_host4host4HostNtNtNtNtB1r_17builtin_contracts22stellar_asset_contract13storage_types12BalanceValueE12try_into_valB1r_
FN:284,_RNvXsf_NtCsdmZoVYnqinT_18soroban_env_common7convertNtNtCsi2TmYI1UVRz_6ethnum3int4I256INtB5_10TryFromValNtNtCs8j26R3SUG40_16soroban_env_host4host4HostNtNtB7_3val3ValE12try_from_valB1H_
FN:55,_RNvXNtCsdmZoVYnqinT_18soroban_env_common7convertNtNtB4_3val3ValINtB2_10TryIntoValNtNtCs8j26R3SUG40_16soroban_env_host4host4HostNtNtNtNtB1l_17builtin_contracts22stellar_asset_contract8metadata28StellarAssetContractMetadataE12try_into_valB1l_
FN:55,_RNvXNtCsdmZoVYnqinT_18soroban_env_common7convertNtNtB4_3val9VecObjectINtB2_10TryIntoValNtNtCs8j26R3SUG40_16soroban_env_host4host4HostNtNtNtNtB1r_17builtin_contracts22stellar_asset_contract12public_types9AssetInfoE12try_into_valB1r_
FN:55,_RNvXNtCsdmZoVYnqinT_18soroban_env_common7convertNtNtB4_3val3ValINtB2_10TryIntoValNtNtCs8j26R3SUG40_16soroban_env_host4host4HostNtNtNtNtB1l_17builtin_contracts22stellar_asset_contract13storage_types14AllowanceValueE12try_into_valB1l_
FN:225,_RNvXININtCsdmZoVYnqinT_18soroban_env_common7convertsb_0pENtNtB7_3num7I128ValINtB5_10TryFromValpnE12try_from_valB7_
FN:243,_RNvXININtCsdmZoVYnqinT_18soroban_env_common7convertsc_0pEoINtB5_10TryFromValpNtNtB7_3val3ValE12try_from_valB7_
FN:462,_RNvNtCsdmZoVYnqinT_18soroban_env_common7convert27require_or_conversion_error
FN:310,_RNvXININtCsdmZoVYnqinT_18soroban_env_common7convertsh_0pENtNtB7_3num7I256ValINtB5_10TryFromValpNtNtCsi2TmYI1UVRz_6ethnum3int4I256E12try_from_valB7_
FN:346,_RNvXININtCsdmZoVYnqinT_18soroban_env_common7convertsj_0pENtNtB7_3val3ValINtB5_10TryFromValpNtNtCsi2TmYI1UVRz_6ethnum4uint4U256E12try_from_valB7_
FN:217,_RNvXININtCsdmZoVYnqinT_18soroban_env_common7convertsa_0pENtNtB7_3val3ValINtB5_10TryFromValpnE12try_from_valB7_
FN:94,_RNvXININtCsdmZoVYnqinT_18soroban_env_common7converts1_0pEyINtB5_10TryFromValpNtNtB7_3val3ValE12try_from_valB7_
FN:383,_RNCNvXININtCsdmZoVYnqinT_18soroban_env_common7convertsl_0pENtNtNtCs47RmZobMba4_11stellar_xdr4curr9generated5ScValINtB7_10TryFromValpNtNtB9_3val3ValE12try_from_val0B9_
FN:302,_RNvXININtCsdmZoVYnqinT_18soroban_env_common7convertsg_0pENtNtB7_3val3ValINtB5_10TryFromValpNtNtCsi2TmYI1UVRz_6ethnum3int4I256E12try_from_valB7_
FN:378,_RNvXININtCsdmZoVYnqinT_18soroban_env_common7convertsl_0pENtNtNtCs47RmZobMba4_11stellar_xdr4curr9generated5ScValINtB5_10TryFromValpNtNtB7_3val3ValE12try_from_valB7_
FN:65,_RNvXININtCsdmZoVYnqinT_18soroban_env_common7converts_0pExINtB5_10TryFromValpNtNtB7_3val3ValE12try_from_valB7_
FN:267,_RNvXININtCsdmZoVYnqinT_18soroban_env_common7convertse_0pENtNtB7_3num7U128ValINtB5_10TryFromValpoE12try_from_valB7_
FN:145,_RNvXININtCsdmZoVYnqinT_18soroban_env_common7converts5_0pEyINtB5_10TryFromValpNtNtB7_3num12TimepointValE12try_from_valB7_
FN:55,_RNvXININtCsdmZoVYnqinT_18soroban_env_common7convert0pppEpINtB5_10TryIntoValppE12try_into_valB7_
FN:354,_RNvXININtCsdmZoVYnqinT_18soroban_env_common7convertsk_0pENtNtB7_3num7U256ValINtB5_10TryFromValpNtNtCsi2TmYI1UVRz_6ethnum4uint4U256E12try_from_valB7_
FN:476,_RNvXININtCsdmZoVYnqinT_18soroban_env_common7convertsm_0pENtNtB7_3val3ValINtB5_10TryFromValpNtNtNtCs47RmZobMba4_11stellar_xdr4curr9generated5ScValE12try_from_valB7_
FN:116,_RNvXININtCsdmZoVYnqinT_18soroban_env_common7converts3_0pEyINtB5_10TryFromValpNtNtB7_3num6U64ValE12try_from_valB7_
FN:130,_RNvXININtCsdmZoVYnqinT_18soroban_env_common7converts4_0pENtNtB7_3num6U64ValINtB5_10TryFromValpyE12try_from_valB7_
FN:328,_RNvXININtCsdmZoVYnqinT_18soroban_env_common7convertsi_0pENtNtCsi2TmYI1UVRz_6ethnum4uint4U256INtB5_10TryFromValpNtNtB7_3val3ValE12try_from_valB7_
FN:201,_RNvXININtCsdmZoVYnqinT_18soroban_env_common7converts9_0pEnINtB5_10TryFromValpNtNtB7_3val3ValE12try_from_valB7_
FN:79,_RNvXININtCsdmZoVYnqinT_18soroban_env_common7converts0_0pENtNtB7_3val3ValINtB5_10TryFromValpxE12try_from_valB7_
FN:108,_RNvXININtCsdmZoVYnqinT_18soroban_env_common7converts2_0pENtNtB7_3val3ValINtB5_10TryFromValpyE12try_from_valB7_
FN:172,_RNvXININtCsdmZoVYnqinT_18soroban_env_common7converts7_0pEyINtB5_10TryFromValpNtNtB7_3num11DurationValE12try_from_valB7_
FN:186,_RNvXININtCsdmZoVYnqinT_18soroban_env_common7converts8_0pENtNtB7_3num11DurationValINtB5_10TryFromValpyE12try_from_valB7_
FN:259,_RNvXININtCsdmZoVYnqinT_18soroban_env_common7convertsd_0pENtNtB7_3val3ValINtB5_10TryFromValpoE12try_from_valB7_
FN:284,_RNvXININtCsdmZoVYnqinT_18soroban_env_common7convertsf_0pENtNtCsi2TmYI1UVRz_6ethnum3int4I256INtB5_10TryFromValpNtNtB7_3val3ValE12try_from_valB7_
FN:159,_RNvXININtCsdmZoVYnqinT_18soroban_env_common7converts6_0pENtNtB7_3num12TimepointValINtB5_10TryFromValpyE12try_from_valB7_
FNDA:0,_RNvXNtCsdmZoVYnqinT_18soroban_env_common7convertTNtNtB4_6symbol6SymbolNtNtB4_3val3ValEINtB2_10TryIntoValNtNtCs8j26R3SUG40_16soroban_env_host4host4HostB16_E12try_into_valB1I_
FNDA:4,_RNvXNtCsdmZoVYnqinT_18soroban_env_common7convertNtNtB4_3val3ValINtB2_10TryIntoValNtNtCs8j26R3SUG40_16soroban_env_host4host4HostNtNtCsi2TmYI1UVRz_6ethnum3int4I256E12try_into_valB1l_
FNDA:0,_RNvXNtCsdmZoVYnqinT_18soroban_env_common7convertNtNtB4_3val9MapObjectINtB2_10TryIntoValNtNtCs8j26R3SUG40_16soroban_env_host4host4HostNtNtNtB1r_17builtin_contracts16account_contract27CreateContractHostFnContextE12try_into_valB1r_
FNDA:0,_RNvXNtCsdmZoVYnqinT_18soroban_env_common7convertbINtB2_10TryIntoValNtNtCs8j26R3SUG40_16soroban_env_host4host4HostNtNtB4_3val3ValE12try_into_valB17_
FNDA:0,_RNvXNtCsdmZoVYnqinT_18soroban_env_common7convertNtNtNtCs8j26R3SUG40_16soroban_env_host17builtin_contracts12common_types18ContractExecutableINtB2_10TryIntoValNtNtBQ_4host4HostNtNtB4_3val3ValE12try_into_valBQ_
FNDA:0,_RNvXNtCsdmZoVYnqinT_18soroban_env_common7convertNtNtB4_3val13AddressObjectINtB2_10TryIntoValNtNtCs8j26R3SUG40_16soroban_env_host4host4HostNtNtNtB1w_17builtin_contracts10base_types7AddressE12try_into_valB1w_
FNDA:0,_RNvXNtCsdmZoVYnqinT_18soroban_env_common7convertNtNtB4_6symbol11SymbolSmallINtB2_10TryIntoValNtNtCs8j26R3SUG40_16soroban_env_host4host4HostNtNtB4_3val3ValE12try_into_valB1x_
FNDA:32,_RNvXs4_NtCsdmZoVYnqinT_18soroban_env_common7convertNtNtB7_3num6U64ValINtB5_10TryFromValNtNtCs8j26R3SUG40_16soroban_env_host4host4HostyE12try_from_valB1r_
FNDA:0,_RNvXNtCsdmZoVYnqinT_18soroban_env_common7convertNtNtNtCs8j26R3SUG40_16soroban_env_host17builtin_contracts16account_contract28ContractAuthorizationContextINtB2_10TryIntoValNtNtBQ_4host4HostNtNtB4_3val3ValE12try_into_valBQ_
FNDA:0,_RNvXNtCsdmZoVYnqinT_18soroban_env_common7convertNtNtB4_3val9VecObjectINtB2_10TryIntoValNtNtCs8j26R3SUG40_16soroban_env_host4host4HostNtNtNtNtB1r_17builtin_contracts22stellar_asset_contract13storage_types15InstanceDataKeyE12try_into_valB1r_
FNDA:0,_RNvXNtCsdmZoVYnqinT_18soroban_env_common7convertNtNtB4_3val9MapObjectINtB2_10TryIntoValNtNtCs8j26R3SUG40_16soroban_env_host4host4HostNtNtNtNtB1r_17builtin_contracts22stellar_asset_contract12public_types18AlphaNum4AssetInfoE12try_into_valB1r_
FNDA:2156,_RNvXNtCsdmZoVYnqinT_18soroban_env_common7convertNtNtNtCs47RmZobMba4_11stellar_xdr4curr9generated8ScSymbolINtB2_10TryIntoValNtNtCs8j26R3SUG40_16soroban_env_host4host4HostNtNtB4_6symbol6SymbolE12try_into_valB21_
FNDA:0,_RNvXNtCsdmZoVYnqinT_18soroban_env_common7convertNtNtB4_3val3ValINtB2_10TryIntoValNtNtCs8j26R3SUG40_16soroban_env_host4host4HostNtNtNtB1l_17builtin_contracts16account_contract28ContractAuthorizationContextE12try_into_valB1l_
FNDA:0,_RNvXNtCsdmZoVYnqinT_18soroban_env_common7convertNtNtB4_3val9MapObjectINtB2_10TryIntoValNtNtCs8j26R3SUG40_16soroban_env_host4host4HostNtNtNtNtB1r_17builtin_contracts22stellar_asset_contract13storage_types16AllowanceDataKeyE12try_into_valB1r_
FNDA:0,_RNvXNtCsdmZoVYnqinT_18soroban_env_common7convertNtNtNtNtCs8j26R3SUG40_16soroban_env_host17builtin_contracts22stellar_asset_contract13storage_types12BalanceValueINtB2_10TryIntoValNtNtBS_4host4HostNtNtB4_3val3ValE12try_into_valBS_
FNDA:0,_RNvXNtCsdmZoVYnqinT_18soroban_env_common7convertReINtB2_10TryIntoValNtNtCs8j26R3SUG40_16soroban_env_host4host4HostNtNtB4_6symbol6SymbolE12try_into_valB18_
FNDA:0,_RNvXNtCsdmZoVYnqinT_18soroban_env_common7convertNtNtB4_3val3ValINtB2_10TryIntoValNtNtCs8j26R3SUG40_16soroban_env_host4host4HostNtNtNtB1l_17builtin_contracts10base_types7AddressE12try_into_valB1l_
FNDA:0,_RNvXNtCsdmZoVYnqinT_18soroban_env_common7convertmINtB2_10TryIntoValNtNtCs8j26R3SUG40_16soroban_env_host4host4HostNtNtB4_3val3ValE12try_into_valB17_
FNDA:0,_RNvXNtCsdmZoVYnqinT_18soroban_env_common7convertNtNtB4_3val9VecObjectINtB2_10TryIntoValNtNtCs8j26R3SUG40_16soroban_env_host4host4HostNtNtNtB1r_17builtin_contracts21invoker_contract_auth24InvokerContractAuthEntryE12try_into_valB1r_
FNDA:0,_RNvXNtCsdmZoVYnqinT_18soroban_env_common7convertNtNtB4_3val3ValINtB2_10TryIntoValNtNtCs8j26R3SUG40_16soroban_env_host4host4HostbE12try_into_valB1l_
FNDA:0,_RNvXNtCsdmZoVYnqinT_18soroban_env_common7convertNtNtCsi2TmYI1UVRz_6ethnum4uint4U256INtB2_10TryIntoValNtNtCs8j26R3SUG40_16soroban_env_host4host4HostNtNtB4_3num7U256ValE12try_into_valB1F_
FNDA:0,_RNvXNtCsdmZoVYnqinT_18soroban_env_common7convertNtNtB4_3val3ValINtB2_10TryIntoValNtNtCs8j26R3SUG40_16soroban_env_host4host4HostNtNtNtNtB1l_17builtin_contracts22stellar_asset_contract13storage_types12BalanceValueE12try_into_valB1l_
FNDA:26,_RNvXsh_NtCsdmZoVYnqinT_18soroban_env_common7convertNtNtB7_3num7I256ValINtB5_10TryFromValNtNtCs8j26R3SUG40_16soroban_env_host4host4HostNtNtCsi2TmYI1UVRz_6ethnum3int4I256E12try_from_valB1s_
FNDA:0,_RNvXNtCsdmZoVYnqinT_18soroban_env_common7convertNtNtB4_3val3ValINtB2_10TryIntoValNtNtCs8j26R3SUG40_16soroban_env_host4host4HostNtNtB4_5bytes11BytesObjectE12try_into_valB1l_
FNDA:6,_RNvXsk_NtCsdmZoVYnqinT_18soroban_env_common7convertNtNtB7_3num7U256ValINtB5_10TryFromValNtNtCs8j26R3SUG40_16soroban_env_host4host4HostNtNtCsi2TmYI1UVRz_6ethnum4uint4U256E12try_from_valB1s_
FNDA:0,_RNvXNtCsdmZoVYnqinT_18soroban_env_common7convertNtNtB4_3val9VecObjectINtB2_10TryIntoValNtNtCs8j26R3SUG40_16soroban_env_host4host4HostNtNtNtB1r_17builtin_contracts12common_types18ContractExecutableE12try_into_valB1r_
FNDA:0,_RNvXNtCsdmZoVYnqinT_18soroban_env_common7convertNtNtB4_6symbol6SymbolINtB2_10TryIntoValNtNtCs8j26R3SUG40_16soroban_env_host4host4HostNtNtB4_3val3ValE12try_into_valB1r_
FNDA:2,_RNvXNtCsdmZoVYnqinT_18soroban_env_common7convertNtNtCsi2TmYI1UVRz_6ethnum3int4I256INtB2_10TryIntoValNtNtCs8j26R3SUG40_16soroban_env_host4host4HostNtNtB4_3num7I256ValE12try_into_valB1E_
FNDA:0,_RNvXNtCsdmZoVYnqinT_18soroban_env_common7convertNtNtB4_3val3ValINtB2_10TryIntoValNtNtCs8j26R3SUG40_16soroban_env_host4host4HostBK_E12try_into_valB1l_
FNDA:0,_RNvXNtCsdmZoVYnqinT_18soroban_env_common7convertNtNtNtCs8j26R3SUG40_16soroban_env_host17builtin_contracts10base_types6StringINtB2_10TryIntoValNtNtBQ_4host4HostNtNtB4_3val3ValE12try_into_valBQ_
FNDA:0,_RNvXNtCsdmZoVYnqinT_18soroban_env_common7convertNtNtNtCs8j26R3SUG40_16soroban_env_host17builtin_contracts10base_types7AddressINtB2_10TryIntoValNtNtBQ_4host4HostNtNtB4_3val3ValE12try_into_valBQ_
FNDA:2156,_RNvXNtCsdmZoVYnqinT_18soroban_env_common7convertNtNtB4_6symbol6SymbolINtB2_10TryIntoValNtNtCs8j26R3SUG40_16soroban_env_host4host4HostNtBM_9SymbolStrE12try_into_valB1r_
FNDA:0,_RNvXNtCsdmZoVYnqinT_18soroban_env_common7convertNtNtB4_3val3ValINtB2_10TryIntoValNtNtCs8j26R3SUG40_16soroban_env_host4host4HostNtNtNtB1l_17builtin_contracts10base_types6StringE12try_into_valB1l_
FNDA:0,_RNvXs9_NtCsdmZoVYnqinT_18soroban_env_common7convertnINtB5_10TryFromValNtNtCs8j26R3SUG40_16soroban_env_host4host4HostNtNtB7_3val3ValE12try_from_valB1a_
FNDA:0,_RNvXNtCsdmZoVYnqinT_18soroban_env_common7convertNtNtB4_3val9MapObjectINtB2_10TryIntoValNtNtCs8j26R3SUG40_16soroban_env_host4host4HostNtNtNtB1r_17builtin_contracts21invoker_contract_auth21SubContractInvocationE12try_into_valB1r_
FNDA:834,_RNvXNtCsdmZoVYnqinT_18soroban_env_common7convertNtNtB4_6object6ObjectINtB2_10TryIntoValNtNtCs8j26R3SUG40_16soroban_env_host4host4HostNtBM_11ScValObjectE12try_into_valB1r_
FNDA:16219,_RNvXsm_NtCsdmZoVYnqinT_18soroban_env_common7convertNtNtB7_3val3ValINtB5_10TryFromValNtNtCs8j26R3SUG40_16soroban_env_host4host4HostNtNtNtCs47RmZobMba4_11stellar_xdr4curr9generated5ScValE12try_from_valB1o_
FNDA:0,_RNvXNtCsdmZoVYnqinT_18soroban_env_common7convertNtNtB4_3val9MapObjectINtB2_10TryIntoValNtNtCs8j26R3SUG40_16soroban_env_host4host4HostNtNtNtNtB1r_17builtin_contracts22stellar_asset_contract12public_types19AlphaNum12AssetInfoE12try_into_valB1r_
FNDA:0,_RNvXNtCsdmZoVYnqinT_18soroban_env_common7convertTNtNtB4_6symbol6SymbolEINtB2_10TryIntoValNtNtCs8j26R3SUG40_16soroban_env_host4host4HostNtNtB4_3val3ValE12try_into_valB1t_
FNDA:0,_RNvXNtCsdmZoVYnqinT_18soroban_env_common7convertNtNtNtNtCs8j26R3SUG40_16soroban_env_host17builtin_contracts22stellar_asset_contract13storage_types7DataKeyINtB2_10TryIntoValNtNtBS_4host4HostNtNtB4_3val3ValE12try_into_valBS_
FNDA:0,_RNvXNtCsdmZoVYnqinT_18soroban_env_common7convertNtNtNtNtCs8j26R3SUG40_16soroban_env_host17builtin_contracts22stellar_asset_contract8metadata28StellarAssetContractMetadataINtB2_10TryIntoValNtNtBS_4host4HostNtNtB4_3val3ValE12try_into_valBS_
FNDA:0,_RNvXNtCsdmZoVYnqinT_18soroban_env_common7convertINtNtNtCs8j26R3SUG40_16soroban_env_host17builtin_contracts10base_types6BytesNKj20_EINtB2_10TryIntoValNtNtBR_4host4HostNtNtB4_3val3ValE12try_into_valBR_
FNDA:0,_RNvXsb_NtCsdmZoVYnqinT_18soroban_env_common7convertNtNtB7_3num7I128ValINtB5_10TryFromValNtNtCs8j26R3SUG40_16soroban_env_host4host4HostnE12try_from_valB1s_
FNDA:0,_RNvXNtCsdmZoVYnqinT_18soroban_env_common7convertNtNtB4_3val3ValINtB2_10TryIntoValNtNtCs8j26R3SUG40_16soroban_env_host4host4HostmE12try_into_valB1l_
FNDA:6,_RNvXNtCsdmZoVYnqinT_18soroban_env_common7convertReINtB2_10TryIntoValNtNtCs8j26R3SUG40_16soroban_env_host4host4HostNtNtB4_3val3ValE12try_into_valB18_
FNDA:2,_RNCNvXsl_NtCsdmZoVYnqinT_18soroban_env_common7convertNtNtNtCs47RmZobMba4_11stellar_xdr4curr9generated5ScValINtB7_10TryFromValNtNtCs8j26R3SUG40_16soroban_env_host4host4HostNtNtB9_3val3ValE12try_from_val0B23_
FNDA:0,_RNvXNtCsdmZoVYnqinT_18soroban_env_common7convertNtNtB4_3val3ValINtB2_10TryIntoValNtNtCs8j26R3SUG40_16soroban_env_host4host4HostnE12try_into_valB1l_
FNDA:0,_RNvXNtCsdmZoVYnqinT_18soroban_env_common7convertNtNtB4_3val9MapObjectINtB2_10TryIntoValNtNtCs8j26R3SUG40_16soroban_env_host4host4HostNtNtNtB1r_17builtin_contracts16account_contract28ContractAuthorizationContextE12try_into_valB1r_
FNDA:0,_RNvXNtCsdmZoVYnqinT_18soroban_env_common7convertNtNtB4_3val3ValINtB2_10TryIntoValNtNtCs8j26R3SUG40_16soroban_env_host4host4HostINtNtNtB1l_17builtin_contracts10base_types6BytesNKj40_EE12try_into_valB1l_
FNDA:0,_RNvXNtCsdmZoVYnqinT_18soroban_env_common7convertuINtB2_10TryIntoValNtNtCs8j26R3SUG40_16soroban_env_host4host4HostNtNtB4_3val3ValE12try_into_valB17_
FNDA:0,_RNvXsi_NtCsdmZoVYnqinT_18soroban_env_common7convertNtNtCsi2TmYI1UVRz_6ethnum4uint4U256INtB5_10TryFromValNtNtCs8j26R3SUG40_16soroban_env_host4host4HostNtNtB7_3val3ValE12try_from_valB1I_
FNDA:834,_RNvXsl_NtCsdmZoVYnqinT_18soroban_env_common7convertNtNtNtCs47RmZobMba4_11stellar_xdr4curr9generated5ScValINtB5_10TryFromValNtNtCs8j26R3SUG40_16soroban_env_host4host4HostNtNtB7_3val3ValE12try_from_valB21_
FNDA:0,_RNvXNtCsdmZoVYnqinT_18soroban_env_common7convertNtNtB4_3val3ValINtB2_10TryIntoValNtNtCs8j26R3SUG40_16soroban_env_host4host4HostNtNtNtNtB1l_17builtin_contracts22stellar_asset_contract12public_types9AssetInfoE12try_into_valB1l_
FNDA:0,_RNvXNtCsdmZoVYnqinT_18soroban_env_common7convertNtNtB4_3val3ValINtB2_10TryIntoValNtNtCs8j26R3SUG40_16soroban_env_host4host4HostNtNtCsi2TmYI1UVRz_6ethnum4uint4U256E12try_into_valB1l_
FNDA:0,_RNvXs0_NtCsdmZoVYnqinT_18soroban_env_common7convertNtNtB7_3val3ValINtB5_10TryFromValNtNtCs8j26R3SUG40_16soroban_env_host4host4HostxE12try_from_valB1o_
FNDA:0,_RNvXNtCsdmZoVYnqinT_18soroban_env_common7convertINtNtNtCs8j26R3SUG40_16soroban_env_host17builtin_contracts10base_types6BytesNKj40_EINtB2_10TryIntoValNtNtBR_4host4HostNtNtB4_3val3ValE12try_into_valBR_
FNDA:0,_RNvXNtCsdmZoVYnqinT_18soroban_env_common7convertNtNtNtNtCs8j26R3SUG40_16soroban_env_host17builtin_contracts22stellar_asset_contract12public_types9AssetInfoINtB2_10TryIntoValNtNtBS_4host4HostNtNtB4_3val3ValE12try_into_valBS_
FNDA:0,_RNvXNtCsdmZoVYnqinT_18soroban_env_common7convertNtNtB4_3val9MapObjectINtB2_10TryIntoValNtNtCs8j26R3SUG40_16soroban_env_host4host4HostNtNtNtNtB1r_17builtin_contracts22stellar_asset_contract13storage_types14AllowanceValueE12try_into_valB1r_
FNDA:0,_RNvXNtCsdmZoVYnqinT_18soroban_env_common7convertNtNtB4_3val9MapObjectINtB2_10TryIntoValNtNtCs8j26R3SUG40_16soroban_env_host4host4HostNtNtNtNtB1r_17builtin_contracts22stellar_asset_contract8metadata28StellarAssetContractMetadataE12try_into_valB1r_
FNDA:0,_RNvXNtCsdmZoVYnqinT_18soroban_env_common7convertNtNtB4_3val9VecObjectINtB2_10TryIntoValNtNtCs8j26R3SUG40_16soroban_env_host4host4HostNtNtNtNtB1r_17builtin_contracts22stellar_asset_contract13storage_types7DataKeyE12try_into_valB1r_
FNDA:0,_RNvXNtCsdmZoVYnqinT_18soroban_env_common7convertNtNtB4_3val3ValINtB2_10TryIntoValNtNtCs8j26R3SUG40_16soroban_env_host4host4HostNtNtB4_6symbol6SymbolE12try_into_valB1l_
FNDA:0,_RNvXsa_NtCsdmZoVYnqinT_18soroban_env_common7convertNtNtB7_3val3ValINtB5_10TryFromValNtNtCs8j26R3SUG40_16soroban_env_host4host4HostnE12try_from_valB1o_
FNDA:0,_RNvXNtCsdmZoVYnqinT_18soroban_env_common7convertNtNtNtNtCs8j26R3SUG40_16soroban_env_host17builtin_contracts22stellar_asset_contract13storage_types14AllowanceValueINtB2_10TryIntoValNtNtBS_4host4HostNtNtB4_3val3ValE12try_into_valBS_
FNDA:0,_RNvXNtCsdmZoVYnqinT_18soroban_env_common7convertNtNtB4_3val3ValINtB2_10TryIntoValNtNtCs8j26R3SUG40_16soroban_env_host4host4HostNtNtNtB1l_17builtin_contracts12common_types18ContractExecutableE12try_into_valB1l_
FNDA:0,_RNvXNtCsdmZoVYnqinT_18soroban_env_common7convertNtNtB4_3val9MapObjectINtB2_10TryIntoValNtNtCs8j26R3SUG40_16soroban_env_host4host4HostNtNtNtB1r_17builtin_contracts16account_contract23AccountEd25519SignatureE12try_into_valB1r_
FNDA:0,_RNvXNtCsdmZoVYnqinT_18soroban_env_common7convertNtNtNtNtCs8j26R3SUG40_16soroban_env_host17builtin_contracts22stellar_asset_contract13storage_types15InstanceDataKeyINtB2_10TryIntoValNtNtBS_4host4HostNtNtB4_3val3ValE12try_into_valBS_
FNDA:0,_RNvXNtCsdmZoVYnqinT_18soroban_env_common7convertnINtB2_10TryIntoValNtNtCs8j26R3SUG40_16soroban_env_host4host4HostNtNtB4_3val3ValE12try_into_valB17_
FNDA:0,_RNvXNtCsdmZoVYnqinT_18soroban_env_common7convertNtNtNtCs8j26R3SUG40_16soroban_env_host17builtin_contracts10base_types3VecINtB2_10TryIntoValNtNtBQ_4host4HostNtNtB4_3val3ValE12try_into_valBQ_
FNDA:16219,_RNvXNtCsdmZoVYnqinT_18soroban_env_common7convertNtNtNtCs47RmZobMba4_11stellar_xdr4curr9generated5ScValINtB2_10TryIntoValNtNtCs8j26R3SUG40_16soroban_env_host4host4HostNtNtB4_3val3ValE12try_into_valB1Y_
FNDA:0,_RNvXNtCsdmZoVYnqinT_18soroban_env_common7convertNtNtB4_3val3ValINtB2_10TryIntoValNtNtCs8j26R3SUG40_16soroban_env_host4host4HostNtNtNtB1l_17builtin_contracts10base_types3VecE12try_into_valB1l_
FNDA:0,_RNvXNtCsdmZoVYnqinT_18soroban_env_common7convertNtNtNtNtCs8j26R3SUG40_16soroban_env_host17builtin_contracts22stellar_asset_contract12public_types9AssetInfoINtB2_10TryIntoValNtNtBS_4host4HostNtNtNtCs47RmZobMba4_11stellar_xdr4curr9generated5AssetE12try_into_valBS_
FNDA:0,_RNvXs2_NtCsdmZoVYnqinT_18soroban_env_common7convertNtNtB7_3val3ValINtB5_10TryFromValNtNtCs8j26R3SUG40_16soroban_env_host4host4HostyE12try_from_valB1o_
FNDA:0,_RNvXNtCsdmZoVYnqinT_18soroban_env_common7convertNtNtB4_3val9VecObjectINtB2_10TryIntoValNtNtCs8j26R3SUG40_16soroban_env_host4host4HostNtNtNtB1r_17builtin_contracts16account_contract20AuthorizationContextE12try_into_valB1r_
FNDA:0,_RNvXNtCsdmZoVYnqinT_18soroban_env_common7convertNtNtB4_3val3ValINtB2_10TryIntoValNtNtCs8j26R3SUG40_16soroban_env_host4host4HostINtNtNtB1l_17builtin_contracts10base_types6BytesNKj20_EE12try_into_valB1l_
FNDA:0,_RNvXNtCsdmZoVYnqinT_18soroban_env_common7convertNtNtB4_3val9MapObjectINtB2_10TryIntoValNtNtCs8j26R3SUG40_16soroban_env_host4host4HostNtNtNtNtB1r_17builtin_contracts22stellar_asset_contract13storage_types12BalanceValueE12try_into_valB1r_
FNDA:4,_RNvXsf_NtCsdmZoVYnqinT_18soroban_env_common7convertNtNtCsi2TmYI1UVRz_6ethnum3int4I256INtB5_10TryFromValNtNtCs8j26R3SUG40_16soroban_env_host4host4HostNtNtB7_3val3ValE12try_from_valB1H_
FNDA:0,_RNvXNtCsdmZoVYnqinT_18soroban_env_common7convertNtNtB4_3val3ValINtB2_10TryIntoValNtNtCs8j26R3SUG40_16soroban_env_host4host4HostNtNtNtNtB1l_17builtin_contracts22stellar_asset_contract8metadata28StellarAssetContractMetadataE12try_into_valB1l_
FNDA:0,_RNvXNtCsdmZoVYnqinT_18soroban_env_common7convertNtNtB4_3val9VecObjectINtB2_10TryIntoValNtNtCs8j26R3SUG40_16soroban_env_host4host4HostNtNtNtNtB1r_17builtin_contracts22stellar_asset_contract12public_types9AssetInfoE12try_into_valB1r_
FNDA:0,_RNvXNtCsdmZoVYnqinT_18soroban_env_common7convertNtNtB4_3val3ValINtB2_10TryIntoValNtNtCs8j26R3SUG40_16soroban_env_host4host4HostNtNtNtNtB1l_17builtin_contracts22stellar_asset_contract13storage_types14AllowanceValueE12try_into_valB1l_
FNDA:0,_RNvXININtCsdmZoVYnqinT_18soroban_env_common7convertsb_0pENtNtB7_3num7I128ValINtB5_10TryFromValpnE12try_from_valB7_
FNDA:0,_RNvXININtCsdmZoVYnqinT_18soroban_env_common7convertsc_0pEoINtB5_10TryFromValpNtNtB7_3val3ValE12try_from_valB7_
FNDA:0,_RNvNtCsdmZoVYnqinT_18soroban_env_common7convert27require_or_conversion_error
FNDA:0,_RNvXININtCsdmZoVYnqinT_18soroban_env_common7convertsh_0pENtNtB7_3num7I256ValINtB5_10TryFromValpNtNtCsi2TmYI1UVRz_6ethnum3int4I256E12try_from_valB7_
FNDA:0,_RNvXININtCsdmZoVYnqinT_18soroban_env_common7convertsj_0pENtNtB7_3val3ValINtB5_10TryFromValpNtNtCsi2TmYI1UVRz_6ethnum4uint4U256E12try_from_valB7_
FNDA:0,_RNvXININtCsdmZoVYnqinT_18soroban_env_common7convertsa_0pENtNtB7_3val3ValINtB5_10TryFromValpnE12try_from_valB7_
FNDA:0,_RNvXININtCsdmZoVYnqinT_18soroban_env_common7converts1_0pEyINtB5_10TryFromValpNtNtB7_3val3ValE12try_from_valB7_
FNDA:0,_RNCNvXININtCsdmZoVYnqinT_18soroban_env_common7convertsl_0pENtNtNtCs47RmZobMba4_11stellar_xdr4curr9generated5ScValINtB7_10TryFromValpNtNtB9_3val3ValE12try_from_val0B9_
FNDA:0,_RNvXININtCsdmZoVYnqinT_18soroban_env_common7convertsg_0pENtNtB7_3val3ValINtB5_10TryFromValpNtNtCsi2TmYI1UVRz_6ethnum3int4I256E12try_from_valB7_
FNDA:0,_RNvXININtCsdmZoVYnqinT_18soroban_env_common7convertsl_0pENtNtNtCs47RmZobMba4_11stellar_xdr4curr9generated5ScValINtB5_10TryFromValpNtNtB7_3val3ValE12try_from_valB7_
FNDA:0,_RNvXININtCsdmZoVYnqinT_18soroban_env_common7converts_0pExINtB5_10TryFromValpNtNtB7_3val3ValE12try_from_valB7_
FNDA:0,_RNvXININtCsdmZoVYnqinT_18soroban_env_common7convertse_0pENtNtB7_3num7U128ValINtB5_10TryFromValpoE12try_from_valB7_
FNDA:0,_RNvXININtCsdmZoVYnqinT_18soroban_env_common7converts5_0pEyINtB5_10TryFromValpNtNtB7_3num12TimepointValE12try_from_valB7_
FNDA:0,_RNvXININtCsdmZoVYnqinT_18soroban_env_common7convert0pppEpINtB5_10TryIntoValppE12try_into_valB7_
FNDA:0,_RNvXININtCsdmZoVYnqinT_18soroban_env_common7convertsk_0pENtNtB7_3num7U256ValINtB5_10TryFromValpNtNtCsi2TmYI1UVRz_6ethnum4uint4U256E12try_from_valB7_
FNDA:0,_RNvXININtCsdmZoVYnqinT_18soroban_env_common7convertsm_0pENtNtB7_3val3ValINtB5_10TryFromValpNtNtNtCs47RmZobMba4_11stellar_xdr4curr9generated5ScValE12try_from_valB7_
FNDA:0,_RNvXININtCsdmZoVYnqinT_18soroban_env_common7converts3_0pEyINtB5_10TryFromValpNtNtB7_3num6U64ValE12try_from_valB7_
FNDA:0,_RNvXININtCsdmZoVYnqinT_18soroban_env_common7converts4_0pENtNtB7_3num6U64ValINtB5_10TryFromValpyE12try_from_valB7_
FNDA:0,_RNvXININtCsdmZoVYnqinT_18soroban_env_common7convertsi_0pENtNtCsi2TmYI1UVRz_6ethnum4uint4U256INtB5_10TryFromValpNtNtB7_3val3ValE12try_from_valB7_
FNDA:0,_RNvXININtCsdmZoVYnqinT_18soroban_env_common7converts9_0pEnINtB5_10TryFromValpNtNtB7_3val3ValE12try_from_valB7_
FNDA:0,_RNvXININtCsdmZoVYnqinT_18soroban_env_common7converts0_0pENtNtB7_3val3ValINtB5_10TryFromValpxE12try_from_valB7_
FNDA:0,_RNvXININtCsdmZoVYnqinT_18soroban_env_common7converts2_0pENtNtB7_3val3ValINtB5_10TryFromValpyE12try_from_valB7_
FNDA:0,_RNvXININtCsdmZoVYnqinT_18soroban_env_common7converts7_0pEyINtB5_10TryFromValpNtNtB7_3num11DurationValE12try_from_valB7_
FNDA:0,_RNvXININtCsdmZoVYnqinT_18soroban_env_common7converts8_0pENtNtB7_3num11DurationValINtB5_10TryFromValpyE12try_from_valB7_
FNDA:0,_RNvXININtCsdmZoVYnqinT_18soroban_env_common7convertsd_0pENtNtB7_3val3ValINtB5_10TryFromValpoE12try_from_valB7_
FNDA:0,_RNvXININtCsdmZoVYnqinT_18soroban_env_common7convertsf_0pENtNtCsi2TmYI1UVRz_6ethnum3int4I256INtB5_10TryFromValpNtNtB7_3val3ValE12try_from_valB7_
FNDA:0,_RNvXININtCsdmZoVYnqinT_18soroban_env_common7converts6_0pENtNtB7_3num12TimepointValINtB5_10TryFromValpyE12try_from_valB7_
FNF:27
FNH:8
DA:55,21377
DA:56,21377
DA:57,21377
DA:65,0
DA:66,0
DA:67,0
DA:68,0
DA:70,0
DA:71,0
DA:73,0
DA:79,0
DA:80,0
DA:81,0
DA:82,0
DA:84,0
DA:86,0
DA:94,0
DA:95,0
DA:96,0
DA:97,0
DA:99,0
DA:100,0
DA:102,0
DA:108,0
DA:109,0
DA:110,0
DA:116,0
DA:117,0
DA:118,0
DA:119,0
DA:121,0
DA:122,0
DA:124,0
DA:130,32
DA:131,32
DA:132,32
DA:133,32
DA:135,0
DA:137,32
DA:145,0
DA:146,0
DA:147,0
DA:148,0
DA:150,0
DA:151,0
DA:153,0
DA:159,0
DA:160,0
DA:161,0
DA:162,0
DA:164,0
DA:166,0
DA:172,0
DA:173,0
DA:174,0
DA:175,0
DA:177,0
DA:178,0
DA:180,0
DA:186,0
DA:187,0
DA:188,0
DA:189,0
DA:191,0
DA:193,0
DA:201,0
DA:202,0
DA:203,0
DA:204,0
DA:206,0
DA:207,0
DA:208,0
DA:209,0
DA:211,0
DA:217,0
DA:218,0
DA:219,0
DA:225,0
DA:226,0
DA:227,0
DA:228,0
DA:230,0
DA:231,0
DA:232,0
DA:233,0
DA:235,0
DA:243,0
DA:244,0
DA:245,0
DA:246,0
DA:248,0
DA:249,0
DA:250,0
DA:251,0
DA:253,0
DA:259,0
DA:260,0
DA:261,0
DA:267,0
DA:268,0
DA:269,0
DA:270,0
DA:272,0
DA:273,0
DA:274,0
DA:275,0
DA:277,0
DA:284,4
DA:285,4
DA:286,4
DA:287,4
DA:289,0
DA:290,0
DA:291,0
DA:292,0
DA:293,0
DA:294,0
DA:296,4
DA:302,0
DA:303,0
DA:304,0
DA:310,26
DA:311,26
DA:312,26
DA:313,26
DA:315,0
DA:316,0
DA:317,0
DA:318,0
DA:319,0
DA:321,26
DA:328,0
DA:329,0
DA:330,0
DA:331,0
DA:333,0
DA:334,0
DA:335,0
DA:336,0
DA:337,0
DA:338,0
DA:340,0
DA:346,0
DA:347,0
DA:348,0
DA:354,6
DA:355,6
DA:356,6
DA:357,6
DA:359,0
DA:360,0
DA:361,0
DA:362,0
DA:363,0
DA:365,6
DA:378,2262
DA:383,834
DA:384,832
DA:385,1428
DA:386,1428
DA:387,1428
DA:388,214
DA:389,8
DA:390,302
DA:392,8
DA:393,8
DA:395,720
DA:396,52
DA:397,26
DA:398,0
DA:399,0
DA:400,0
DA:401,0
DA:402,0
DA:403,0
DA:404,0
DA:406,0
DA:407,0
DA:408,0
DA:409,0
DA:410,0
DA:412,4
DA:413,4
DA:414,4
DA:415,4
DA:416,4
DA:417,4
DA:419,6
DA:420,6
DA:421,6
DA:422,6
DA:423,6
DA:424,6
DA:425,6
DA:426,6
DA:429,88
DA:430,88
DA:431,88
DA:432,88
DA:433,88
DA:456,0
DA:458,2262
DA:462,0
DA:463,0
DA:464,0
DA:466,0
DA:468,0
DA:476,16219
DA:477,16219
DA:478,0
DA:479,16219
DA:481,16219
DA:482,13150
DA:483,13150
DA:484,3069
DA:485,3069
DA:486,3069
DA:487,3069
DA:488,0
DA:489,0
DA:490,0
DA:491,831
DA:492,2
DA:493,0
DA:494,0
DA:495,0
DA:497,0
DA:498,0
DA:499,0
DA:501,0
DA:502,0
DA:503,0
DA:505,0
DA:506,0
DA:507,0
DA:509,0
DA:510,0
DA:511,0
DA:512,0
DA:514,0
DA:515,0
DA:516,0
DA:517,0
DA:519,0
DA:520,0
DA:521,0
DA:523,0
DA:524,0
DA:525,0
DA:527,2236
DA:528,2236
DA:529,2236
DA:530,0
DA:532,2236
DA:545,0
DA:547,16219
BRF:0
BRH:0
LF:257
LH:75
end_of_record
SF:/src/rs-soroban-env/soroban-env-common/src/env.rs
FN:224,_RINvXsl_NtCsdmZoVYnqinT_18soroban_env_common3envNtNtB8_3val4BoolNtB6_13CheckedEnvArg13check_env_argNtNtCs8j26R3SUG40_16soroban_env_host4host4HostEB1D_
FN:224,_RINvXs6_NtCsdmZoVYnqinT_18soroban_env_common3envNtNtB8_3num15TimepointObjectNtB6_13CheckedEnvArg13check_env_argNtNtCs8j26R3SUG40_16soroban_env_host4host4HostEB1P_
FN:224,_RINvXs3_NtCsdmZoVYnqinT_18soroban_env_common3envNtNtB8_3val13AddressObjectNtB6_13CheckedEnvArg13check_env_argNtNtCs8j26R3SUG40_16soroban_env_host4host4HostEB1N_
FN:224,_RINvXs7_NtCsdmZoVYnqinT_18soroban_env_common3envNtNtB8_6symbol12SymbolObjectNtB6_13CheckedEnvArg13check_env_argNtNtCs8j26R3SUG40_16soroban_env_host4host4HostEB1P_
FN:43,_RNvYNtNtCs8j26R3SUG40_16soroban_env_host4host4HostNtNtCsdmZoVYnqinT_18soroban_env_common3env7EnvBase19check_val_integrityB6_
FN:224,_RINvXs4_NtCsdmZoVYnqinT_18soroban_env_common3envNtNtB8_5bytes11BytesObjectNtB6_13CheckedEnvArg13check_env_argNtNtCs8j26R3SUG40_16soroban_env_host4host4HostEB1N_
FN:224,_RINvXsf_NtCsdmZoVYnqinT_18soroban_env_common3envNtNtB8_3num10U128ObjectNtB6_13CheckedEnvArg13check_env_argNtNtCs8j26R3SUG40_16soroban_env_host4host4HostEB1K_
FN:224,_RINvXsc_NtCsdmZoVYnqinT_18soroban_env_common3envNtNtB8_3num10I128ObjectNtB6_13CheckedEnvArg13check_env_argNtNtCs8j26R3SUG40_16soroban_env_host4host4HostEB1K_
FN:224,_RINvXsg_NtCsdmZoVYnqinT_18soroban_env_common3envNtNtB8_3num10U256ObjectNtB6_13CheckedEnvArg13check_env_argNtNtCs8j26R3SUG40_16soroban_env_host4host4HostEB1K_
FN:224,_RINvXsm_NtCsdmZoVYnqinT_18soroban_env_common3envNtNtB8_5error5ErrorNtB6_13CheckedEnvArg13check_env_argNtNtCs8j26R3SUG40_16soroban_env_host4host4HostEB1G_
FN:224,_RINvXsn_NtCsdmZoVYnqinT_18soroban_env_common3envNtNtB8_3num6U32ValNtB6_13CheckedEnvArg13check_env_argNtNtCs8j26R3SUG40_16soroban_env_host4host4HostEB1F_
FN:224,_RINvXsk_NtCsdmZoVYnqinT_18soroban_env_common3envNtNtB8_3val4VoidNtB6_13CheckedEnvArg13check_env_argNtNtCs8j26R3SUG40_16soroban_env_host4host4HostEB1D_
FN:208,_RINvYxNtNtCsdmZoVYnqinT_18soroban_env_common3env13CheckedEnvArg13check_env_argNtNtCs8j26R3SUG40_16soroban_env_host4host4HostEB1i_
FN:224,_RINvXs8_NtCsdmZoVYnqinT_18soroban_env_common3envNtNtB8_6string12StringObjectNtB6_13CheckedEnvArg13check_env_argNtNtCs8j26R3SUG40_16soroban_env_host4host4HostEB1P_
FN:224,_RINvXs9_NtCsdmZoVYnqinT_18soroban_env_common3envNtNtB8_3val9VecObjectNtB6_13CheckedEnvArg13check_env_argNtNtCs8j26R3SUG40_16soroban_env_host4host4HostEB1I_
FN:224,_RINvXsd_NtCsdmZoVYnqinT_18soroban_env_common3envNtNtB8_3num10I256ObjectNtB6_13CheckedEnvArg13check_env_argNtNtCs8j26R3SUG40_16soroban_env_host4host4HostEB1K_
FN:224,_RINvXsh_NtCsdmZoVYnqinT_18soroban_env_common3envNtNtB8_3num6U64ValNtB6_13CheckedEnvArg13check_env_argNtNtCs8j26R3SUG40_16soroban_env_host4host4HostEB1F_
FN:224,_RINvXsi_NtCsdmZoVYnqinT_18soroban_env_common3envNtNtB8_3num7U256ValNtB6_13CheckedEnvArg13check_env_argNtNtCs8j26R3SUG40_16soroban_env_host4host4HostEB1G_
FN:208,_RINvYNtNtCsdmZoVYnqinT_18soroban_env_common12storage_type11StorageTypeNtNtB7_3env13CheckedEnvArg13check_env_argNtNtCs8j26R3SUG40_16soroban_env_host4host4HostEB1P_
FN:208,_RINvYyNtNtCsdmZoVYnqinT_18soroban_env_common3env13CheckedEnvArg13check_env_argNtNtCs8j26R3SUG40_16soroban_env_host4host4HostEB1i_
FN:224,_RINvXs1_NtCsdmZoVYnqinT_18soroban_env_common3envNtNtB8_3val3ValNtB6_13CheckedEnvArg13check_env_argNtNtCs8j26R3SUG40_16soroban_env_host4host4HostEB1C_
FN:224,_RINvXs5_NtCsdmZoVYnqinT_18soroban_env_common3envNtNtB8_3num14DurationObjectNtB6_13CheckedEnvArg13check_env_argNtNtCs8j26R3SUG40_16soroban_env_host4host4HostEB1O_
FN:224,_RINvXs2_NtCsdmZoVYnqinT_18soroban_env_common3envNtNtB8_6symbol6SymbolNtB6_13CheckedEnvArg13check_env_argNtNtCs8j26R3SUG40_16soroban_env_host4host4HostEB1I_
FN:224,_RINvXsa_NtCsdmZoVYnqinT_18soroban_env_common3envNtNtB8_3val9MapObjectNtB6_13CheckedEnvArg13check_env_argNtNtCs8j26R3SUG40_16soroban_env_host4host4HostEB1I_
FN:224,_RINvXse_NtCsdmZoVYnqinT_18soroban_env_common3envNtNtB8_3num9U64ObjectNtB6_13CheckedEnvArg13check_env_argNtNtCs8j26R3SUG40_16soroban_env_host4host4HostEB1I_
FN:224,_RINvXsb_NtCsdmZoVYnqinT_18soroban_env_common3envNtNtB8_3num9I64ObjectNtB6_13CheckedEnvArg13check_env_argNtNtCs8j26R3SUG40_16soroban_env_host4host4HostEB1I_
FN:224,_RINvXsj_NtCsdmZoVYnqinT_18soroban_env_common3envNtNtB8_3num7I256ValNtB6_13CheckedEnvArg13check_env_argNtNtCs8j26R3SUG40_16soroban_env_host4host4HostEB1G_
FN:224,_RINvXsf_NtCsdmZoVYnqinT_18soroban_env_common3envNtNtB8_3num10U128ObjectNtB6_13CheckedEnvArg13check_env_argpEB8_
FN:224,_RINvXs1_NtCsdmZoVYnqinT_18soroban_env_common3envNtNtB8_3val3ValNtB6_13CheckedEnvArg13check_env_argpEB8_
FN:224,_RINvXsi_NtCsdmZoVYnqinT_18soroban_env_common3envNtNtB8_3num7U256ValNtB6_13CheckedEnvArg13check_env_argpEB8_
FN:224,_RINvXs3_NtCsdmZoVYnqinT_18soroban_env_common3envNtNtB8_3val13AddressObjectNtB6_13CheckedEnvArg13check_env_argpEB8_
FN:224,_RINvXsl_NtCsdmZoVYnqinT_18soroban_env_common3envNtNtB8_3val4BoolNtB6_13CheckedEnvArg13check_env_argpEB8_
FN:224,_RINvXs6_NtCsdmZoVYnqinT_18soroban_env_common3envNtNtB8_3num15TimepointObjectNtB6_13CheckedEnvArg13check_env_argpEB8_
FN:224,_RINvXsb_NtCsdmZoVYnqinT_18soroban_env_common3envNtNtB8_3num9I64ObjectNtB6_13CheckedEnvArg13check_env_argpEB8_
FN:224,_RINvXsc_NtCsdmZoVYnqinT_18soroban_env_common3envNtNtB8_3num10I128ObjectNtB6_13CheckedEnvArg13check_env_argpEB8_
FN:224,_RINvXsd_NtCsdmZoVYnqinT_18soroban_env_common3envNtNtB8_3num10I256ObjectNtB6_13CheckedEnvArg13check_env_argpEB8_
FN:224,_RINvXse_NtCsdmZoVYnqinT_18soroban_env_common3envNtNtB8_3num9U64ObjectNtB6_13CheckedEnvArg13check_env_argpEB8_
FN:224,_RINvXsg_NtCsdmZoVYnqinT_18soroban_env_common3envNtNtB8_3num10U256ObjectNtB6_13CheckedEnvArg13check_env_argpEB8_
FN:224,_RINvXsj_NtCsdmZoVYnqinT_18soroban_env_common3envNtNtB8_3num7I256ValNtB6_13CheckedEnvArg13check_env_argpEB8_
FN:224,_RINvXs2_NtCsdmZoVYnqinT_18soroban_env_common3envNtNtB8_6symbol6SymbolNtB6_13CheckedEnvArg13check_env_argpEB8_
FN:224,_RINvXs4_NtCsdmZoVYnqinT_18soroban_env_common3envNtNtB8_5bytes11BytesObjectNtB6_13CheckedEnvArg13check_env_argpEB8_
FN:224,_RINvXsm_NtCsdmZoVYnqinT_18soroban_env_common3envNtNtB8_5error5ErrorNtB6_13CheckedEnvArg13check_env_argpEB8_
FN:82,_RNvYpNtNtCsdmZoVYnqinT_18soroban_env_common3env7EnvBase13env_call_hookB7_
FN:224,_RINvXs9_NtCsdmZoVYnqinT_18soroban_env_common3envNtNtB8_3val9VecObjectNtB6_13CheckedEnvArg13check_env_argpEB8_
FN:224,_RINvXsa_NtCsdmZoVYnqinT_18soroban_env_common3envNtNtB8_3val9MapObjectNtB6_13CheckedEnvArg13check_env_argpEB8_
FN:43,_RNvYpNtNtCsdmZoVYnqinT_18soroban_env_common3env7EnvBase19check_val_integrityB7_
FN:89,_RNvYpNtNtCsdmZoVYnqinT_18soroban_env_common3env7EnvBase12env_ret_hookB7_
FN:224,_RINvXsh_NtCsdmZoVYnqinT_18soroban_env_common3envNtNtB8_3num6U64ValNtB6_13CheckedEnvArg13check_env_argpEB8_
FN:224,_RINvXsk_NtCsdmZoVYnqinT_18soroban_env_common3envNtNtB8_3val4VoidNtB6_13CheckedEnvArg13check_env_argpEB8_
FN:224,_RINvXs5_NtCsdmZoVYnqinT_18soroban_env_common3envNtNtB8_3num14DurationObjectNtB6_13CheckedEnvArg13check_env_argpEB8_
FN:224,_RINvXs7_NtCsdmZoVYnqinT_18soroban_env_common3envNtNtB8_6symbol12SymbolObjectNtB6_13CheckedEnvArg13check_env_argpEB8_
FN:224,_RINvXsn_NtCsdmZoVYnqinT_18soroban_env_common3envNtNtB8_3num6U32ValNtB6_13CheckedEnvArg13check_env_argpEB8_
FN:224,_RINvXs8_NtCsdmZoVYnqinT_18soroban_env_common3envNtNtB8_6string12StringObjectNtB6_13CheckedEnvArg13check_env_argpEB8_
FN:59,_RNvYpNtNtCsdmZoVYnqinT_18soroban_env_common3env7EnvBase19check_obj_integrityB7_
FN:208,_RINvYpNtNtCsdmZoVYnqinT_18soroban_env_common3env13CheckedEnvArg13check_env_argpEB8_
FN:105,_RINvYpNtNtCsdmZoVYnqinT_18soroban_env_common3env7EnvBase18augment_err_resultpEB8_
FNDA:8,_RINvXsl_NtCsdmZoVYnqinT_18soroban_env_common3envNtNtB8_3val4BoolNtB6_13CheckedEnvArg13check_env_argNtNtCs8j26R3SUG40_16soroban_env_host4host4HostEB1D_
FNDA:14,_RINvXs6_NtCsdmZoVYnqinT_18soroban_env_common3envNtNtB8_3num15TimepointObjectNtB6_13CheckedEnvArg13check_env_argNtNtCs8j26R3SUG40_16soroban_env_host4host4HostEB1P_
FNDA:4936,_RINvXs3_NtCsdmZoVYnqinT_18soroban_env_common3envNtNtB8_3val13AddressObjectNtB6_13CheckedEnvArg13check_env_argNtNtCs8j26R3SUG40_16soroban_env_host4host4HostEB1N_
FNDA:10,_RINvXs7_NtCsdmZoVYnqinT_18soroban_env_common3envNtNtB8_6symbol12SymbolObjectNtB6_13CheckedEnvArg13check_env_argNtNtCs8j26R3SUG40_16soroban_env_host4host4HostEB1P_
FNDA:25079,_RNvYNtNtCs8j26R3SUG40_16soroban_env_host4host4HostNtNtCsdmZoVYnqinT_18soroban_env_common3env7EnvBase19check_val_integrityB6_
FNDA:12020,_RINvXs4_NtCsdmZoVYnqinT_18soroban_env_common3envNtNtB8_5bytes11BytesObjectNtB6_13CheckedEnvArg13check_env_argNtNtCs8j26R3SUG40_16soroban_env_host4host4HostEB1N_
FNDA:0,_RINvXsf_NtCsdmZoVYnqinT_18soroban_env_common3envNtNtB8_3num10U128ObjectNtB6_13CheckedEnvArg13check_env_argNtNtCs8j26R3SUG40_16soroban_env_host4host4HostEB1K_
FNDA:0,_RINvXsc_NtCsdmZoVYnqinT_18soroban_env_common3envNtNtB8_3num10I128ObjectNtB6_13CheckedEnvArg13check_env_argNtNtCs8j26R3SUG40_16soroban_env_host4host4HostEB1K_
FNDA:0,_RINvXsg_NtCsdmZoVYnqinT_18soroban_env_common3envNtNtB8_3num10U256ObjectNtB6_13CheckedEnvArg13check_env_argNtNtCs8j26R3SUG40_16soroban_env_host4host4HostEB1K_
FNDA:14,_RINvXsm_NtCsdmZoVYnqinT_18soroban_env_common3envNtNtB8_5error5ErrorNtB6_13CheckedEnvArg13check_env_argNtNtCs8j26R3SUG40_16soroban_env_host4host4HostEB1G_
FNDA:986,_RINvXsn_NtCsdmZoVYnqinT_18soroban_env_common3envNtNtB8_3num6U32ValNtB6_13CheckedEnvArg13check_env_argNtNtCs8j26R3SUG40_16soroban_env_host4host4HostEB1F_
FNDA:305,_RINvXsk_NtCsdmZoVYnqinT_18soroban_env_common3envNtNtB8_3val4VoidNtB6_13CheckedEnvArg13check_env_argNtNtCs8j26R3SUG40_16soroban_env_host4host4HostEB1D_
FNDA:2176,_RINvYxNtNtCsdmZoVYnqinT_18soroban_env_common3env13CheckedEnvArg13check_env_argNtNtCs8j26R3SUG40_16soroban_env_host4host4HostEB1i_
FNDA:20,_RINvXs8_NtCsdmZoVYnqinT_18soroban_env_common3envNtNtB8_6string12StringObjectNtB6_13CheckedEnvArg13check_env_argNtNtCs8j26R3SUG40_16soroban_env_host4host4HostEB1P_
FNDA:474,_RINvXs9_NtCsdmZoVYnqinT_18soroban_env_common3envNtNtB8_3val9VecObjectNtB6_13CheckedEnvArg13check_env_argNtNtCs8j26R3SUG40_16soroban_env_host4host4HostEB1I_
FNDA:0,_RINvXsd_NtCsdmZoVYnqinT_18soroban_env_common3envNtNtB8_3num10I256ObjectNtB6_13CheckedEnvArg13check_env_argNtNtCs8j26R3SUG40_16soroban_env_host4host4HostEB1K_
FNDA:32,_RINvXsh_NtCsdmZoVYnqinT_18soroban_env_common3envNtNtB8_3num6U64ValNtB6_13CheckedEnvArg13check_env_argNtNtCs8j26R3SUG40_16soroban_env_host4host4HostEB1F_
FNDA:8,_RINvXsi_NtCsdmZoVYnqinT_18soroban_env_common3envNtNtB8_3num7U256ValNtB6_13CheckedEnvArg13check_env_argNtNtCs8j26R3SUG40_16soroban_env_host4host4HostEB1G_
FNDA:307,_RINvYNtNtCsdmZoVYnqinT_18soroban_env_common12storage_type11StorageTypeNtNtB7_3env13CheckedEnvArg13check_env_argNtNtCs8j26R3SUG40_16soroban_env_host4host4HostEB1P_
FNDA:38,_RINvYyNtNtCsdmZoVYnqinT_18soroban_env_common3env13CheckedEnvArg13check_env_argNtNtCs8j26R3SUG40_16soroban_env_host4host4HostEB1i_
FNDA:5228,_RINvXs1_NtCsdmZoVYnqinT_18soroban_env_common3envNtNtB8_3val3ValNtB6_13CheckedEnvArg13check_env_argNtNtCs8j26R3SUG40_16soroban_env_host4host4HostEB1C_
FNDA:4,_RINvXs5_NtCsdmZoVYnqinT_18soroban_env_common3envNtNtB8_3num14DurationObjectNtB6_13CheckedEnvArg13check_env_argNtNtCs8j26R3SUG40_16soroban_env_host4host4HostEB1O_
FNDA:14,_RINvXs2_NtCsdmZoVYnqinT_18soroban_env_common3envNtNtB8_6symbol6SymbolNtB6_13CheckedEnvArg13check_env_argNtNtCs8j26R3SUG40_16soroban_env_host4host4HostEB1I_
FNDA:552,_RINvXsa_NtCsdmZoVYnqinT_18soroban_env_common3envNtNtB8_3val9MapObjectNtB6_13CheckedEnvArg13check_env_argNtNtCs8j26R3SUG40_16soroban_env_host4host4HostEB1I_
FNDA:20,_RINvXse_NtCsdmZoVYnqinT_18soroban_env_common3envNtNtB8_3num9U64ObjectNtB6_13CheckedEnvArg13check_env_argNtNtCs8j26R3SUG40_16soroban_env_host4host4HostEB1I_
FNDA:8,_RINvXsb_NtCsdmZoVYnqinT_18soroban_env_common3envNtNtB8_3num9I64ObjectNtB6_13CheckedEnvArg13check_env_argNtNtCs8j26R3SUG40_16soroban_env_host4host4HostEB1I_
FNDA:42,_RINvXsj_NtCsdmZoVYnqinT_18soroban_env_common3envNtNtB8_3num7I256ValNtB6_13CheckedEnvArg13check_env_argNtNtCs8j26R3SUG40_16soroban_env_host4host4HostEB1G_
FNDA:0,_RINvXsf_NtCsdmZoVYnqinT_18soroban_env_common3envNtNtB8_3num10U128ObjectNtB6_13CheckedEnvArg13check_env_argpEB8_
FNDA:0,_RINvXs1_NtCsdmZoVYnqinT_18soroban_env_common3envNtNtB8_3val3ValNtB6_13CheckedEnvArg13check_env_argpEB8_
FNDA:0,_RINvXsi_NtCsdmZoVYnqinT_18soroban_env_common3envNtNtB8_3num7U256ValNtB6_13CheckedEnvArg13check_env_argpEB8_
FNDA:0,_RINvXs3_NtCsdmZoVYnqinT_18soroban_env_common3envNtNtB8_3val13AddressObjectNtB6_13CheckedEnvArg13check_env_argpEB8_
FNDA:0,_RINvXsl_NtCsdmZoVYnqinT_18soroban_env_common3envNtNtB8_3val4BoolNtB6_13CheckedEnvArg13check_env_argpEB8_
FNDA:0,_RINvXs6_NtCsdmZoVYnqinT_18soroban_env_common3envNtNtB8_3num15TimepointObjectNtB6_13CheckedEnvArg13check_env_argpEB8_
FNDA:0,_RINvXsb_NtCsdmZoVYnqinT_18soroban_env_common3envNtNtB8_3num9I64ObjectNtB6_13CheckedEnvArg13check_env_argpEB8_
FNDA:0,_RINvXsc_NtCsdmZoVYnqinT_18soroban_env_common3envNtNtB8_3num10I128ObjectNtB6_13CheckedEnvArg13check_env_argpEB8_
FNDA:0,_RINvXsd_NtCsdmZoVYnqinT_18soroban_env_common3envNtNtB8_3num10I256ObjectNtB6_13CheckedEnvArg13check_env_argpEB8_
FNDA:0,_RINvXse_NtCsdmZoVYnqinT_18soroban_env_common3envNtNtB8_3num9U64ObjectNtB6_13CheckedEnvArg13check_env_argpEB8_
FNDA:0,_RINvXsg_NtCsdmZoVYnqinT_18soroban_env_common3envNtNtB8_3num10U256ObjectNtB6_13CheckedEnvArg13check_env_argpEB8_
FNDA:0,_RINvXsj_NtCsdmZoVYnqinT_18soroban_env_common3envNtNtB8_3num7I256ValNtB6_13CheckedEnvArg13check_env_argpEB8_
FNDA:0,_RINvXs2_NtCsdmZoVYnqinT_18soroban_env_common3envNtNtB8_6symbol6SymbolNtB6_13CheckedEnvArg13check_env_argpEB8_
FNDA:0,_RINvXs4_NtCsdmZoVYnqinT_18soroban_env_common3envNtNtB8_5bytes11BytesObjectNtB6_13CheckedEnvArg13check_env_argpEB8_
FNDA:0,_RINvXsm_NtCsdmZoVYnqinT_18soroban_env_common3envNtNtB8_5error5ErrorNtB6_13CheckedEnvArg13check_env_argpEB8_
FNDA:0,_RNvYpNtNtCsdmZoVYnqinT_18soroban_env_common3env7EnvBase13env_call_hookB7_
FNDA:0,_RINvXs9_NtCsdmZoVYnqinT_18soroban_env_common3envNtNtB8_3val9VecObjectNtB6_13CheckedEnvArg13check_env_argpEB8_
FNDA:0,_RINvXsa_NtCsdmZoVYnqinT_18soroban_env_common3envNtNtB8_3val9MapObjectNtB6_13CheckedEnvArg13check_env_argpEB8_
FNDA:0,_RNvYpNtNtCsdmZoVYnqinT_18soroban_env_common3env7EnvBase19check_val_integrityB7_
FNDA:0,_RNvYpNtNtCsdmZoVYnqinT_18soroban_env_common3env7EnvBase12env_ret_hookB7_
FNDA:0,_RINvXsh_NtCsdmZoVYnqinT_18soroban_env_common3envNtNtB8_3num6U64ValNtB6_13CheckedEnvArg13check_env_argpEB8_
FNDA:0,_RINvXsk_NtCsdmZoVYnqinT_18soroban_env_common3envNtNtB8_3val4VoidNtB6_13CheckedEnvArg13check_env_argpEB8_
FNDA:0,_RINvXs5_NtCsdmZoVYnqinT_18soroban_env_common3envNtNtB8_3num14DurationObjectNtB6_13CheckedEnvArg13check_env_argpEB8_
FNDA:0,_RINvXs7_NtCsdmZoVYnqinT_18soroban_env_common3envNtNtB8_6symbol12SymbolObjectNtB6_13CheckedEnvArg13check_env_argpEB8_
FNDA:0,_RINvXsn_NtCsdmZoVYnqinT_18soroban_env_common3envNtNtB8_3num6U32ValNtB6_13CheckedEnvArg13check_env_argpEB8_
FNDA:0,_RINvXs8_NtCsdmZoVYnqinT_18soroban_env_common3envNtNtB8_6string12StringObjectNtB6_13CheckedEnvArg13check_env_argpEB8_
FNDA:0,_RNvYpNtNtCsdmZoVYnqinT_18soroban_env_common3env7EnvBase19check_obj_integrityB7_
FNDA:0,_RINvYpNtNtCsdmZoVYnqinT_18soroban_env_common3env13CheckedEnvArg13check_env_argpEB8_
FNDA:0,_RINvYpNtNtCsdmZoVYnqinT_18soroban_env_common3env7EnvBase18augment_err_resultpEB8_
FNF:7
FNH:3
DA:43,25079
DA:44,25079
DA:45,0
DA:46,0
DA:47,0
DA:48,0
DA:49,25079
DA:50,25079
DA:51,22454
DA:53,2625
DA:55,25079
DA:59,0
DA:60,0
DA:61,0
DA:82,0
DA:83,0
DA:84,0
DA:89,0
DA:90,0
DA:91,0
DA:92,0
DA:93,0
DA:94,0
DA:95,0
DA:105,0
DA:106,0
DA:107,0
DA:208,2521
DA:209,2521
DA:210,2521
DA:224,24695
DA:225,24695
DA:226,24695
BRF:0
BRH:0
LF:33
LH:13
end_of_record
SF:/src/rs-soroban-env/soroban-env-common/src/error.rs
FN:285,_RNvMsi_NtCsdmZoVYnqinT_18soroban_env_common5errorNtB5_5Error7is_type
FN:290,_RNvMsi_NtCsdmZoVYnqinT_18soroban_env_common5errorNtB5_5Error7is_code
FN:20,_RNvXsl_NtCsdmZoVYnqinT_18soroban_env_common5errorNtB5_5ErrorNtNtCs7L5q00ejtpZ_4core5clone5Clone5cloneCs7fXtI9ZzZ9j_18soroban_synth_wasm
FN:53,_RNvXs2_NtCsdmZoVYnqinT_18soroban_env_common5errorNtB5_5ErrorNtNtCs7L5q00ejtpZ_4core3cmp3Ord3cmp
FN:20,_RNvXsl_NtCsdmZoVYnqinT_18soroban_env_common5errorNtB5_5ErrorNtNtCs7L5q00ejtpZ_4core5clone5Clone5cloneCs8j26R3SUG40_16soroban_env_host
FN:310,_RNvMsi_NtCsdmZoVYnqinT_18soroban_env_common5errorNtB5_5Error12from_scerror
FN:300,_RNvMsi_NtCsdmZoVYnqinT_18soroban_env_common5errorNtB5_5Error19from_contract_error
FN:305,_RNvMsi_NtCsdmZoVYnqinT_18soroban_env_common5errorNtB5_5Error18from_type_and_code
FN:295,_RNvMsi_NtCsdmZoVYnqinT_18soroban_env_common5errorNtB5_5Error8get_code
FN:62,_RNvXs3_NtCsdmZoVYnqinT_18soroban_env_common5errorNtNtCs8j26R3SUG40_16soroban_env_host4host4HostINtNtB7_7compare7CompareNtB5_5ErrorE7compareBP_
FN:132,_RNvXs9_NtCsdmZoVYnqinT_18soroban_env_common5errorNtB5_5ErrorINtNtCs7L5q00ejtpZ_4core7convert4FromNtNtNtCs47RmZobMba4_11stellar_xdr4curr9generated7ScErrorE4from
FN:68,_RNvXs4_NtCsdmZoVYnqinT_18soroban_env_common5errorNtB5_5ErrorNtNtCs7L5q00ejtpZ_4core3fmt5Debug3fmt
FN:99,_RNvXs6_NtCsdmZoVYnqinT_18soroban_env_common5errorNtNtNtCs47RmZobMba4_11stellar_xdr4curr9generated7ScErrorINtNtCs7L5q00ejtpZ_4core7convert7TryFromNtB5_5ErrorE8try_from
FN:30,_RINvXNtCsdmZoVYnqinT_18soroban_env_common5errorNtB3_5ErrorNtNtCs7L5q00ejtpZ_4core4hash4Hash4hashpEB5_
FN:176,_RNvXsf_NtCsdmZoVYnqinT_18soroban_env_common5errorNtB5_5ErrorINtNtCs7L5q00ejtpZ_4core7convert4FromNtNtCs8OqJRHOaUNU_10wasmi_core4trap8TrapCodeE4from
FN:169,_RNvXse_NtCsdmZoVYnqinT_18soroban_env_common5errorNtNtNtCs47RmZobMba4_11stellar_xdr4curr9generated5ErrorINtNtCs7L5q00ejtpZ_4core7convert4FromNtB5_5ErrorE4from
FN:218,_RNvXsh_NtCsdmZoVYnqinT_18soroban_env_common5errorNtB5_5ErrorINtNtCs7L5q00ejtpZ_4core7convert4FromNtNtCs7hqVH6QCEUb_13soroban_wasmi5error5ErrorE4from
FN:126,_RNvXs8_NtCsdmZoVYnqinT_18soroban_env_common5errorNtNtNtCs47RmZobMba4_11stellar_xdr4curr9generated5ScValINtNtCs7L5q00ejtpZ_4core7convert7TryFromRNtB5_5ErrorE8try_from
FN:138,_RNvXsa_NtCsdmZoVYnqinT_18soroban_env_common5errorNtB5_5ErrorINtNtCs7L5q00ejtpZ_4core7convert4FromTNtNtNtCs47RmZobMba4_11stellar_xdr4curr9generated11ScErrorTypeNtB1A_11ScErrorCodeEE4from
FN:156,_RNvXsd_NtCsdmZoVYnqinT_18soroban_env_common5errorNtB5_5ErrorINtNtCs7L5q00ejtpZ_4core7convert4FromNtNtNtCs47RmZobMba4_11stellar_xdr4curr9generated5ErrorE4from
FN:150,_RNvXsc_NtCsdmZoVYnqinT_18soroban_env_common5errorNtB5_5ErrorINtNtCs7L5q00ejtpZ_4core7convert4FromNtNtB7_3val15ConversionErrorE4from
FN:119,_RNvXs7_NtCsdmZoVYnqinT_18soroban_env_common5errorNtNtNtCs47RmZobMba4_11stellar_xdr4curr9generated5ScValINtNtCs7L5q00ejtpZ_4core7convert7TryFromNtB5_5ErrorE8try_from
FN:37,_RNvXs_NtCsdmZoVYnqinT_18soroban_env_common5errorNtB4_5ErrorNtNtCs7L5q00ejtpZ_4core3cmp9PartialEq2eq
FN:144,_RNvXsb_NtCsdmZoVYnqinT_18soroban_env_common5errorNtB5_5ErrorINtNtCs7L5q00ejtpZ_4core7convert4FromNtNtB7_6symbol11SymbolErrorE4from
FN:92,_RNvXs5_NtCsdmZoVYnqinT_18soroban_env_common5errorNtB5_5ErrorINtNtCs7L5q00ejtpZ_4core7convert4FromRBL_E4from
FN:62,_RNvXININtCsdmZoVYnqinT_18soroban_env_common5errors3_0pEpINtNtB7_7compare7CompareNtB5_5ErrorE7compareB7_
FN:204,_RNvXsg_NtCsdmZoVYnqinT_18soroban_env_common5errorNtB5_5ErrorINtNtCs7L5q00ejtpZ_4core7convert4FromNtNtNtCs7hqVH6QCEUb_13soroban_wasmi4func5error9FuncErrorE4from
FN:46,_RNvXs1_NtCsdmZoVYnqinT_18soroban_env_common5errorNtB5_5ErrorNtNtCs7L5q00ejtpZ_4core3cmp10PartialOrd11partial_cmp
FN:20,_RNvXsl_NtCsdmZoVYnqinT_18soroban_env_common5errorNtB5_5ErrorNtNtCs7L5q00ejtpZ_4core5clone5Clone5cloneB7_
FNDA:96,_RNvMsi_NtCsdmZoVYnqinT_18soroban_env_common5errorNtB5_5Error7is_type
FNDA:460,_RNvMsi_NtCsdmZoVYnqinT_18soroban_env_common5errorNtB5_5Error7is_code
FNDA:57,_RNvXsl_NtCsdmZoVYnqinT_18soroban_env_common5errorNtB5_5ErrorNtNtCs7L5q00ejtpZ_4core5clone5Clone5cloneCs7fXtI9ZzZ9j_18soroban_synth_wasm
FNDA:0,_RNvXs2_NtCsdmZoVYnqinT_18soroban_env_common5errorNtB5_5ErrorNtNtCs7L5q00ejtpZ_4core3cmp3Ord3cmp
FNDA:14,_RNvXsl_NtCsdmZoVYnqinT_18soroban_env_common5errorNtB5_5ErrorNtNtCs7L5q00ejtpZ_4core5clone5Clone5cloneCs8j26R3SUG40_16soroban_env_host
FNDA:57,_RNvMsi_NtCsdmZoVYnqinT_18soroban_env_common5errorNtB5_5Error12from_scerror
FNDA:13,_RNvMsi_NtCsdmZoVYnqinT_18soroban_env_common5errorNtB5_5Error19from_contract_error
FNDA:808,_RNvMsi_NtCsdmZoVYnqinT_18soroban_env_common5errorNtB5_5Error18from_type_and_code
FNDA:2,_RNvMsi_NtCsdmZoVYnqinT_18soroban_env_common5errorNtB5_5Error8get_code
FNDA:0,_RNvXs3_NtCsdmZoVYnqinT_18soroban_env_common5errorNtNtCs8j26R3SUG40_16soroban_env_host4host4HostINtNtB7_7compare7CompareNtB5_5ErrorE7compareBP_
FNDA:57,_RNvXs9_NtCsdmZoVYnqinT_18soroban_env_common5errorNtB5_5ErrorINtNtCs7L5q00ejtpZ_4core7convert4FromNtNtNtCs47RmZobMba4_11stellar_xdr4curr9generated7ScErrorE4from
FNDA:798,_RNvXs4_NtCsdmZoVYnqinT_18soroban_env_common5errorNtB5_5ErrorNtNtCs7L5q00ejtpZ_4core3fmt5Debug3fmt
FNDA:156,_RNvXs6_NtCsdmZoVYnqinT_18soroban_env_common5errorNtNtNtCs47RmZobMba4_11stellar_xdr4curr9generated7ScErrorINtNtCs7L5q00ejtpZ_4core7convert7TryFromNtB5_5ErrorE8try_from
FNDA:0,_RINvXNtCsdmZoVYnqinT_18soroban_env_common5errorNtB3_5ErrorNtNtCs7L5q00ejtpZ_4core4hash4Hash4hashpEB5_
FNDA:0,_RNvXsf_NtCsdmZoVYnqinT_18soroban_env_common5errorNtB5_5ErrorINtNtCs7L5q00ejtpZ_4core7convert4FromNtNtCs8OqJRHOaUNU_10wasmi_core4trap8TrapCodeE4from
FNDA:0,_RNvXse_NtCsdmZoVYnqinT_18soroban_env_common5errorNtNtNtCs47RmZobMba4_11stellar_xdr4curr9generated5ErrorINtNtCs7L5q00ejtpZ_4core7convert4FromNtB5_5ErrorE4from
FNDA:26,_RNvXsh_NtCsdmZoVYnqinT_18soroban_env_common5errorNtB5_5ErrorINtNtCs7L5q00ejtpZ_4core7convert4FromNtNtCs7hqVH6QCEUb_13soroban_wasmi5error5ErrorE4from
FNDA:0,_RNvXs8_NtCsdmZoVYnqinT_18soroban_env_common5errorNtNtNtCs47RmZobMba4_11stellar_xdr4curr9generated5ScValINtNtCs7L5q00ejtpZ_4core7convert7TryFromRNtB5_5ErrorE8try_from
FNDA:126,_RNvXsa_NtCsdmZoVYnqinT_18soroban_env_common5errorNtB5_5ErrorINtNtCs7L5q00ejtpZ_4core7convert4FromTNtNtNtCs47RmZobMba4_11stellar_xdr4curr9generated11ScErrorTypeNtB1A_11ScErrorCodeEE4from
FNDA:282,_RNvXsd_NtCsdmZoVYnqinT_18soroban_env_common5errorNtB5_5ErrorINtNtCs7L5q00ejtpZ_4core7convert4FromNtNtNtCs47RmZobMba4_11stellar_xdr4curr9generated5ErrorE4from
FNDA:2,_RNvXsc_NtCsdmZoVYnqinT_18soroban_env_common5errorNtB5_5ErrorINtNtCs7L5q00ejtpZ_4core7convert4FromNtNtB7_3val15ConversionErrorE4from
FNDA:8,_RNvXs7_NtCsdmZoVYnqinT_18soroban_env_common5errorNtNtNtCs47RmZobMba4_11stellar_xdr4curr9generated5ScValINtNtCs7L5q00ejtpZ_4core7convert7TryFromNtB5_5ErrorE8try_from
FNDA:0,_RNvXs_NtCsdmZoVYnqinT_18soroban_env_common5errorNtB4_5ErrorNtNtCs7L5q00ejtpZ_4core3cmp9PartialEq2eq
FNDA:0,_RNvXsb_NtCsdmZoVYnqinT_18soroban_env_common5errorNtB5_5ErrorINtNtCs7L5q00ejtpZ_4core7convert4FromNtNtB7_6symbol11SymbolErrorE4from
FNDA:0,_RNvXs5_NtCsdmZoVYnqinT_18soroban_env_common5errorNtB5_5ErrorINtNtCs7L5q00ejtpZ_4core7convert4FromRBL_E4from
FNDA:0,_RNvXININtCsdmZoVYnqinT_18soroban_env_common5errors3_0pEpINtNtB7_7compare7CompareNtB5_5ErrorE7compareB7_
FNDA:0,_RNvXsg_NtCsdmZoVYnqinT_18soroban_env_common5errorNtB5_5ErrorINtNtCs7L5q00ejtpZ_4core7convert4FromNtNtNtCs7hqVH6QCEUb_13soroban_wasmi4func5error9FuncErrorE4from
FNDA:0,_RNvXs1_NtCsdmZoVYnqinT_18soroban_env_common5errorNtB5_5ErrorNtNtCs7L5q00ejtpZ_4core3cmp10PartialOrd11partial_cmp
FNDA:0,_RNvXsl_NtCsdmZoVYnqinT_18soroban_env_common5errorNtB5_5ErrorNtNtCs7L5q00ejtpZ_4core5clone5Clone5cloneB7_
FNF:26
FNH:15
DA:20,71
DA:30,0
DA:31,0
DA:32,0
DA:37,0
DA:38,0
DA:39,0
DA:46,0
DA:47,0
DA:48,0
DA:53,0
DA:54,0
DA:55,0
DA:56,0
DA:57,0
DA:62,0
DA:63,0
DA:64,0
DA:68,798
DA:69,798
DA:70,798
DA:71,798
DA:72,798
DA:73,798
DA:74,798
DA:75,8
DA:76,790
DA:77,790
DA:79,0
DA:82,0
DA:83,0
DA:85,0
DA:88,798
DA:92,0
DA:93,0
DA:94,0
DA:99,156
DA:100,156
DA:101,156
DA:102,156
DA:103,24
DA:104,10
DA:105,32
DA:106,16
DA:107,18
DA:108,14
DA:109,4
DA:110,14
DA:111,8
DA:112,16
DA:114,156
DA:119,8
DA:120,8
DA:121,8
DA:126,0
DA:127,0
DA:128,0
DA:132,57
DA:133,57
DA:134,57
DA:138,126
DA:139,126
DA:140,126
DA:144,0
DA:145,0
DA:146,0
DA:150,2
DA:151,2
DA:152,2
DA:156,282
DA:157,282
DA:159,116
DA:161,166
DA:163,282
DA:169,0
DA:170,0
DA:171,0
DA:176,0
DA:177,0
DA:178,0
DA:181,0
DA:184,0
DA:188,0
DA:190,0
DA:195,0
DA:198,0
DA:199,0
DA:204,0
DA:205,0
DA:206,0
DA:208,0
DA:210,0
DA:212,0
DA:213,0
DA:218,26
DA:219,26
DA:220,26
DA:221,26
DA:222,26
DA:223,26
DA:224,26
DA:225,12
DA:227,0
DA:228,12
DA:229,0
DA:231,0
DA:232,0
DA:234,0
DA:235,0
DA:237,0
DA:238,0
DA:240,0
DA:241,0
DA:242,0
DA:244,0
DA:245,0
DA:247,0
DA:248,0
DA:250,0
DA:252,0
DA:253,0
DA:254,0
DA:255,0
DA:257,0
DA:258,0
DA:259,0
DA:260,0
DA:262,0
DA:263,0
DA:265,0
DA:266,0
DA:267,0
DA:268,0
DA:269,0
DA:270,0
DA:271,0
DA:273,14
DA:276,14
DA:277,26
DA:285,96
DA:286,96
DA:287,96
DA:290,460
DA:291,460
DA:292,460
DA:295,2
DA:296,2
DA:297,2
DA:300,13
DA:301,13
DA:302,13
DA:305,808
DA:306,808
DA:307,808
DA:310,57
DA:311,57
DA:312,13
DA:313,4
DA:314,4
DA:315,4
DA:316,6
DA:317,7
DA:318,4
DA:319,3
DA:320,3
DA:321,9
DA:323,57
BRF:0
BRH:0
LF:167
LH:84
end_of_record
SF:/src/rs-soroban-env/soroban-env-common/src/hash.rs
FN:20,_RINvXs6_NtCsdmZoVYnqinT_18soroban_env_common4hashNtNtB8_3num10U256ObjectNtNtCs7L5q00ejtpZ_4core4hash4Hash4hashpEB8_
FN:20,_RINvXs7_NtCsdmZoVYnqinT_18soroban_env_common4hashNtNtB8_3num10I256ObjectNtNtCs7L5q00ejtpZ_4core4hash4Hash4hashpEB8_
FN:12,_RINvXNtCsdmZoVYnqinT_18soroban_env_common4hashNtNtB5_3val3ValNtNtCs7L5q00ejtpZ_4core4hash4Hash4hashpEB5_
FN:20,_RINvXs8_NtCsdmZoVYnqinT_18soroban_env_common4hashNtNtB8_5bytes11BytesObjectNtNtCs7L5q00ejtpZ_4core4hash4Hash4hashpEB8_
FN:20,_RINvXs9_NtCsdmZoVYnqinT_18soroban_env_common4hashNtNtB8_6string12StringObjectNtNtCs7L5q00ejtpZ_4core4hash4Hash4hashpEB8_
FN:20,_RINvXs1_NtCsdmZoVYnqinT_18soroban_env_common4hashNtNtB8_3num9I64ObjectNtNtCs7L5q00ejtpZ_4core4hash4Hash4hashpEB8_
FN:20,_RINvXs2_NtCsdmZoVYnqinT_18soroban_env_common4hashNtNtB8_3num15TimepointObjectNtNtCs7L5q00ejtpZ_4core4hash4Hash4hashpEB8_
FN:20,_RINvXs4_NtCsdmZoVYnqinT_18soroban_env_common4hashNtNtB8_3num10U128ObjectNtNtCs7L5q00ejtpZ_4core4hash4Hash4hashpEB8_
FN:20,_RINvXs5_NtCsdmZoVYnqinT_18soroban_env_common4hashNtNtB8_3num10I128ObjectNtNtCs7L5q00ejtpZ_4core4hash4Hash4hashpEB8_
FN:20,_RINvXs0_NtCsdmZoVYnqinT_18soroban_env_common4hashNtNtB8_3num9U64ObjectNtNtCs7L5q00ejtpZ_4core4hash4Hash4hashpEB8_
FN:20,_RINvXs_NtCsdmZoVYnqinT_18soroban_env_common4hashNtNtB7_6object6ObjectNtNtCs7L5q00ejtpZ_4core4hash4Hash4hashpEB7_
FN:20,_RINvXsa_NtCsdmZoVYnqinT_18soroban_env_common4hashNtNtB8_6symbol12SymbolObjectNtNtCs7L5q00ejtpZ_4core4hash4Hash4hashpEB8_
FN:20,_RINvXsb_NtCsdmZoVYnqinT_18soroban_env_common4hashNtNtB8_6symbol6SymbolNtNtCs7L5q00ejtpZ_4core4hash4Hash4hashpEB8_
FN:20,_RINvXsc_NtCsdmZoVYnqinT_18soroban_env_common4hashNtNtB8_3val9VecObjectNtNtCs7L5q00ejtpZ_4core4hash4Hash4hashpEB8_
FN:20,_RINvXsd_NtCsdmZoVYnqinT_18soroban_env_common4hashNtNtB8_3val9MapObjectNtNtCs7L5q00ejtpZ_4core4hash4Hash4hashpEB8_
FN:20,_RINvXse_NtCsdmZoVYnqinT_18soroban_env_common4hashNtNtB8_3val13AddressObjectNtNtCs7L5q00ejtpZ_4core4hash4Hash4hashpEB8_
FN:20,_RINvXs3_NtCsdmZoVYnqinT_18soroban_env_common4hashNtNtB8_3num14DurationObjectNtNtCs7L5q00ejtpZ_4core4hash4Hash4hashpEB8_
FNDA:0,_RINvXs6_NtCsdmZoVYnqinT_18soroban_env_common4hashNtNtB8_3num10U256ObjectNtNtCs7L5q00ejtpZ_4core4hash4Hash4hashpEB8_
FNDA:0,_RINvXs7_NtCsdmZoVYnqinT_18soroban_env_common4hashNtNtB8_3num10I256ObjectNtNtCs7L5q00ejtpZ_4core4hash4Hash4hashpEB8_
FNDA:0,_RINvXNtCsdmZoVYnqinT_18soroban_env_common4hashNtNtB5_3val3ValNtNtCs7L5q00ejtpZ_4core4hash4Hash4hashpEB5_
FNDA:0,_RINvXs8_NtCsdmZoVYnqinT_18soroban_env_common4hashNtNtB8_5bytes11BytesObjectNtNtCs7L5q00ejtpZ_4core4hash4Hash4hashpEB8_
FNDA:0,_RINvXs9_NtCsdmZoVYnqinT_18soroban_env_common4hashNtNtB8_6string12StringObjectNtNtCs7L5q00ejtpZ_4core4hash4Hash4hashpEB8_
FNDA:0,_RINvXs1_NtCsdmZoVYnqinT_18soroban_env_common4hashNtNtB8_3num9I64ObjectNtNtCs7L5q00ejtpZ_4core4hash4Hash4hashpEB8_
FNDA:0,_RINvXs2_NtCsdmZoVYnqinT_18soroban_env_common4hashNtNtB8_3num15TimepointObjectNtNtCs7L5q00ejtpZ_4core4hash4Hash4hashpEB8_
FNDA:0,_RINvXs4_NtCsdmZoVYnqinT_18soroban_env_common4hashNtNtB8_3num10U128ObjectNtNtCs7L5q00ejtpZ_4core4hash4Hash4hashpEB8_
FNDA:0,_RINvXs5_NtCsdmZoVYnqinT_18soroban_env_common4hashNtNtB8_3num10I128ObjectNtNtCs7L5q00ejtpZ_4core4hash4Hash4hashpEB8_
FNDA:0,_RINvXs0_NtCsdmZoVYnqinT_18soroban_env_common4hashNtNtB8_3num9U64ObjectNtNtCs7L5q00ejtpZ_4core4hash4Hash4hashpEB8_
FNDA:0,_RINvXs_NtCsdmZoVYnqinT_18soroban_env_common4hashNtNtB7_6object6ObjectNtNtCs7L5q00ejtpZ_4core4hash4Hash4hashpEB7_
FNDA:0,_RINvXsa_NtCsdmZoVYnqinT_18soroban_env_common4hashNtNtB8_6symbol12SymbolObjectNtNtCs7L5q00ejtpZ_4core4hash4Hash4hashpEB8_
FNDA:0,_RINvXsb_NtCsdmZoVYnqinT_18soroban_env_common4hashNtNtB8_6symbol6SymbolNtNtCs7L5q00ejtpZ_4core4hash4Hash4hashpEB8_
FNDA:0,_RINvXsc_NtCsdmZoVYnqinT_18soroban_env_common4hashNtNtB8_3val9VecObjectNtNtCs7L5q00ejtpZ_4core4hash4Hash4hashpEB8_
FNDA:0,_RINvXsd_NtCsdmZoVYnqinT_18soroban_env_common4hashNtNtB8_3val9MapObjectNtNtCs7L5q00ejtpZ_4core4hash4Hash4hashpEB8_
FNDA:0,_RINvXse_NtCsdmZoVYnqinT_18soroban_env_common4hashNtNtB8_3val13AddressObjectNtNtCs7L5q00ejtpZ_4core4hash4Hash4hashpEB8_
FNDA:0,_RINvXs3_NtCsdmZoVYnqinT_18soroban_env_common4hashNtNtB8_3num14DurationObjectNtNtCs7L5q00ejtpZ_4core4hash4Hash4hashpEB8_
FNF:2
FNH:0
DA:12,0
DA:13,0
DA:14,0
DA:20,0
DA:21,0
DA:22,0
BRF:0
BRH:0
LF:6
LH:0
end_of_record
SF:/src/rs-soroban-env/soroban-env-common/src/lib.rs
FN:43,_RNvXs4_CsdmZoVYnqinT_18soroban_env_commonNtB5_7VersionNtNtCs7L5q00ejtpZ_4core3cmp10PartialOrd11partial_cmpB5_
FN:43,_RINvXs6_CsdmZoVYnqinT_18soroban_env_commonNtB6_7VersionNtNtCs7L5q00ejtpZ_4core4hash4Hash4hashpEB6_
FN:43,_RNvXs_CsdmZoVYnqinT_18soroban_env_commonNtB4_7VersionNtNtCs7L5q00ejtpZ_4core3fmt5Debug3fmt
FN:43,_RNvXs5_CsdmZoVYnqinT_18soroban_env_commonNtB5_7VersionNtNtCs7L5q00ejtpZ_4core3cmp3Ord3cmpB5_
FN:43,_RNvXCsdmZoVYnqinT_18soroban_env_commonNtB2_7VersionNtNtCs7L5q00ejtpZ_4core5clone5Clone5cloneB2_
FN:43,_RNvXs3_CsdmZoVYnqinT_18soroban_env_commonNtB5_7VersionNtNtCs7L5q00ejtpZ_4core3cmp9PartialEq2eqB5_
FNDA:0,_RNvXs4_CsdmZoVYnqinT_18soroban_env_commonNtB5_7VersionNtNtCs7L5q00ejtpZ_4core3cmp10PartialOrd11partial_cmpB5_
FNDA:0,_RINvXs6_CsdmZoVYnqinT_18soroban_env_commonNtB6_7VersionNtNtCs7L5q00ejtpZ_4core4hash4Hash4hashpEB6_
FNDA:0,_RNvXs_CsdmZoVYnqinT_18soroban_env_commonNtB4_7VersionNtNtCs7L5q00ejtpZ_4core3fmt5Debug3fmt
FNDA:0,_RNvXs5_CsdmZoVYnqinT_18soroban_env_commonNtB5_7VersionNtNtCs7L5q00ejtpZ_4core3cmp3Ord3cmpB5_
FNDA:0,_RNvXCsdmZoVYnqinT_18soroban_env_commonNtB2_7VersionNtNtCs7L5q00ejtpZ_4core5clone5Clone5cloneB2_
FNDA:0,_RNvXs3_CsdmZoVYnqinT_18soroban_env_commonNtB5_7VersionNtNtCs7L5q00ejtpZ_4core3cmp9PartialEq2eqB5_
FNF:6
FNH:0
DA:43,0
BRF:0
BRH:0
LF:6
LH:0
end_of_record
SF:/src/rs-soroban-env/soroban-env-common/src/meta.rs
FN:69,_RNvNtCsdmZoVYnqinT_18soroban_env_common4meta23get_pre_release_version
FN:64,_RNvNtCsdmZoVYnqinT_18soroban_env_common4meta27get_ledger_protocol_version
FNDA:8624,_RNvNtCsdmZoVYnqinT_18soroban_env_common4meta23get_pre_release_version
FNDA:9702,_RNvNtCsdmZoVYnqinT_18soroban_env_common4meta27get_ledger_protocol_version
FNF:2
FNH:2
DA:64,9702
DA:65,9702
DA:66,9702
DA:67,9702
DA:69,8624
DA:70,8624
DA:71,8624
DA:72,8624
BRF:0
BRH:0
LF:8
LH:8
end_of_record
SF:/src/rs-soroban-env/soroban-env-common/src/num.rs
FN:36,_RNvXs0_NtCsdmZoVYnqinT_18soroban_env_common3numNtNtCs8j26R3SUG40_16soroban_env_host4host4HostINtNtB7_7compare7CompareNtB5_6I32ValE7compareBN_
FN:17,_RNvMNtCsdmZoVYnqinT_18soroban_env_common3numNtNtB4_3val3Val8from_u32
FN:22,_RNvMNtCsdmZoVYnqinT_18soroban_env_common3numNtNtB4_3val3Val8from_i32
FN:29,_RNvXs_NtCsdmZoVYnqinT_18soroban_env_common3numNtNtCs8j26R3SUG40_16soroban_env_host4host4HostINtNtB6_7compare7CompareNtB4_6U32ValE7compareBM_
FN:195,_RNvXsj_NtCsdmZoVYnqinT_18soroban_env_common3numNtNtNtCs47RmZobMba4_11stellar_xdr4curr9generated5ScValINtNtCs7L5q00ejtpZ_4core7convert7TryFromNtB5_13DurationSmallE8try_from
FN:209,_RNvXsl_NtCsdmZoVYnqinT_18soroban_env_common3numNtB5_9U128SmallINtNtCs7L5q00ejtpZ_4core7convert7TryFromoE8try_from
FN:405,_RNvNtCsdmZoVYnqinT_18soroban_env_common3num13is_small_i256
FN:188,_RNvXsi_NtCsdmZoVYnqinT_18soroban_env_common3numNtNtNtCs47RmZobMba4_11stellar_xdr4curr9generated5ScValINtNtCs7L5q00ejtpZ_4core7convert7TryFromRNtB5_14TimepointSmallE8try_from
FN:202,_RNvXsk_NtCsdmZoVYnqinT_18soroban_env_common3numNtNtNtCs47RmZobMba4_11stellar_xdr4curr9generated5ScValINtNtCs7L5q00ejtpZ_4core7convert7TryFromRNtB5_13DurationSmallE8try_from
FN:419,_RNvNtCsdmZoVYnqinT_18soroban_env_common3num16u256_from_pieces
FN:351,_RNvMsA_NtCsdmZoVYnqinT_18soroban_env_common3numNtB5_7U128Val8from_u32
FN:370,_RNvMsD_NtCsdmZoVYnqinT_18soroban_env_common3numNtB5_9U256Small8from_u32
FN:86,_RNvXs6_NtCsdmZoVYnqinT_18soroban_env_common3numxINtNtCs7L5q00ejtpZ_4core7convert4FromNtB5_8I64SmallE4from
FN:305,_RNvMst_NtCsdmZoVYnqinT_18soroban_env_common3numNtB5_8I64Small8from_i32
FN:261,_RNvXsp_NtCsdmZoVYnqinT_18soroban_env_common3numNtNtNtCs47RmZobMba4_11stellar_xdr4curr9generated5ScValINtNtCs7L5q00ejtpZ_4core7convert7TryFromNtB5_9U256SmallE8try_from
FN:36,_RNvXININtCsdmZoVYnqinT_18soroban_env_common3nums0_0pEpINtNtB7_7compare7CompareNtB5_6I32ValE7compareB7_
FN:364,_RNvMsC_NtCsdmZoVYnqinT_18soroban_env_common3numNtB5_7I256Val8from_i32
FN:410,_RNvNtCsdmZoVYnqinT_18soroban_env_common3num19is_small_u256_parts
FN:425,_RNvNtCsdmZoVYnqinT_18soroban_env_common3num16u256_into_pieces
FN:80,_RNvXs5_NtCsdmZoVYnqinT_18soroban_env_common3numyINtNtCs7L5q00ejtpZ_4core7convert4FromNtB5_8U64SmallE4from
FN:338,_RNvMsy_NtCsdmZoVYnqinT_18soroban_env_common3numNtB5_7I128Val8from_i32
FN:296,_RNvXss_NtCsdmZoVYnqinT_18soroban_env_common3numNtNtNtCs47RmZobMba4_11stellar_xdr4curr9generated5ScValINtNtCs7L5q00ejtpZ_4core7convert7TryFromRNtB5_9I256SmallE8try_from
FN:414,_RNvNtCsdmZoVYnqinT_18soroban_env_common3num19is_small_i256_parts
FN:29,_RNvXININtCsdmZoVYnqinT_18soroban_env_common3nums_0pEpINtNtB7_7compare7CompareNtB5_6U32ValE7compareB7_
FN:357,_RNvMsB_NtCsdmZoVYnqinT_18soroban_env_common3numNtB5_9I256Small8from_i32
FN:74,_RNvXs4_NtCsdmZoVYnqinT_18soroban_env_common3numlINtNtCs7L5q00ejtpZ_4core7convert4FromNtB5_6I32ValE4from
FN:92,_RNvXs7_NtCsdmZoVYnqinT_18soroban_env_common3numyINtNtCs7L5q00ejtpZ_4core7convert4FromNtB5_14TimepointSmallE4from
FN:222,_RNvXsm_NtCsdmZoVYnqinT_18soroban_env_common3numNtB5_9I128SmallINtNtCs7L5q00ejtpZ_4core7convert7TryFromnE8try_from
FN:235,_RNvXsn_NtCsdmZoVYnqinT_18soroban_env_common3numNtB5_9U256SmallINtNtCs7L5q00ejtpZ_4core7convert7TryFromNtNtCsi2TmYI1UVRz_6ethnum4uint4U256E8try_from
FN:438,_RNvNtCsdmZoVYnqinT_18soroban_env_common3num16i256_into_pieces
FN:382,_RNvNtCsdmZoVYnqinT_18soroban_env_common3num12is_small_u64
FN:275,_RNvXsq_NtCsdmZoVYnqinT_18soroban_env_common3numNtNtNtCs47RmZobMba4_11stellar_xdr4curr9generated5ScValINtNtCs7L5q00ejtpZ_4core7convert7TryFromRNtB5_9U256SmallE8try_from
FN:395,_RNvNtCsdmZoVYnqinT_18soroban_env_common3num13is_small_i128
FN:325,_RNvMsw_NtCsdmZoVYnqinT_18soroban_env_common3numNtB5_6U64Val8from_u32
FN:62,_RNvXs2_NtCsdmZoVYnqinT_18soroban_env_common3nummINtNtCs7L5q00ejtpZ_4core7convert4FromNtB5_6U32ValE4from
FN:129,_RNvXsd_NtCsdmZoVYnqinT_18soroban_env_common3numNtB5_8U64SmallINtNtCs7L5q00ejtpZ_4core7convert7TryFromyE8try_from
FN:282,_RNvXsr_NtCsdmZoVYnqinT_18soroban_env_common3numNtNtNtCs47RmZobMba4_11stellar_xdr4curr9generated5ScValINtNtCs7L5q00ejtpZ_4core7convert7TryFromNtB5_9I256SmallE8try_from
FN:122,_RNvXsc_NtCsdmZoVYnqinT_18soroban_env_common3numNtNtCsi2TmYI1UVRz_6ethnum3int4I256INtNtCs7L5q00ejtpZ_4core7convert4FromNtB5_9I256SmallE4from
FN:142,_RNvXse_NtCsdmZoVYnqinT_18soroban_env_common3numNtB5_8I64SmallINtNtCs7L5q00ejtpZ_4core7convert7TryFromxE8try_from
FN:181,_RNvXsh_NtCsdmZoVYnqinT_18soroban_env_common3numNtNtNtCs47RmZobMba4_11stellar_xdr4curr9generated5ScValINtNtCs7L5q00ejtpZ_4core7convert7TryFromNtB5_14TimepointSmallE8try_from
FN:390,_RNvNtCsdmZoVYnqinT_18soroban_env_common3num13is_small_u128
FN:377,_RNvMsE_NtCsdmZoVYnqinT_18soroban_env_common3numNtB5_7U256Val8from_u32
FN:110,_RNvXsa_NtCsdmZoVYnqinT_18soroban_env_common3numnINtNtCs7L5q00ejtpZ_4core7convert4FromNtB5_9I128SmallE4from
FN:331,_RNvMsx_NtCsdmZoVYnqinT_18soroban_env_common3numNtB5_9I128Small8from_i32
FN:68,_RNvXs3_NtCsdmZoVYnqinT_18soroban_env_common3numNtB5_6I32ValINtNtCs7L5q00ejtpZ_4core7convert4FromlE4from
FN:248,_RNvXso_NtCsdmZoVYnqinT_18soroban_env_common3numNtB5_9I256SmallINtNtCs7L5q00ejtpZ_4core7convert7TryFromNtNtCsi2TmYI1UVRz_6ethnum3int4I256E8try_from
FN:344,_RNvMsz_NtCsdmZoVYnqinT_18soroban_env_common3numNtB5_9U128Small8from_u32
FN:104,_RNvXs9_NtCsdmZoVYnqinT_18soroban_env_common3numoINtNtCs7L5q00ejtpZ_4core7convert4FromNtB5_9U128SmallE4from
FN:318,_RNvMsv_NtCsdmZoVYnqinT_18soroban_env_common3numNtB5_8U64Small8from_u32
FN:155,_RNvXsf_NtCsdmZoVYnqinT_18soroban_env_common3numNtB5_14TimepointSmallINtNtCs7L5q00ejtpZ_4core7convert7TryFromyE8try_from
FN:168,_RNvXsg_NtCsdmZoVYnqinT_18soroban_env_common3numNtB5_13DurationSmallINtNtCs7L5q00ejtpZ_4core7convert7TryFromyE8try_from
FN:386,_RNvNtCsdmZoVYnqinT_18soroban_env_common3num12is_small_i64
FN:98,_RNvXs8_NtCsdmZoVYnqinT_18soroban_env_common3numyINtNtCs7L5q00ejtpZ_4core7convert4FromNtB5_13DurationSmallE4from
FN:116,_RNvXsb_NtCsdmZoVYnqinT_18soroban_env_common3numNtNtCsi2TmYI1UVRz_6ethnum4uint4U256INtNtCs7L5q00ejtpZ_4core7convert4FromNtB5_9U256SmallE4from
FN:56,_RNvXs1_NtCsdmZoVYnqinT_18soroban_env_common3numNtB5_6U32ValINtNtCs7L5q00ejtpZ_4core7convert4FrommE4from
FN:400,_RNvNtCsdmZoVYnqinT_18soroban_env_common3num13is_small_u256
FN:432,_RNvNtCsdmZoVYnqinT_18soroban_env_common3num16i256_from_pieces
FN:312,_RNvMsu_NtCsdmZoVYnqinT_18soroban_env_common3numNtB5_6I64Val8from_i32
FNDA:0,_RNvXs0_NtCsdmZoVYnqinT_18soroban_env_common3numNtNtCs8j26R3SUG40_16soroban_env_host4host4HostINtNtB7_7compare7CompareNtB5_6I32ValE7compareBN_
FNDA:1432,_RNvMNtCsdmZoVYnqinT_18soroban_env_common3numNtNtB4_3val3Val8from_u32
FNDA:39,_RNvMNtCsdmZoVYnqinT_18soroban_env_common3numNtNtB4_3val3Val8from_i32
FNDA:77,_RNvXs_NtCsdmZoVYnqinT_18soroban_env_common3numNtNtCs8j26R3SUG40_16soroban_env_host4host4HostINtNtB6_7compare7CompareNtB4_6U32ValE7compareBM_
FNDA:0,_RNvXsj_NtCsdmZoVYnqinT_18soroban_env_common3numNtNtNtCs47RmZobMba4_11stellar_xdr4curr9generated5ScValINtNtCs7L5q00ejtpZ_4core7convert7TryFromNtB5_13DurationSmallE8try_from
FNDA:0,_RNvXsl_NtCsdmZoVYnqinT_18soroban_env_common3numNtB5_9U128SmallINtNtCs7L5q00ejtpZ_4core7convert7TryFromoE8try_from
FNDA:26,_RNvNtCsdmZoVYnqinT_18soroban_env_common3num13is_small_i256
FNDA:0,_RNvXsi_NtCsdmZoVYnqinT_18soroban_env_common3numNtNtNtCs47RmZobMba4_11stellar_xdr4curr9generated5ScValINtNtCs7L5q00ejtpZ_4core7convert7TryFromRNtB5_14TimepointSmallE8try_from
FNDA:0,_RNvXsk_NtCsdmZoVYnqinT_18soroban_env_common3numNtNtNtCs47RmZobMba4_11stellar_xdr4curr9generated5ScValINtNtCs7L5q00ejtpZ_4core7convert7TryFromRNtB5_13DurationSmallE8try_from
FNDA:0,_RNvNtCsdmZoVYnqinT_18soroban_env_common3num16u256_from_pieces
FNDA:0,_RNvMsA_NtCsdmZoVYnqinT_18soroban_env_common3numNtB5_7U128Val8from_u32
FNDA:0,_RNvMsD_NtCsdmZoVYnqinT_18soroban_env_common3numNtB5_9U256Small8from_u32
FNDA:0,_RNvXs6_NtCsdmZoVYnqinT_18soroban_env_common3numxINtNtCs7L5q00ejtpZ_4core7convert4FromNtB5_8I64SmallE4from
FNDA:0,_RNvMst_NtCsdmZoVYnqinT_18soroban_env_common3numNtB5_8I64Small8from_i32
FNDA:0,_RNvXsp_NtCsdmZoVYnqinT_18soroban_env_common3numNtNtNtCs47RmZobMba4_11stellar_xdr4curr9generated5ScValINtNtCs7L5q00ejtpZ_4core7convert7TryFromNtB5_9U256SmallE8try_from
FNDA:0,_RNvXININtCsdmZoVYnqinT_18soroban_env_common3nums0_0pEpINtNtB7_7compare7CompareNtB5_6I32ValE7compareB7_
FNDA:0,_RNvMsC_NtCsdmZoVYnqinT_18soroban_env_common3numNtB5_7I256Val8from_i32
FNDA:0,_RNvNtCsdmZoVYnqinT_18soroban_env_common3num19is_small_u256_parts
FNDA:0,_RNvNtCsdmZoVYnqinT_18soroban_env_common3num16u256_into_pieces
FNDA:0,_RNvXs5_NtCsdmZoVYnqinT_18soroban_env_common3numyINtNtCs7L5q00ejtpZ_4core7convert4FromNtB5_8U64SmallE4from
FNDA:0,_RNvMsy_NtCsdmZoVYnqinT_18soroban_env_common3numNtB5_7I128Val8from_i32
FNDA:0,_RNvXss_NtCsdmZoVYnqinT_18soroban_env_common3numNtNtNtCs47RmZobMba4_11stellar_xdr4curr9generated5ScValINtNtCs7L5q00ejtpZ_4core7convert7TryFromRNtB5_9I256SmallE8try_from
FNDA:0,_RNvNtCsdmZoVYnqinT_18soroban_env_common3num19is_small_i256_parts
FNDA:0,_RNvXININtCsdmZoVYnqinT_18soroban_env_common3nums_0pEpINtNtB7_7compare7CompareNtB5_6U32ValE7compareB7_
FNDA:0,_RNvMsB_NtCsdmZoVYnqinT_18soroban_env_common3numNtB5_9I256Small8from_i32
FNDA:0,_RNvXs4_NtCsdmZoVYnqinT_18soroban_env_common3numlINtNtCs7L5q00ejtpZ_4core7convert4FromNtB5_6I32ValE4from
FNDA:0,_RNvXs7_NtCsdmZoVYnqinT_18soroban_env_common3numyINtNtCs7L5q00ejtpZ_4core7convert4FromNtB5_14TimepointSmallE4from
FNDA:0,_RNvXsm_NtCsdmZoVYnqinT_18soroban_env_common3numNtB5_9I128SmallINtNtCs7L5q00ejtpZ_4core7convert7TryFromnE8try_from
FNDA:6,_RNvXsn_NtCsdmZoVYnqinT_18soroban_env_common3numNtB5_9U256SmallINtNtCs7L5q00ejtpZ_4core7convert7TryFromNtNtCsi2TmYI1UVRz_6ethnum4uint4U256E8try_from
FNDA:6,_RNvNtCsdmZoVYnqinT_18soroban_env_common3num16i256_into_pieces
FNDA:38,_RNvNtCsdmZoVYnqinT_18soroban_env_common3num12is_small_u64
FNDA:0,_RNvXsq_NtCsdmZoVYnqinT_18soroban_env_common3numNtNtNtCs47RmZobMba4_11stellar_xdr4curr9generated5ScValINtNtCs7L5q00ejtpZ_4core7convert7TryFromRNtB5_9U256SmallE8try_from
FNDA:0,_RNvNtCsdmZoVYnqinT_18soroban_env_common3num13is_small_i128
FNDA:0,_RNvMsw_NtCsdmZoVYnqinT_18soroban_env_common3numNtB5_6U64Val8from_u32
FNDA:672,_RNvXs2_NtCsdmZoVYnqinT_18soroban_env_common3nummINtNtCs7L5q00ejtpZ_4core7convert4FromNtB5_6U32ValE4from
FNDA:32,_RNvXsd_NtCsdmZoVYnqinT_18soroban_env_common3numNtB5_8U64SmallINtNtCs7L5q00ejtpZ_4core7convert7TryFromyE8try_from
FNDA:0,_RNvXsr_NtCsdmZoVYnqinT_18soroban_env_common3numNtNtNtCs47RmZobMba4_11stellar_xdr4curr9generated5ScValINtNtCs7L5q00ejtpZ_4core7convert7TryFromNtB5_9I256SmallE8try_from
FNDA:16,_RNvXsc_NtCsdmZoVYnqinT_18soroban_env_common3numNtNtCsi2TmYI1UVRz_6ethnum3int4I256INtNtCs7L5q00ejtpZ_4core7convert4FromNtB5_9I256SmallE4from
FNDA:0,_RNvXse_NtCsdmZoVYnqinT_18soroban_env_common3numNtB5_8I64SmallINtNtCs7L5q00ejtpZ_4core7convert7TryFromxE8try_from
FNDA:0,_RNvXsh_NtCsdmZoVYnqinT_18soroban_env_common3numNtNtNtCs47RmZobMba4_11stellar_xdr4curr9generated5ScValINtNtCs7L5q00ejtpZ_4core7convert7TryFromNtB5_14TimepointSmallE8try_from
FNDA:0,_RNvNtCsdmZoVYnqinT_18soroban_env_common3num13is_small_u128
FNDA:0,_RNvMsE_NtCsdmZoVYnqinT_18soroban_env_common3numNtB5_7U256Val8from_u32
FNDA:0,_RNvXsa_NtCsdmZoVYnqinT_18soroban_env_common3numnINtNtCs7L5q00ejtpZ_4core7convert4FromNtB5_9I128SmallE4from
FNDA:0,_RNvMsx_NtCsdmZoVYnqinT_18soroban_env_common3numNtB5_9I128Small8from_i32
FNDA:37,_RNvXs3_NtCsdmZoVYnqinT_18soroban_env_common3numNtB5_6I32ValINtNtCs7L5q00ejtpZ_4core7convert4FromlE4from
FNDA:26,_RNvXso_NtCsdmZoVYnqinT_18soroban_env_common3numNtB5_9I256SmallINtNtCs7L5q00ejtpZ_4core7convert7TryFromNtNtCsi2TmYI1UVRz_6ethnum3int4I256E8try_from
FNDA:0,_RNvMsz_NtCsdmZoVYnqinT_18soroban_env_common3numNtB5_9U128Small8from_u32
FNDA:0,_RNvXs9_NtCsdmZoVYnqinT_18soroban_env_common3numoINtNtCs7L5q00ejtpZ_4core7convert4FromNtB5_9U128SmallE4from
FNDA:0,_RNvMsv_NtCsdmZoVYnqinT_18soroban_env_common3numNtB5_8U64Small8from_u32
FNDA:0,_RNvXsf_NtCsdmZoVYnqinT_18soroban_env_common3numNtB5_14TimepointSmallINtNtCs7L5q00ejtpZ_4core7convert7TryFromyE8try_from
FNDA:0,_RNvXsg_NtCsdmZoVYnqinT_18soroban_env_common3numNtB5_13DurationSmallINtNtCs7L5q00ejtpZ_4core7convert7TryFromyE8try_from
FNDA:26,_RNvNtCsdmZoVYnqinT_18soroban_env_common3num12is_small_i64
FNDA:0,_RNvXs8_NtCsdmZoVYnqinT_18soroban_env_common3numyINtNtCs7L5q00ejtpZ_4core7convert4FromNtB5_13DurationSmallE4from
FNDA:2,_RNvXsb_NtCsdmZoVYnqinT_18soroban_env_common3numNtNtCsi2TmYI1UVRz_6ethnum4uint4U256INtNtCs7L5q00ejtpZ_4core7convert4FromNtB5_9U256SmallE4from
FNDA:589,_RNvXs1_NtCsdmZoVYnqinT_18soroban_env_common3numNtB5_6U32ValINtNtCs7L5q00ejtpZ_4core7convert4FrommE4from
FNDA:6,_RNvNtCsdmZoVYnqinT_18soroban_env_common3num13is_small_u256
FNDA:0,_RNvNtCsdmZoVYnqinT_18soroban_env_common3num16i256_from_pieces
FNDA:0,_RNvMsu_NtCsdmZoVYnqinT_18soroban_env_common3numNtB5_6I64Val8from_i32
FNF:56
FNH:16
DA:17,1432
DA:18,1432
DA:19,1432
DA:22,39
DA:23,39
DA:24,39
DA:29,77
DA:30,77
DA:31,77
DA:36,0
DA:37,0
DA:38,0
DA:56,589
DA:57,589
DA:58,589
DA:62,672
DA:63,672
DA:64,672
DA:68,37
DA:69,37
DA:70,37
DA:74,0
DA:75,0
DA:76,0
DA:80,0
DA:81,0
DA:82,0
DA:86,0
DA:87,0
DA:88,0
DA:92,0
DA:93,0
DA:94,0
DA:98,0
DA:99,0
DA:100,0
DA:104,0
DA:105,0
DA:106,0
DA:110,0
DA:111,0
DA:112,0
DA:116,2
DA:117,2
DA:118,2
DA:122,16
DA:123,16
DA:124,16
DA:129,32
DA:130,32
DA:131,32
DA:132,32
DA:133,32
DA:135,0
DA:137,32
DA:142,0
DA:143,0
DA:144,0
DA:145,0
DA:146,0
DA:148,0
DA:150,0
DA:155,0
DA:156,0
DA:157,0
DA:158,0
DA:159,0
DA:161,0
DA:163,0
DA:168,0
DA:169,0
DA:170,0
DA:171,0
DA:172,0
DA:174,0
DA:176,0
DA:181,0
DA:182,0
DA:183,0
DA:188,0
DA:189,0
DA:190,0
DA:195,0
DA:196,0
DA:197,0
DA:202,0
DA:203,0
DA:204,0
DA:209,0
DA:210,0
DA:211,0
DA:212,0
DA:213,0
DA:215,0
DA:217,0
DA:222,0
DA:223,0
DA:224,0
DA:225,0
DA:226,0
DA:228,0
DA:230,0
DA:235,6
DA:236,6
DA:237,6
DA:238,6
DA:239,6
DA:241,0
DA:243,6
DA:248,26
DA:249,26
DA:250,26
DA:251,26
DA:252,26
DA:254,0
DA:256,26
DA:261,0
DA:262,0
DA:263,0
DA:264,0
DA:265,0
DA:266,0
DA:267,0
DA:268,0
DA:269,0
DA:270,0
DA:275,0
DA:276,0
DA:277,0
DA:282,0
DA:283,0
DA:284,0
DA:285,0
DA:286,0
DA:287,0
DA:288,0
DA:289,0
DA:290,0
DA:291,0
DA:296,0
DA:297,0
DA:298,0
DA:305,0
DA:306,0
DA:307,0
DA:308,0
DA:312,0
DA:313,0
DA:314,0
DA:318,0
DA:319,0
DA:320,0
DA:321,0
DA:325,0
DA:326,0
DA:327,0
DA:331,0
DA:332,0
DA:333,0
DA:334,0
DA:338,0
DA:339,0
DA:340,0
DA:344,0
DA:345,0
DA:346,0
DA:347,0
DA:351,0
DA:352,0
DA:353,0
DA:357,0
DA:358,0
DA:359,0
DA:360,0
DA:364,0
DA:365,0
DA:366,0
DA:370,0
DA:371,0
DA:372,0
DA:373,0
DA:377,0
DA:378,0
DA:379,0
DA:382,38
DA:383,38
DA:384,38
DA:386,26
DA:387,26
DA:388,26
DA:390,0
DA:391,0
DA:392,0
DA:393,0
DA:395,0
DA:396,0
DA:397,0
DA:398,0
DA:400,6
DA:401,6
DA:402,6
DA:403,6
DA:405,26
DA:406,26
DA:407,26
DA:408,26
DA:410,0
DA:411,0
DA:412,0
DA:414,0
DA:415,0
DA:416,0
DA:417,0
DA:419,0
DA:420,0
DA:421,0
DA:422,0
DA:423,0
DA:425,0
DA:426,0
DA:427,0
DA:428,0
DA:429,0
DA:430,0
DA:432,0
DA:433,0
DA:434,0
DA:435,0
DA:436,0
DA:438,6
DA:439,6
DA:440,6
DA:441,6
DA:442,6
DA:443,6
BRF:0
BRH:0
LF:235
LH:62
end_of_record
SF:/src/rs-soroban-env/soroban-env-common/src/object.rs
FN:78,_RNvXs3_NtCsdmZoVYnqinT_18soroban_env_common6objectNtB5_6ObjectINtNtB7_7convert10TryFromValNtNtCs8j26R3SUG40_16soroban_env_host4host4HostNtB5_11ScValObjRefE12try_from_valB1u_
FN:28,_RNvMs_NtCsdmZoVYnqinT_18soroban_env_common6objectNtB4_6Object10get_handle
FN:33,_RNvMs_NtCsdmZoVYnqinT_18soroban_env_common6objectNtB4_6Object19from_handle_and_tag
FN:67,_RNvXs2_NtCsdmZoVYnqinT_18soroban_env_common6objectNtB5_11ScValObjectINtNtB7_7convert10TryFromValNtNtCs8j26R3SUG40_16soroban_env_host4host4HostNtB5_6ObjectE12try_from_valB1A_
FN:42,_RNvXs0_NtCsdmZoVYnqinT_18soroban_env_common6objectNtNtCs8j26R3SUG40_16soroban_env_host4host4HostINtNtB7_7compare7CompareNtB5_6ObjectE7compareBQ_
FN:21,_RNvXNtCsdmZoVYnqinT_18soroban_env_common6objectNtB2_6ObjectNtNtB4_3val10ValConvert18unchecked_from_val
FN:54,_RINvXso_NtCsdmZoVYnqinT_18soroban_env_common6objectNtB6_11ScValObjectNtNtCs7L5q00ejtpZ_4core4hash4Hash4hashpEB8_
FN:89,_RNvMs4_NtCsdmZoVYnqinT_18soroban_env_common6objectNtB5_11ScValObject8classify
FN:105,_RNvXs5_NtCsdmZoVYnqinT_18soroban_env_common6objectNtB5_11ScValObjectINtNtCs7L5q00ejtpZ_4core7convert5AsRefNtNtNtCs47RmZobMba4_11stellar_xdr4curr9generated5ScValE6as_ref
FN:57,_RNvXs1_NtCsdmZoVYnqinT_18soroban_env_common6objectNtNtNtCs47RmZobMba4_11stellar_xdr4curr9generated5ScValINtNtCs7L5q00ejtpZ_4core7convert4FromNtB5_11ScValObjectE4from
FN:54,_RNvXst_NtCsdmZoVYnqinT_18soroban_env_common6objectNtB5_11ScValObjectNtNtCs7L5q00ejtpZ_4core3cmp10PartialOrd11partial_cmpB7_
FN:110,_RNvXsA_NtCsdmZoVYnqinT_18soroban_env_common6objectNtB5_11ScValObjRefNtNtCs7L5q00ejtpZ_4core3cmp9PartialEq2eqB7_
FN:110,_RNvXsv_NtCsdmZoVYnqinT_18soroban_env_common6objectNtB5_11ScValObjRefNtNtCs7L5q00ejtpZ_4core5clone5Clone5cloneB7_
FN:17,_RNvXNtCsdmZoVYnqinT_18soroban_env_common6objectNtB2_6ObjectNtNtB4_3val10ValConvert11is_val_type
FN:110,_RINvXsy_NtCsdmZoVYnqinT_18soroban_env_common6objectNtB6_11ScValObjRefNtNtCs7L5q00ejtpZ_4core4hash4Hash4hashpEB8_
FN:110,_RNvXsx_NtCsdmZoVYnqinT_18soroban_env_common6objectNtB5_11ScValObjRefNtNtCs7L5q00ejtpZ_4core3fmt5Debug3fmt
FN:120,_RNvXs7_NtCsdmZoVYnqinT_18soroban_env_common6objectNtB5_11ScValObjRefINtNtCs7L5q00ejtpZ_4core7convert5AsRefNtNtNtCs47RmZobMba4_11stellar_xdr4curr9generated5ScValE6as_ref
FN:54,_RNvXsu_NtCsdmZoVYnqinT_18soroban_env_common6objectNtB5_11ScValObjectNtNtCs7L5q00ejtpZ_4core3cmp3Ord3cmpB7_
FN:67,_RNvXININtCsdmZoVYnqinT_18soroban_env_common6objects2_0pENtB5_11ScValObjectINtNtB7_7convert10TryFromValpNtB5_6ObjectE12try_from_valB7_
FN:99,_RNvMs4_NtCsdmZoVYnqinT_18soroban_env_common6objectNtB5_11ScValObject18unchecked_from_val
FN:78,_RNvXININtCsdmZoVYnqinT_18soroban_env_common6objects3_0pENtB5_6ObjectINtNtB7_7convert10TryFromValpNtB5_11ScValObjRefE12try_from_valB7_
FN:12,_RNvXsa_NtCsdmZoVYnqinT_18soroban_env_common6objectNtB5_6ObjectNtNtCs7L5q00ejtpZ_4core5clone5Clone5cloneB7_
FN:54,_RNvXsn_NtCsdmZoVYnqinT_18soroban_env_common6objectNtB5_11ScValObjectNtNtCs7L5q00ejtpZ_4core3fmt5Debug3fmt
FN:54,_RNvXsq_NtCsdmZoVYnqinT_18soroban_env_common6objectNtB5_11ScValObjectNtNtCs7L5q00ejtpZ_4core3cmp9PartialEq2eqB7_
FN:110,_RNvXsD_NtCsdmZoVYnqinT_18soroban_env_common6objectNtB5_11ScValObjRefNtNtCs7L5q00ejtpZ_4core3cmp10PartialOrd11partial_cmpB7_
FN:54,_RNvXsm_NtCsdmZoVYnqinT_18soroban_env_common6objectNtB5_11ScValObjectNtNtCs7L5q00ejtpZ_4core5clone5Clone5cloneB7_
FN:110,_RNvXsE_NtCsdmZoVYnqinT_18soroban_env_common6objectNtB5_11ScValObjRefNtNtCs7L5q00ejtpZ_4core3cmp3Ord3cmpB7_
FN:114,_RNvXs6_NtCsdmZoVYnqinT_18soroban_env_common6objectRNtNtNtCs47RmZobMba4_11stellar_xdr4curr9generated5ScValINtNtCs7L5q00ejtpZ_4core7convert4FromNtB5_11ScValObjRefE4from
FN:42,_RNvXININtCsdmZoVYnqinT_18soroban_env_common6objects0_0pEpINtNtB7_7compare7CompareNtB5_6ObjectE7compareB7_
FN:128,_RNvMs8_NtCsdmZoVYnqinT_18soroban_env_common6objectNtB5_11ScValObjRef8classify
FNDA:13150,_RNvXs3_NtCsdmZoVYnqinT_18soroban_env_common6objectNtB5_6ObjectINtNtB7_7convert10TryFromValNtNtCs8j26R3SUG40_16soroban_env_host4host4HostNtB5_11ScValObjRefE12try_from_valB1u_
FNDA:62956,_RNvMs_NtCsdmZoVYnqinT_18soroban_env_common6objectNtB4_6Object10get_handle
FNDA:48450,_RNvMs_NtCsdmZoVYnqinT_18soroban_env_common6objectNtB4_6Object19from_handle_and_tag
FNDA:834,_RNvXs2_NtCsdmZoVYnqinT_18soroban_env_common6objectNtB5_11ScValObjectINtNtB7_7convert10TryFromValNtNtCs8j26R3SUG40_16soroban_env_host4host4HostNtB5_6ObjectE12try_from_valB1A_
FNDA:2164,_RNvXs0_NtCsdmZoVYnqinT_18soroban_env_common6objectNtNtCs8j26R3SUG40_16soroban_env_host4host4HostINtNtB7_7compare7CompareNtB5_6ObjectE7compareBQ_
FNDA:45726,_RNvXNtCsdmZoVYnqinT_18soroban_env_common6objectNtB2_6ObjectNtNtB4_3val10ValConvert18unchecked_from_val
FNDA:0,_RINvXso_NtCsdmZoVYnqinT_18soroban_env_common6objectNtB6_11ScValObjectNtNtCs7L5q00ejtpZ_4core4hash4Hash4hashpEB8_
FNDA:0,_RNvMs4_NtCsdmZoVYnqinT_18soroban_env_common6objectNtB5_11ScValObject8classify
FNDA:0,_RNvXs5_NtCsdmZoVYnqinT_18soroban_env_common6objectNtB5_11ScValObjectINtNtCs7L5q00ejtpZ_4core7convert5AsRefNtNtNtCs47RmZobMba4_11stellar_xdr4curr9generated5ScValE6as_ref
FNDA:832,_RNvXs1_NtCsdmZoVYnqinT_18soroban_env_common6objectNtNtNtCs47RmZobMba4_11stellar_xdr4curr9generated5ScValINtNtCs7L5q00ejtpZ_4core7convert4FromNtB5_11ScValObjectE4from
FNDA:0,_RNvXst_NtCsdmZoVYnqinT_18soroban_env_common6objectNtB5_11ScValObjectNtNtCs7L5q00ejtpZ_4core3cmp10PartialOrd11partial_cmpB7_
FNDA:0,_RNvXsA_NtCsdmZoVYnqinT_18soroban_env_common6objectNtB5_11ScValObjRefNtNtCs7L5q00ejtpZ_4core3cmp9PartialEq2eqB7_
FNDA:0,_RNvXsv_NtCsdmZoVYnqinT_18soroban_env_common6objectNtB5_11ScValObjRefNtNtCs7L5q00ejtpZ_4core5clone5Clone5cloneB7_
FNDA:53945,_RNvXNtCsdmZoVYnqinT_18soroban_env_common6objectNtB2_6ObjectNtNtB4_3val10ValConvert11is_val_type
FNDA:0,_RINvXsy_NtCsdmZoVYnqinT_18soroban_env_common6objectNtB6_11ScValObjRefNtNtCs7L5q00ejtpZ_4core4hash4Hash4hashpEB8_
FNDA:0,_RNvXsx_NtCsdmZoVYnqinT_18soroban_env_common6objectNtB5_11ScValObjRefNtNtCs7L5q00ejtpZ_4core3fmt5Debug3fmt
FNDA:0,_RNvXs7_NtCsdmZoVYnqinT_18soroban_env_common6objectNtB5_11ScValObjRefINtNtCs7L5q00ejtpZ_4core7convert5AsRefNtNtNtCs47RmZobMba4_11stellar_xdr4curr9generated5ScValE6as_ref
FNDA:0,_RNvXsu_NtCsdmZoVYnqinT_18soroban_env_common6objectNtB5_11ScValObjectNtNtCs7L5q00ejtpZ_4core3cmp3Ord3cmpB7_
FNDA:0,_RNvXININtCsdmZoVYnqinT_18soroban_env_common6objects2_0pENtB5_11ScValObjectINtNtB7_7convert10TryFromValpNtB5_6ObjectE12try_from_valB7_
FNDA:832,_RNvMs4_NtCsdmZoVYnqinT_18soroban_env_common6objectNtB5_11ScValObject18unchecked_from_val
FNDA:0,_RNvXININtCsdmZoVYnqinT_18soroban_env_common6objects3_0pENtB5_6ObjectINtNtB7_7convert10TryFromValpNtB5_11ScValObjRefE12try_from_valB7_
FNDA:0,_RNvXsa_NtCsdmZoVYnqinT_18soroban_env_common6objectNtB5_6ObjectNtNtCs7L5q00ejtpZ_4core5clone5Clone5cloneB7_
FNDA:0,_RNvXsn_NtCsdmZoVYnqinT_18soroban_env_common6objectNtB5_11ScValObjectNtNtCs7L5q00ejtpZ_4core3fmt5Debug3fmt
FNDA:0,_RNvXsq_NtCsdmZoVYnqinT_18soroban_env_common6objectNtB5_11ScValObjectNtNtCs7L5q00ejtpZ_4core3cmp9PartialEq2eqB7_
FNDA:0,_RNvXsD_NtCsdmZoVYnqinT_18soroban_env_common6objectNtB5_11ScValObjRefNtNtCs7L5q00ejtpZ_4core3cmp10PartialOrd11partial_cmpB7_
FNDA:0,_RNvXsm_NtCsdmZoVYnqinT_18soroban_env_common6objectNtB5_11ScValObjectNtNtCs7L5q00ejtpZ_4core5clone5Clone5cloneB7_
FNDA:0,_RNvXsE_NtCsdmZoVYnqinT_18soroban_env_common6objectNtB5_11ScValObjRefNtNtCs7L5q00ejtpZ_4core3cmp3Ord3cmpB7_
FNDA:13150,_RNvXs6_NtCsdmZoVYnqinT_18soroban_env_common6objectRNtNtNtCs47RmZobMba4_11stellar_xdr4curr9generated5ScValINtNtCs7L5q00ejtpZ_4core7convert4FromNtB5_11ScValObjRefE4from
FNDA:0,_RNvXININtCsdmZoVYnqinT_18soroban_env_common6objects0_0pEpINtNtB7_7compare7CompareNtB5_6ObjectE7compareB7_
FNDA:16219,_RNvMs8_NtCsdmZoVYnqinT_18soroban_env_common6objectNtB5_11ScValObjRef8classify
FNF:27
FNH:11
DA:12,0
DA:17,53945
DA:18,53945
DA:19,53945
DA:21,45726
DA:22,45726
DA:23,45726
DA:28,62956
DA:29,62956
DA:30,62956
DA:33,48450
DA:34,48450
DA:35,48450
DA:36,48450
DA:42,2164
DA:43,2164
DA:44,2164
DA:54,0
DA:57,832
DA:58,832
DA:59,832
DA:67,834
DA:68,834
DA:69,834
DA:78,13150
DA:79,13150
DA:80,13150
DA:81,0
DA:83,13150
DA:89,0
DA:90,0
DA:91,0
DA:93,0
DA:95,0
DA:99,832
DA:100,832
DA:101,832
DA:105,0
DA:106,0
DA:107,0
DA:110,0
DA:114,13150
DA:115,13150
DA:116,13150
DA:120,0
DA:121,0
DA:122,0
DA:128,16219
DA:129,16219
DA:139,833
DA:146,13150
DA:150,0
DA:151,0
DA:152,0
DA:154,0
DA:157,0
DA:158,0
DA:159,0
DA:161,0
DA:164,0
DA:165,0
DA:166,0
DA:168,0
DA:171,0
DA:172,0
DA:173,0
DA:175,0
DA:178,0
DA:179,0
DA:180,0
DA:182,0
DA:185,0
DA:186,0
DA:187,0
DA:189,0
DA:192,2236
DA:193,2236
DA:194,2236
DA:196,0
DA:200,16219
BRF:0
BRH:0
LF:90
LH:40
end_of_record
SF:/src/rs-soroban-env/soroban-env-common/src/option.rs
FN:24,_RNvXININtCsdmZoVYnqinT_18soroban_env_common6options_0ppENtNtB7_3val3ValINtNtB7_7convert10TryFromValpINtNtCs7L5q00ejtpZ_4core6option6OptionpEE12try_from_valB7_
FN:9,_RNvXININtCsdmZoVYnqinT_18soroban_env_common6option0ppEINtNtCs7L5q00ejtpZ_4core6option6OptionpEINtNtB7_7convert10TryFromValpNtNtB7_3val3ValE12try_from_valB7_
FNDA:0,_RNvXININtCsdmZoVYnqinT_18soroban_env_common6options_0ppENtNtB7_3val3ValINtNtB7_7convert10TryFromValpINtNtCs7L5q00ejtpZ_4core6option6OptionpEE12try_from_valB7_
FNDA:0,_RNvXININtCsdmZoVYnqinT_18soroban_env_common6option0ppEINtNtCs7L5q00ejtpZ_4core6option6OptionpEINtNtB7_7convert10TryFromValpNtNtB7_3val3ValE12try_from_valB7_
FNF:2
FNH:0
DA:9,0
DA:10,0
DA:11,0
DA:13,0
DA:15,0
DA:24,0
DA:25,0
DA:26,0
DA:27,0
DA:29,0
BRF:0
BRH:0
LF:10
LH:0
end_of_record
SF:/src/rs-soroban-env/soroban-env-common/src/result.rs
FN:12,_RNvXININtCsdmZoVYnqinT_18soroban_env_common6result0pppEINtNtCs7L5q00ejtpZ_4core6result6ResultppEINtNtB7_7convert10TryFromValpNtNtB7_3val3ValE12try_from_valB7_
FN:35,_RNvXININtCsdmZoVYnqinT_18soroban_env_common6results_0pppENtNtB7_3val3ValINtNtB7_7convert10TryFromValpINtNtCs7L5q00ejtpZ_4core6result6ResultppEE12try_from_valB7_
FNDA:0,_RNvXININtCsdmZoVYnqinT_18soroban_env_common6result0pppEINtNtCs7L5q00ejtpZ_4core6result6ResultppEINtNtB7_7convert10TryFromValpNtNtB7_3val3ValE12try_from_valB7_
FNDA:0,_RNvXININtCsdmZoVYnqinT_18soroban_env_common6results_0pppENtNtB7_3val3ValINtNtB7_7convert10TryFromValpINtNtCs7L5q00ejtpZ_4core6result6ResultppEE12try_from_valB7_
FNF:2
FNH:0
DA:12,0
DA:13,0
DA:14,0
DA:15,0
DA:16,0
DA:17,0
DA:20,0
DA:21,0
DA:23,0
DA:35,0
DA:36,0
DA:37,0
DA:38,0
DA:39,0
DA:40,0
DA:43,0
BRF:0
BRH:0
LF:16
LH:0
end_of_record
SF:/src/rs-soroban-env/soroban-env-common/src/storage_type.rs
FN:11,_RNvXs4_NtCsdmZoVYnqinT_18soroban_env_common12storage_typeNtB5_11StorageTypeNtNtCs7L5q00ejtpZ_4core5clone5Clone5cloneCs7fXtI9ZzZ9j_18soroban_synth_wasm
FN:11,_RNvXs1_NtCsdmZoVYnqinT_18soroban_env_common12storage_typeNtB5_11StorageTypeNtNtCs7L5q00ejtpZ_4core3cmp9PartialEq2eqB7_
FN:11,_RNvXs4_NtCsdmZoVYnqinT_18soroban_env_common12storage_typeNtB5_11StorageTypeNtNtCs7L5q00ejtpZ_4core5clone5Clone5cloneB7_
FN:11,_RNvXs_NtCsdmZoVYnqinT_18soroban_env_common12storage_typeNtB4_11StorageTypeNtNtCs7L5q00ejtpZ_4core3fmt5Debug3fmt
FN:11,_RNvXNvNtCsdmZoVYnqinT_18soroban_env_common12storage_type39__IMPL_NUM_FromPrimitive_FOR_StorageTypeNtB4_11StorageTypeNtNtCs7RJofmW81pD_10num_traits4cast13FromPrimitive8from_u64B6_
FN:11,_RNvXNvNtCsdmZoVYnqinT_18soroban_env_common12storage_type39__IMPL_NUM_FromPrimitive_FOR_StorageTypeNtB4_11StorageTypeNtNtCs7RJofmW81pD_10num_traits4cast13FromPrimitive8from_i64B6_
FN:21,_RNvXNtCsdmZoVYnqinT_18soroban_env_common12storage_typeNtNtNtCs47RmZobMba4_11stellar_xdr4curr9generated22ContractDataDurabilityINtNtCs7L5q00ejtpZ_4core7convert7TryFromNtB2_11StorageTypeE8try_from
FNDA:20,_RNvXs4_NtCsdmZoVYnqinT_18soroban_env_common12storage_typeNtB5_11StorageTypeNtNtCs7L5q00ejtpZ_4core5clone5Clone5cloneCs7fXtI9ZzZ9j_18soroban_synth_wasm
FNDA:0,_RNvXs1_NtCsdmZoVYnqinT_18soroban_env_common12storage_typeNtB5_11StorageTypeNtNtCs7L5q00ejtpZ_4core3cmp9PartialEq2eqB7_
FNDA:0,_RNvXs4_NtCsdmZoVYnqinT_18soroban_env_common12storage_typeNtB5_11StorageTypeNtNtCs7L5q00ejtpZ_4core5clone5Clone5cloneB7_
FNDA:307,_RNvXs_NtCsdmZoVYnqinT_18soroban_env_common12storage_typeNtB4_11StorageTypeNtNtCs7L5q00ejtpZ_4core3fmt5Debug3fmt
FNDA:0,_RNvXNvNtCsdmZoVYnqinT_18soroban_env_common12storage_type39__IMPL_NUM_FromPrimitive_FOR_StorageTypeNtB4_11StorageTypeNtNtCs7RJofmW81pD_10num_traits4cast13FromPrimitive8from_u64B6_
FNDA:68,_RNvXNvNtCsdmZoVYnqinT_18soroban_env_common12storage_type39__IMPL_NUM_FromPrimitive_FOR_StorageTypeNtB4_11StorageTypeNtNtCs7RJofmW81pD_10num_traits4cast13FromPrimitive8from_i64B6_
FNDA:178,_RNvXNtCsdmZoVYnqinT_18soroban_env_common12storage_typeNtNtNtCs47RmZobMba4_11stellar_xdr4curr9generated22ContractDataDurabilityINtNtCs7L5q00ejtpZ_4core7convert7TryFromNtB2_11StorageTypeE8try_from
FNF:5
FNH:4
DA:11,307
DA:21,178
DA:22,178
DA:23,123
DA:24,55
DA:25,0
DA:26,0
DA:27,0
DA:28,0
DA:30,178
BRF:0
BRH:0
LF:13
LH:8
end_of_record
SF:/src/rs-soroban-env/soroban-env-common/src/string.rs
FN:41,_RNvXs0_NtCsdmZoVYnqinT_18soroban_env_common6stringNtB5_12StringObjectINtNtB7_7convert10TryFromValNtNtCs8j26R3SUG40_16soroban_env_host4host4HostReE12try_from_valB1B_
FN:50,_RNvXs1_NtCsdmZoVYnqinT_18soroban_env_common6stringNtNtB7_3val3ValINtNtB7_7convert10TryFromValNtNtCs8j26R3SUG40_16soroban_env_host4host4HostReE12try_from_valB1x_
FN:59,_RNvXININtCsdmZoVYnqinT_18soroban_env_common6strings2_0pENtB5_12StringObjectINtNtB7_7convert10TryFromValpNtNtCsjllP7bAX7YC_5alloc6string6StringE12try_from_valB7_
FN:50,_RNvXININtCsdmZoVYnqinT_18soroban_env_common6strings1_0pENtNtB7_3val3ValINtNtB7_7convert10TryFromValpReE12try_from_valB7_
FN:41,_RNvXININtCsdmZoVYnqinT_18soroban_env_common6strings0_0pENtB5_12StringObjectINtNtB7_7convert10TryFromValpReE12try_from_valB7_
FN:68,_RNvXININtCsdmZoVYnqinT_18soroban_env_common6strings3_0pENtNtB7_3val3ValINtNtB7_7convert10TryFromValpNtNtCsjllP7bAX7YC_5alloc6string6StringE12try_from_valB7_
FN:21,_RNCNvXININtCsdmZoVYnqinT_18soroban_env_common6string0pENtNtCsjllP7bAX7YC_5alloc6string6StringINtNtB9_7convert10TryFromValpNtB7_12StringObjectE12try_from_val0B9_
FN:15,_RNvXININtCsdmZoVYnqinT_18soroban_env_common6string0pENtNtCsjllP7bAX7YC_5alloc6string6StringINtNtB7_7convert10TryFromValpNtB5_12StringObjectE12try_from_valB7_
FN:32,_RNvXININtCsdmZoVYnqinT_18soroban_env_common6strings_0pENtNtCsjllP7bAX7YC_5alloc6string6StringINtNtB7_7convert10TryFromValpNtNtB7_3val3ValE12try_from_valB7_
FNDA:6,_RNvXs0_NtCsdmZoVYnqinT_18soroban_env_common6stringNtB5_12StringObjectINtNtB7_7convert10TryFromValNtNtCs8j26R3SUG40_16soroban_env_host4host4HostReE12try_from_valB1B_
FNDA:6,_RNvXs1_NtCsdmZoVYnqinT_18soroban_env_common6stringNtNtB7_3val3ValINtNtB7_7convert10TryFromValNtNtCs8j26R3SUG40_16soroban_env_host4host4HostReE12try_from_valB1x_
FNDA:0,_RNvXININtCsdmZoVYnqinT_18soroban_env_common6strings2_0pENtB5_12StringObjectINtNtB7_7convert10TryFromValpNtNtCsjllP7bAX7YC_5alloc6string6StringE12try_from_valB7_
FNDA:0,_RNvXININtCsdmZoVYnqinT_18soroban_env_common6strings1_0pENtNtB7_3val3ValINtNtB7_7convert10TryFromValpReE12try_from_valB7_
FNDA:0,_RNvXININtCsdmZoVYnqinT_18soroban_env_common6strings0_0pENtB5_12StringObjectINtNtB7_7convert10TryFromValpReE12try_from_valB7_
FNDA:0,_RNvXININtCsdmZoVYnqinT_18soroban_env_common6strings3_0pENtNtB7_3val3ValINtNtB7_7convert10TryFromValpNtNtCsjllP7bAX7YC_5alloc6string6StringE12try_from_valB7_
FNDA:0,_RNCNvXININtCsdmZoVYnqinT_18soroban_env_common6string0pENtNtCsjllP7bAX7YC_5alloc6string6StringINtNtB9_7convert10TryFromValpNtB7_12StringObjectE12try_from_val0B9_
FNDA:0,_RNvXININtCsdmZoVYnqinT_18soroban_env_common6string0pENtNtCsjllP7bAX7YC_5alloc6string6StringINtNtB7_7convert10TryFromValpNtB5_12StringObjectE12try_from_valB7_
FNDA:0,_RNvXININtCsdmZoVYnqinT_18soroban_env_common6strings_0pENtNtCsjllP7bAX7YC_5alloc6string6StringINtNtB7_7convert10TryFromValpNtNtB7_3val3ValE12try_from_valB7_
FNF:7
FNH:2
DA:15,0
DA:16,0
DA:17,0
DA:18,0
DA:19,0
DA:20,0
DA:21,0
DA:22,0
DA:23,0
DA:24,0
DA:32,0
DA:33,0
DA:34,0
DA:35,0
DA:41,6
DA:42,6
DA:43,6
DA:44,6
DA:50,6
DA:51,6
DA:52,6
DA:59,0
DA:60,0
DA:61,0
DA:68,0
DA:69,0
DA:70,0
BRF:0
BRH:0
LF:29
LH:7
end_of_record
SF:/src/rs-soroban-env/soroban-env-common/src/symbol.rs
FN:122,_RNvXs1_NtCsdmZoVYnqinT_18soroban_env_common6symbolNtB5_6SymbolINtNtB7_7convert10TryFromValNtNtCs8j26R3SUG40_16soroban_env_host4host4HostRShE12try_from_valB1u_
FN:553,_RNvXsx_NtCsdmZoVYnqinT_18soroban_env_common6symbolNtNtNtCs47RmZobMba4_11stellar_xdr4curr9generated8ScSymbolINtNtB7_7convert10TryFromValNtNtCs8j26R3SUG40_16soroban_env_host4host4HostNtB5_6SymbolE12try_from_valB2d_
FN:354,_RNvXsg_NtCsdmZoVYnqinT_18soroban_env_common6symbolNtB5_9SymbolStrINtNtB7_7convert10TryFromValNtNtCs8j26R3SUG40_16soroban_env_host4host4HostNtB5_6SymbolE12try_from_valB1x_
FN:134,_RNvXs2_NtCsdmZoVYnqinT_18soroban_env_common6symbolNtNtCs8j26R3SUG40_16soroban_env_host4host4HostINtNtB7_7compare7CompareNtB5_6SymbolE7compareBQ_
FN:514,_RNvXst_NtCsdmZoVYnqinT_18soroban_env_common6symbolNtB5_6SymbolINtNtB7_7convert10TryFromValNtNtCs8j26R3SUG40_16soroban_env_host4host4HostRNtNtNtCs47RmZobMba4_11stellar_xdr4curr9generated8ScSymbolE12try_from_valB1u_
FN:110,_RNvXs0_NtCsdmZoVYnqinT_18soroban_env_common6symbolNtB5_6SymbolINtNtB7_7convert10TryFromValNtNtCs8j26R3SUG40_16soroban_env_host4host4HostReE12try_from_valB1u_
FN:506,_RNvXss_NtCsdmZoVYnqinT_18soroban_env_common6symbolNtB5_6SymbolINtNtB7_7convert10TryFromValNtNtCs8j26R3SUG40_16soroban_env_host4host4HostNtNtNtCs47RmZobMba4_11stellar_xdr4curr9generated8ScSymbolE12try_from_valB1u_
FN:299,_RNvXs1C_NtCsdmZoVYnqinT_18soroban_env_common6symbolNtB6_9SymbolStrNtNtCs7L5q00ejtpZ_4core3cmp3Ord3cmpB8_
FN:390,_RNvXsj_NtCsdmZoVYnqinT_18soroban_env_common6symbolNtB5_11SymbolSmallNtNtCsjllP7bAX7YC_5alloc6string8ToString9to_string
FN:405,_RNvXsl_NtCsdmZoVYnqinT_18soroban_env_common6symbolNtB5_11SymbolSmallNtNtNtNtCs7L5q00ejtpZ_4core4iter6traits7collect12IntoIterator9into_iter
FN:345,_RNvXsf_NtCsdmZoVYnqinT_18soroban_env_common6symbolNtB5_9SymbolStrINtNtCs7L5q00ejtpZ_4core7convert4FromNtB5_11SymbolSmallE4from
FN:485,_RNvXININtCsdmZoVYnqinT_18soroban_env_common6symbolsq_0pENtB5_6SymbolINtNtB7_7convert10TryFromValpNtNtNtCs47RmZobMba4_11stellar_xdr4curr9generated5ScValE12try_from_valB7_
FN:514,_RNvXININtCsdmZoVYnqinT_18soroban_env_common6symbolst_0pENtB5_6SymbolINtNtB7_7convert10TryFromValpRNtNtNtCs47RmZobMba4_11stellar_xdr4curr9generated8ScSymbolE12try_from_valB7_
FN:522,_RNvXsu_NtCsdmZoVYnqinT_18soroban_env_common6symbolNtNtNtCs47RmZobMba4_11stellar_xdr4curr9generated5ScValINtNtCs7L5q00ejtpZ_4core7convert7TryFromNtB5_11SymbolSmallE8try_from
FN:506,_RNvXININtCsdmZoVYnqinT_18soroban_env_common6symbolss_0pENtB5_6SymbolINtNtB7_7convert10TryFromValpNtNtNtCs47RmZobMba4_11stellar_xdr4curr9generated8ScSymbolE12try_from_valB7_
FN:303,_RNvMsa_NtCsdmZoVYnqinT_18soroban_env_common6symbolNtB5_9SymbolStr8is_empty
FN:213,_RNvXININtCsdmZoVYnqinT_18soroban_env_common6symbols7_0KpENtB5_11SymbolSmallINtNtCs7L5q00ejtpZ_4core7convert7TryFromINtNtNtCs47RmZobMba4_11stellar_xdr4curr9generated7StringMKpEE8try_fromB7_
FN:134,_RNvXININtCsdmZoVYnqinT_18soroban_env_common6symbols2_0pEpINtNtB7_7compare7CompareNtB5_6SymbolE7compareB7_
FN:494,_RNvXININtCsdmZoVYnqinT_18soroban_env_common6symbolsr_0pENtB5_6SymbolINtNtB7_7convert10TryFromValpRNtNtNtCs47RmZobMba4_11stellar_xdr4curr9generated5ScValE12try_from_valB7_
FN:413,_RNvXs1F_NtCsdmZoVYnqinT_18soroban_env_common6symbolNtB6_15SymbolSmallIterNtNtCs7L5q00ejtpZ_4core5clone5Clone5cloneB8_
FN:270,_RNvMs9_NtCsdmZoVYnqinT_18soroban_env_common6symbolNtB5_11SymbolSmall8get_body
FN:465,_RNvXso_NtCsdmZoVYnqinT_18soroban_env_common6symbolNtB5_11SymbolSmallINtNtCs7L5q00ejtpZ_4core7convert7TryFromNtNtNtCs47RmZobMba4_11stellar_xdr4curr9generated5ScValE8try_from
FN:378,_RNvXsh_NtCsdmZoVYnqinT_18soroban_env_common6symbolNtNtCsjllP7bAX7YC_5alloc6string6StringINtNtCs7L5q00ejtpZ_4core7convert4FromNtB5_11SymbolSmallE4from
FN:439,_RINvXsn_NtCsdmZoVYnqinT_18soroban_env_common6symbolNtB6_11SymbolSmallINtNtNtNtCs7L5q00ejtpZ_4core4iter6traits7collect12FromIteratorcE9from_iterpEB8_
FN:73,_RNvXNtCsdmZoVYnqinT_18soroban_env_common6symbolNtB2_11SymbolErrorNtNtCs7L5q00ejtpZ_4core3fmt7Display3fmt
FN:524,_RNCNvXsu_NtCsdmZoVYnqinT_18soroban_env_common6symbolNtNtNtCs47RmZobMba4_11stellar_xdr4curr9generated5ScValINtNtCs7L5q00ejtpZ_4core7convert7TryFromNtB7_11SymbolSmallE8try_from0B9_
FN:228,_RNvMs9_NtCsdmZoVYnqinT_18soroban_env_common6symbolNtB5_11SymbolSmall13validate_char
FN:339,_RNvXse_NtCsdmZoVYnqinT_18soroban_env_common6symbolNtB5_9SymbolStrINtNtCs7L5q00ejtpZ_4core7convert4FromRNtB5_11SymbolSmallE4from
FN:265,_RNvMs9_NtCsdmZoVYnqinT_18soroban_env_common6symbolNtB5_11SymbolSmall12try_from_str
FN:187,_RNvMs4_NtCsdmZoVYnqinT_18soroban_env_common6symbolNtB5_6Symbol14from_small_str
FN:110,_RNvXININtCsdmZoVYnqinT_18soroban_env_common6symbols0_0pENtB5_6SymbolINtNtB7_7convert10TryFromValpReE12try_from_valB7_
FN:419,_RNvXsm_NtCsdmZoVYnqinT_18soroban_env_common6symbolNtB5_15SymbolSmallIterNtNtNtNtCs7L5q00ejtpZ_4core4iter6traits8iterator8Iterator4next
FN:299,_RNvXs1y_NtCsdmZoVYnqinT_18soroban_env_common6symbolNtB6_9SymbolStrNtNtCs7L5q00ejtpZ_4core3cmp9PartialEq2eqB8_
FN:318,_RNvXsb_NtCsdmZoVYnqinT_18soroban_env_common6symbolNtB5_9SymbolStrNtNtCs7L5q00ejtpZ_4core3fmt5Debug3fmt
FN:122,_RNvXININtCsdmZoVYnqinT_18soroban_env_common6symbols1_0pENtB5_6SymbolINtNtB7_7convert10TryFromValpRShE12try_from_valB7_
FN:87,_RNvXs_NtCsdmZoVYnqinT_18soroban_env_common6symbolNtNtB6_3val15ConversionErrorINtNtCs7L5q00ejtpZ_4core7convert4FromNtB4_11SymbolErrorE4from
FN:306,_RNvMsa_NtCsdmZoVYnqinT_18soroban_env_common6symbolNtB5_9SymbolStr3len
FN:332,_RNvXsd_NtCsdmZoVYnqinT_18soroban_env_common6symbolNtB5_9SymbolStrINtNtCs7L5q00ejtpZ_4core7convert5AsRefeE6as_ref
FN:221,_RNvXs8_NtCsdmZoVYnqinT_18soroban_env_common6symbolNtB5_11SymbolSmallINtNtCs7L5q00ejtpZ_4core7convert7TryFromRINtNtNtCs47RmZobMba4_11stellar_xdr4curr9generated7StringMKm20_EE8try_fromB7_
FN:299,_RNvXs1w_NtCsdmZoVYnqinT_18soroban_env_common6symbolNtB6_9SymbolStrNtNtCs7L5q00ejtpZ_4core5clone5Clone5cloneB8_
FN:276,_RNvMs9_NtCsdmZoVYnqinT_18soroban_env_common6symbolNtB5_11SymbolSmall8from_str
FN:193,_RNvXs5_NtCsdmZoVYnqinT_18soroban_env_common6symbolNtB5_11SymbolSmallNtNtCs7L5q00ejtpZ_4core3cmp3Ord3cmp
FN:246,_RNvMs9_NtCsdmZoVYnqinT_18soroban_env_common6symbolNtB5_11SymbolSmall14try_from_bytes
FN:553,_RNvXININtCsdmZoVYnqinT_18soroban_env_common6symbolsx_0pENtNtNtCs47RmZobMba4_11stellar_xdr4curr9generated8ScSymbolINtNtB7_7convert10TryFromValpNtB5_6SymbolE12try_from_valB7_
FN:285,_RNvMs9_NtCsdmZoVYnqinT_18soroban_env_common6symbolNtB5_11SymbolSmall6to_str
FN:60,_RNvXs1u_NtCsdmZoVYnqinT_18soroban_env_common6symbolNtB6_11SymbolErrorNtNtCs7L5q00ejtpZ_4core3fmt5Debug3fmt
FN:537,_RNvXsv_NtCsdmZoVYnqinT_18soroban_env_common6symbolNtNtNtCs47RmZobMba4_11stellar_xdr4curr9generated5ScValINtNtCs7L5q00ejtpZ_4core7convert7TryFromRNtB5_11SymbolSmallE8try_from
FN:170,_RNvMs4_NtCsdmZoVYnqinT_18soroban_env_common6symbolNtB5_6Symbol15from_small_body
FN:384,_RNvXsi_NtCsdmZoVYnqinT_18soroban_env_common6symbolNtNtCsjllP7bAX7YC_5alloc6string6StringINtNtCs7L5q00ejtpZ_4core7convert4FromNtB5_9SymbolStrE4from
FN:299,_RNvXs1B_NtCsdmZoVYnqinT_18soroban_env_common6symbolNtB6_9SymbolStrNtNtCs7L5q00ejtpZ_4core3cmp10PartialOrd11partial_cmpB8_
FN:299,_RINvXs1D_NtCsdmZoVYnqinT_18soroban_env_common6symbolNtB7_9SymbolStrNtNtCs7L5q00ejtpZ_4core4hash4Hash4hashpEB9_
FN:545,_RNvXININtCsdmZoVYnqinT_18soroban_env_common6symbolsw_0pENtNtNtCs47RmZobMba4_11stellar_xdr4curr9generated5ScValINtNtB7_7convert10TryFromValpNtB5_6SymbolE12try_from_valB7_
FN:235,_RNvMs9_NtCsdmZoVYnqinT_18soroban_env_common6symbolNtB5_11SymbolSmall11encode_char
FN:156,_RNvMs3_NtCsdmZoVYnqinT_18soroban_env_common6symbolNtB5_11SymbolSmall13try_from_body
FN:178,_RNvMs4_NtCsdmZoVYnqinT_18soroban_env_common6symbolNtB5_6Symbol18try_from_small_str
FN:201,_RNvXs6_NtCsdmZoVYnqinT_18soroban_env_common6symbolNtB5_11SymbolSmallINtNtCs7L5q00ejtpZ_4core7convert7TryFromRShE8try_from
FN:299,_RNvXs1E_NtCsdmZoVYnqinT_18soroban_env_common6symbolNtB6_9SymbolStrNtNtCs7L5q00ejtpZ_4core7default7Default7defaultB8_
FN:473,_RNvXsp_NtCsdmZoVYnqinT_18soroban_env_common6symbolNtB5_11SymbolSmallINtNtCs7L5q00ejtpZ_4core7convert7TryFromRNtNtNtCs47RmZobMba4_11stellar_xdr4curr9generated5ScValE8try_from
FN:396,_RNvXsk_NtCsdmZoVYnqinT_18soroban_env_common6symbolNtB5_9SymbolStrNtNtCsjllP7bAX7YC_5alloc6string8ToString9to_string
FN:354,_RNvXININtCsdmZoVYnqinT_18soroban_env_common6symbolsg_0pENtB5_9SymbolStrINtNtB7_7convert10TryFromValpNtB5_6SymbolE12try_from_valB7_
FN:325,_RNvXsc_NtCsdmZoVYnqinT_18soroban_env_common6symbolNtB5_9SymbolStrINtNtCs7L5q00ejtpZ_4core7convert5AsRefShE6as_ref
FNDA:2156,_RNvXs1_NtCsdmZoVYnqinT_18soroban_env_common6symbolNtB5_6SymbolINtNtB7_7convert10TryFromValNtNtCs8j26R3SUG40_16soroban_env_host4host4HostRShE12try_from_valB1u_
FNDA:0,_RNvXsx_NtCsdmZoVYnqinT_18soroban_env_common6symbolNtNtNtCs47RmZobMba4_11stellar_xdr4curr9generated8ScSymbolINtNtB7_7convert10TryFromValNtNtCs8j26R3SUG40_16soroban_env_host4host4HostNtB5_6SymbolE12try_from_valB2d_
FNDA:4320,_RNvXsg_NtCsdmZoVYnqinT_18soroban_env_common6symbolNtB5_9SymbolStrINtNtB7_7convert10TryFromValNtNtCs8j26R3SUG40_16soroban_env_host4host4HostNtB5_6SymbolE12try_from_valB1x_
FNDA:0,_RNvXs2_NtCsdmZoVYnqinT_18soroban_env_common6symbolNtNtCs8j26R3SUG40_16soroban_env_host4host4HostINtNtB7_7compare7CompareNtB5_6SymbolE7compareBQ_
FNDA:2156,_RNvXst_NtCsdmZoVYnqinT_18soroban_env_common6symbolNtB5_6SymbolINtNtB7_7convert10TryFromValNtNtCs8j26R3SUG40_16soroban_env_host4host4HostRNtNtNtCs47RmZobMba4_11stellar_xdr4curr9generated8ScSymbolE12try_from_valB1u_
FNDA:2156,_RNvXs0_NtCsdmZoVYnqinT_18soroban_env_common6symbolNtB5_6SymbolINtNtB7_7convert10TryFromValNtNtCs8j26R3SUG40_16soroban_env_host4host4HostReE12try_from_valB1u_
FNDA:2156,_RNvXss_NtCsdmZoVYnqinT_18soroban_env_common6symbolNtB5_6SymbolINtNtB7_7convert10TryFromValNtNtCs8j26R3SUG40_16soroban_env_host4host4HostNtNtNtCs47RmZobMba4_11stellar_xdr4curr9generated8ScSymbolE12try_from_valB1u_
FNDA:0,_RNvXs1C_NtCsdmZoVYnqinT_18soroban_env_common6symbolNtB6_9SymbolStrNtNtCs7L5q00ejtpZ_4core3cmp3Ord3cmpB8_
FNDA:0,_RNvXsj_NtCsdmZoVYnqinT_18soroban_env_common6symbolNtB5_11SymbolSmallNtNtCsjllP7bAX7YC_5alloc6string8ToString9to_string
FNDA:4978,_RNvXsl_NtCsdmZoVYnqinT_18soroban_env_common6symbolNtB5_11SymbolSmallNtNtNtNtCs7L5q00ejtpZ_4core4iter6traits7collect12IntoIterator9into_iter
FNDA:4890,_RNvXsf_NtCsdmZoVYnqinT_18soroban_env_common6symbolNtB5_9SymbolStrINtNtCs7L5q00ejtpZ_4core7convert4FromNtB5_11SymbolSmallE4from
FNDA:0,_RNvXININtCsdmZoVYnqinT_18soroban_env_common6symbolsq_0pENtB5_6SymbolINtNtB7_7convert10TryFromValpNtNtNtCs47RmZobMba4_11stellar_xdr4curr9generated5ScValE12try_from_valB7_
FNDA:0,_RNvXININtCsdmZoVYnqinT_18soroban_env_common6symbolst_0pENtB5_6SymbolINtNtB7_7convert10TryFromValpRNtNtNtCs47RmZobMba4_11stellar_xdr4curr9generated8ScSymbolE12try_from_valB7_
FNDA:0,_RNvXsu_NtCsdmZoVYnqinT_18soroban_env_common6symbolNtNtNtCs47RmZobMba4_11stellar_xdr4curr9generated5ScValINtNtCs7L5q00ejtpZ_4core7convert7TryFromNtB5_11SymbolSmallE8try_from
FNDA:0,_RNvXININtCsdmZoVYnqinT_18soroban_env_common6symbolss_0pENtB5_6SymbolINtNtB7_7convert10TryFromValpNtNtNtCs47RmZobMba4_11stellar_xdr4curr9generated8ScSymbolE12try_from_valB7_
FNDA:0,_RNvMsa_NtCsdmZoVYnqinT_18soroban_env_common6symbolNtB5_9SymbolStr8is_empty
FNDA:0,_RNvXININtCsdmZoVYnqinT_18soroban_env_common6symbols7_0KpENtB5_11SymbolSmallINtNtCs7L5q00ejtpZ_4core7convert7TryFromINtNtNtCs47RmZobMba4_11stellar_xdr4curr9generated7StringMKpEE8try_fromB7_
FNDA:0,_RNvXININtCsdmZoVYnqinT_18soroban_env_common6symbols2_0pEpINtNtB7_7compare7CompareNtB5_6SymbolE7compareB7_
FNDA:0,_RNvXININtCsdmZoVYnqinT_18soroban_env_common6symbolsr_0pENtB5_6SymbolINtNtB7_7convert10TryFromValpRNtNtNtCs47RmZobMba4_11stellar_xdr4curr9generated5ScValE12try_from_valB7_
FNDA:0,_RNvXs1F_NtCsdmZoVYnqinT_18soroban_env_common6symbolNtB6_15SymbolSmallIterNtNtCs7L5q00ejtpZ_4core5clone5Clone5cloneB8_
FNDA:0,_RNvMs9_NtCsdmZoVYnqinT_18soroban_env_common6symbolNtB5_11SymbolSmall8get_body
FNDA:0,_RNvXso_NtCsdmZoVYnqinT_18soroban_env_common6symbolNtB5_11SymbolSmallINtNtCs7L5q00ejtpZ_4core7convert7TryFromNtNtNtCs47RmZobMba4_11stellar_xdr4curr9generated5ScValE8try_from
FNDA:0,_RNvXsh_NtCsdmZoVYnqinT_18soroban_env_common6symbolNtNtCsjllP7bAX7YC_5alloc6string6StringINtNtCs7L5q00ejtpZ_4core7convert4FromNtB5_11SymbolSmallE4from
FNDA:0,_RINvXsn_NtCsdmZoVYnqinT_18soroban_env_common6symbolNtB6_11SymbolSmallINtNtNtNtCs7L5q00ejtpZ_4core4iter6traits7collect12FromIteratorcE9from_iterpEB8_
FNDA:0,_RNvXNtCsdmZoVYnqinT_18soroban_env_common6symbolNtB2_11SymbolErrorNtNtCs7L5q00ejtpZ_4core3fmt7Display3fmt
FNDA:0,_RNCNvXsu_NtCsdmZoVYnqinT_18soroban_env_common6symbolNtNtNtCs47RmZobMba4_11stellar_xdr4curr9generated5ScValINtNtCs7L5q00ejtpZ_4core7convert7TryFromNtB7_11SymbolSmallE8try_from0B9_
FNDA:0,_RNvMs9_NtCsdmZoVYnqinT_18soroban_env_common6symbolNtB5_11SymbolSmall13validate_char
FNDA:4890,_RNvXse_NtCsdmZoVYnqinT_18soroban_env_common6symbolNtB5_9SymbolStrINtNtCs7L5q00ejtpZ_4core7convert4FromRNtB5_11SymbolSmallE4from
FNDA:5470,_RNvMs9_NtCsdmZoVYnqinT_18soroban_env_common6symbolNtB5_11SymbolSmall12try_from_str
FNDA:0,_RNvMs4_NtCsdmZoVYnqinT_18soroban_env_common6symbolNtB5_6Symbol14from_small_str
FNDA:0,_RNvXININtCsdmZoVYnqinT_18soroban_env_common6symbols0_0pENtB5_6SymbolINtNtB7_7convert10TryFromValpReE12try_from_valB7_
FNDA:22768,_RNvXsm_NtCsdmZoVYnqinT_18soroban_env_common6symbolNtB5_15SymbolSmallIterNtNtNtNtCs7L5q00ejtpZ_4core4iter6traits8iterator8Iterator4next
FNDA:0,_RNvXs1y_NtCsdmZoVYnqinT_18soroban_env_common6symbolNtB6_9SymbolStrNtNtCs7L5q00ejtpZ_4core3cmp9PartialEq2eqB8_
FNDA:0,_RNvXsb_NtCsdmZoVYnqinT_18soroban_env_common6symbolNtB5_9SymbolStrNtNtCs7L5q00ejtpZ_4core3fmt5Debug3fmt
FNDA:0,_RNvXININtCsdmZoVYnqinT_18soroban_env_common6symbols1_0pENtB5_6SymbolINtNtB7_7convert10TryFromValpRShE12try_from_valB7_
FNDA:0,_RNvXs_NtCsdmZoVYnqinT_18soroban_env_common6symbolNtNtB6_3val15ConversionErrorINtNtCs7L5q00ejtpZ_4core7convert4FromNtB4_11SymbolErrorE4from
FNDA:4890,_RNvMsa_NtCsdmZoVYnqinT_18soroban_env_common6symbolNtB5_9SymbolStr3len
FNDA:4360,_RNvXsd_NtCsdmZoVYnqinT_18soroban_env_common6symbolNtB5_9SymbolStrINtNtCs7L5q00ejtpZ_4core7convert5AsRefeE6as_ref
FNDA:0,_RNvXs8_NtCsdmZoVYnqinT_18soroban_env_common6symbolNtB5_11SymbolSmallINtNtCs7L5q00ejtpZ_4core7convert7TryFromRINtNtNtCs47RmZobMba4_11stellar_xdr4curr9generated7StringMKm20_EE8try_fromB7_
FNDA:0,_RNvXs1w_NtCsdmZoVYnqinT_18soroban_env_common6symbolNtB6_9SymbolStrNtNtCs7L5q00ejtpZ_4core5clone5Clone5cloneB8_
FNDA:0,_RNvMs9_NtCsdmZoVYnqinT_18soroban_env_common6symbolNtB5_11SymbolSmall8from_str
FNDA:0,_RNvXs5_NtCsdmZoVYnqinT_18soroban_env_common6symbolNtB5_11SymbolSmallNtNtCs7L5q00ejtpZ_4core3cmp3Ord3cmp
FNDA:5584,_RNvMs9_NtCsdmZoVYnqinT_18soroban_env_common6symbolNtB5_11SymbolSmall14try_from_bytes
FNDA:0,_RNvXININtCsdmZoVYnqinT_18soroban_env_common6symbolsx_0pENtNtNtCs47RmZobMba4_11stellar_xdr4curr9generated8ScSymbolINtNtB7_7convert10TryFromValpNtB5_6SymbolE12try_from_valB7_
FNDA:4890,_RNvMs9_NtCsdmZoVYnqinT_18soroban_env_common6symbolNtB5_11SymbolSmall6to_str
FNDA:0,_RNvXs1u_NtCsdmZoVYnqinT_18soroban_env_common6symbolNtB6_11SymbolErrorNtNtCs7L5q00ejtpZ_4core3fmt5Debug3fmt
FNDA:0,_RNvXsv_NtCsdmZoVYnqinT_18soroban_env_common6symbolNtNtNtCs47RmZobMba4_11stellar_xdr4curr9generated5ScValINtNtCs7L5q00ejtpZ_4core7convert7TryFromRNtB5_11SymbolSmallE8try_from
FNDA:0,_RNvMs4_NtCsdmZoVYnqinT_18soroban_env_common6symbolNtB5_6Symbol15from_small_body
FNDA:0,_RNvXsi_NtCsdmZoVYnqinT_18soroban_env_common6symbolNtNtCsjllP7bAX7YC_5alloc6string6StringINtNtCs7L5q00ejtpZ_4core7convert4FromNtB5_9SymbolStrE4from
FNDA:0,_RNvXs1B_NtCsdmZoVYnqinT_18soroban_env_common6symbolNtB6_9SymbolStrNtNtCs7L5q00ejtpZ_4core3cmp10PartialOrd11partial_cmpB8_
FNDA:0,_RINvXs1D_NtCsdmZoVYnqinT_18soroban_env_common6symbolNtB7_9SymbolStrNtNtCs7L5q00ejtpZ_4core4hash4Hash4hashpEB9_
FNDA:0,_RNvXININtCsdmZoVYnqinT_18soroban_env_common6symbolsw_0pENtNtNtCs47RmZobMba4_11stellar_xdr4curr9generated5ScValINtNtB7_7convert10TryFromValpNtB5_6SymbolE12try_from_valB7_
FNDA:22005,_RNvMs9_NtCsdmZoVYnqinT_18soroban_env_common6symbolNtB5_11SymbolSmall11encode_char
FNDA:204,_RNvMs3_NtCsdmZoVYnqinT_18soroban_env_common6symbolNtB5_11SymbolSmall13try_from_body
FNDA:0,_RNvMs4_NtCsdmZoVYnqinT_18soroban_env_common6symbolNtB5_6Symbol18try_from_small_str
FNDA:114,_RNvXs6_NtCsdmZoVYnqinT_18soroban_env_common6symbolNtB5_11SymbolSmallINtNtCs7L5q00ejtpZ_4core7convert7TryFromRShE8try_from
FNDA:0,_RNvXs1E_NtCsdmZoVYnqinT_18soroban_env_common6symbolNtB6_9SymbolStrNtNtCs7L5q00ejtpZ_4core7default7Default7defaultB8_
FNDA:0,_RNvXsp_NtCsdmZoVYnqinT_18soroban_env_common6symbolNtB5_11SymbolSmallINtNtCs7L5q00ejtpZ_4core7convert7TryFromRNtNtNtCs47RmZobMba4_11stellar_xdr4curr9generated5ScValE8try_from
FNDA:2164,_RNvXsk_NtCsdmZoVYnqinT_18soroban_env_common6symbolNtB5_9SymbolStrNtNtCsjllP7bAX7YC_5alloc6string8ToString9to_string
FNDA:0,_RNvXININtCsdmZoVYnqinT_18soroban_env_common6symbolsg_0pENtB5_9SymbolStrINtNtB7_7convert10TryFromValpNtB5_6SymbolE12try_from_valB7_
FNDA:4890,_RNvXsc_NtCsdmZoVYnqinT_18soroban_env_common6symbolNtB5_9SymbolStrINtNtCs7L5q00ejtpZ_4core7convert5AsRefShE6as_ref
FNF:54
FNH:19
DA:60,0
DA:73,0
DA:74,0
DA:75,0
DA:76,0
DA:77,0
DA:78,0
DA:79,0
DA:80,0
DA:81,0
DA:83,0
DA:87,0
DA:88,0
DA:89,0
DA:110,2156
DA:111,2156
DA:113,0
DA:114,0
DA:116,2156
DA:122,2156
DA:123,2156
DA:124,2156
DA:125,2156
DA:126,2156
DA:127,2156
DA:128,2156
DA:129,2156
DA:134,0
DA:135,0
DA:136,0
DA:137,0
DA:139,0
DA:140,0
DA:141,0
DA:142,0
DA:144,0
DA:145,0
DA:146,0
DA:149,0
DA:151,0
DA:156,204
DA:157,204
DA:158,204
DA:159,204
DA:160,204
DA:161,0
DA:163,204
DA:165,204
DA:170,0
DA:171,0
DA:172,0
DA:173,0
DA:174,0
DA:175,0
DA:176,0
DA:178,0
DA:179,0
DA:180,0
DA:181,0
DA:183,0
DA:187,0
DA:188,0
DA:189,0
DA:193,0
DA:194,0
DA:195,0
DA:201,114
DA:202,114
DA:203,114
DA:213,0
DA:214,0
DA:215,0
DA:221,0
DA:222,0
DA:223,0
DA:228,0
DA:229,0
DA:230,0
DA:231,0
DA:233,0
DA:235,22005
DA:236,22005
DA:237,7
DA:238,21998
DA:239,21910
DA:240,21836
DA:241,0
DA:243,22005
DA:244,22005
DA:246,5584
DA:247,5584
DA:248,5584
DA:249,27589
DA:250,22005
DA:251,22005
DA:252,0
DA:253,22005
DA:254,22005
DA:255,22005
DA:256,22005
DA:257,22005
DA:258,0
DA:260,22005
DA:262,5584
DA:263,5584
DA:265,5470
DA:266,5470
DA:267,5470
DA:270,0
DA:271,0
DA:272,0
DA:276,0
DA:277,0
DA:278,0
DA:279,0
DA:280,0
DA:281,0
DA:283,0
DA:285,4890
DA:286,4890
DA:287,4890
DA:288,17420
DA:289,17420
DA:291,4890
DA:292,4890
DA:299,0
DA:303,0
DA:304,0
DA:305,0
DA:306,4890
DA:307,4890
DA:308,22310
DA:309,22310
DA:310,4890
DA:311,17420
DA:313,0
DA:314,4890
DA:318,0
DA:319,0
DA:320,0
DA:321,0
DA:325,4890
DA:326,4890
DA:327,4890
DA:328,4890
DA:332,4360
DA:333,4360
DA:334,4360
DA:335,4360
DA:339,4890
DA:340,4890
DA:341,4890
DA:345,4890
DA:346,4890
DA:347,4890
DA:354,4320
DA:355,4320
DA:357,0
DA:358,0
DA:359,0
DA:360,0
DA:361,0
DA:362,0
DA:363,0
DA:365,0
DA:366,0
DA:367,0
DA:368,0
DA:371,4320
DA:378,0
DA:379,0
DA:380,0
DA:384,0
DA:385,0
DA:386,0
DA:390,0
DA:391,0
DA:392,0
DA:396,2164
DA:397,2164
DA:398,2164
DA:399,2164
DA:405,4978
DA:406,4978
DA:407,4978
DA:413,0
DA:419,22768
DA:420,53700
DA:421,48722
DA:422,16
DA:423,17774
DA:424,17688
DA:425,17608
DA:426,30932
DA:428,48722
DA:429,48722
DA:430,17790
DA:431,30932
DA:433,4978
DA:434,22768
DA:439,0
DA:440,0
DA:441,0
DA:442,0
DA:443,0
DA:444,0
DA:445,0
DA:446,0
DA:447,0
DA:448,0
DA:449,0
DA:450,0
DA:451,0
DA:453,0
DA:455,0
DA:456,0
DA:465,0
DA:466,0
DA:467,0
DA:473,0
DA:474,0
DA:476,0
DA:478,0
DA:485,0
DA:486,0
DA:487,0
DA:494,0
DA:495,0
DA:497,0
DA:499,0
DA:506,2156
DA:507,2156
DA:508,2156
DA:514,2156
DA:515,2156
DA:516,2156
DA:522,0
DA:523,0
DA:524,0
DA:525,0
DA:526,0
DA:527,0
DA:528,0
DA:529,0
DA:530,0
DA:531,0
DA:537,0
DA:538,0
DA:539,0
DA:545,0
DA:546,0
DA:547,0
DA:553,0
DA:554,0
DA:555,0
DA:556,0
BRF:0
BRH:0
LF:263
LH:104
end_of_record
SF:/src/rs-soroban-env/soroban-env-common/src/tuple.rs
FN:27,_RNvXs1_NtCsdmZoVYnqinT_18soroban_env_common5tupleNtNtB7_3val3ValINtNtB7_7convert10TryFromValNtNtCs8j26R3SUG40_16soroban_env_host4host4HostTNtNtB7_6symbol6SymbolEE12try_from_valB1w_
FN:27,_RNvXs5_NtCsdmZoVYnqinT_18soroban_env_common5tupleNtNtB7_3val3ValINtNtB7_7convert10TryFromValNtNtCs8j26R3SUG40_16soroban_env_host4host4HostTNtNtB7_6symbol6SymbolBL_EE12try_from_valB1w_
FN:60,_RNvXININtCsdmZoVYnqinT_18soroban_env_common5tuplesr_0ppppppppKpEANtNtB7_3val3ValpINtNtB7_7convert10TryFromValpTpppppppEE12try_from_valB7_
FN:60,_RNvXININtCsdmZoVYnqinT_18soroban_env_common5tuplesn_0pppppppKpEANtNtB7_3val3ValpINtNtB7_7convert10TryFromValpTppppppEE12try_from_valB7_
FN:14,_RNvXININtCsdmZoVYnqinT_18soroban_env_common5tuplesM_0ppppppppppppppETpppppppppppppEINtNtB7_7convert10TryFromValpNtNtB7_3val3ValE12try_from_valB7_
FN:27,_RNvXININtCsdmZoVYnqinT_18soroban_env_common5tuples5_0pppENtNtB7_3val3ValINtNtB7_7convert10TryFromValpTppEE12try_from_valB7_
FN:27,_RNvXININtCsdmZoVYnqinT_18soroban_env_common5tuplesx_0ppppppppppENtNtB7_3val3ValINtNtB7_7convert10TryFromValpTpppppppppEE12try_from_valB7_
FN:60,_RNvXININtCsdmZoVYnqinT_18soroban_env_common5tuples7_0pppKpEANtNtB7_3val3ValpINtNtB7_7convert10TryFromValpTppEE12try_from_valB7_
FN:60,_RNvXININtCsdmZoVYnqinT_18soroban_env_common5tuplesD_0pppppppppppKpEANtNtB7_3val3ValpINtNtB7_7convert10TryFromValpTppppppppppEE12try_from_valB7_
FN:60,_RNvXININtCsdmZoVYnqinT_18soroban_env_common5tuplesP_0ppppppppppppppKpEANtNtB7_3val3ValpINtNtB7_7convert10TryFromValpTpppppppppppppEE12try_from_valB7_
FN:48,_RNvXININtCsdmZoVYnqinT_18soroban_env_common5tuplesy_0ppppppppppKpETpppppppppEINtNtB7_7convert10TryFromValpANtNtB7_3val3ValpE12try_from_valB7_
FN:27,_RNvXININtCsdmZoVYnqinT_18soroban_env_common5tuples9_0ppppENtNtB7_3val3ValINtNtB7_7convert10TryFromValpTpppEE12try_from_valB7_
FN:14,_RNvXININtCsdmZoVYnqinT_18soroban_env_common5tupleso_0ppppppppETpppppppEINtNtB7_7convert10TryFromValpNtNtB7_3val3ValE12try_from_valB7_
FN:100,_RNvXININtCsdmZoVYnqinT_18soroban_env_common5tuples_0pEANtNtB7_3val3Valj0_INtNtB7_7convert10TryFromValpuE12try_from_valB7_
FN:48,_RNvXININtCsdmZoVYnqinT_18soroban_env_common5tuplesa_0ppppKpETpppEINtNtB7_7convert10TryFromValpANtNtB7_3val3ValpE12try_from_valB7_
FN:48,_RNvXININtCsdmZoVYnqinT_18soroban_env_common5tuples2_0ppKpETpEINtNtB7_7convert10TryFromValpANtNtB7_3val3ValpE12try_from_valB7_
FN:27,_RNvXININtCsdmZoVYnqinT_18soroban_env_common5tuplesN_0ppppppppppppppENtNtB7_3val3ValINtNtB7_7convert10TryFromValpTpppppppppppppEE12try_from_valB7_
FN:27,_RNvXININtCsdmZoVYnqinT_18soroban_env_common5tuplesB_0pppppppppppENtNtB7_3val3ValINtNtB7_7convert10TryFromValpTppppppppppEE12try_from_valB7_
FN:60,_RNvXININtCsdmZoVYnqinT_18soroban_env_common5tuplesv_0pppppppppKpEANtNtB7_3val3ValpINtNtB7_7convert10TryFromValpTppppppppEE12try_from_valB7_
FN:27,_RNvXININtCsdmZoVYnqinT_18soroban_env_common5tuples1_0ppENtNtB7_3val3ValINtNtB7_7convert10TryFromValpTpEE12try_from_valB7_
FN:14,_RNvXININtCsdmZoVYnqinT_18soroban_env_common5tuples0_0ppETpEINtNtB7_7convert10TryFromValpNtNtB7_3val3ValE12try_from_valB7_
FN:60,_RNvXININtCsdmZoVYnqinT_18soroban_env_common5tuplesz_0ppppppppppKpEANtNtB7_3val3ValpINtNtB7_7convert10TryFromValpTpppppppppEE12try_from_valB7_
FN:14,_RNvXININtCsdmZoVYnqinT_18soroban_env_common5tuplesA_0pppppppppppETppppppppppEINtNtB7_7convert10TryFromValpNtNtB7_3val3ValE12try_from_valB7_
FN:60,_RNvXININtCsdmZoVYnqinT_18soroban_env_common5tuplesb_0ppppKpEANtNtB7_3val3ValpINtNtB7_7convert10TryFromValpTpppEE12try_from_valB7_
FN:14,_RNvXININtCsdmZoVYnqinT_18soroban_env_common5tuples8_0ppppETpppEINtNtB7_7convert10TryFromValpNtNtB7_3val3ValE12try_from_valB7_
FN:60,_RNvXININtCsdmZoVYnqinT_18soroban_env_common5tuplesf_0pppppKpEANtNtB7_3val3ValpINtNtB7_7convert10TryFromValpTppppEE12try_from_valB7_
FN:27,_RNvXININtCsdmZoVYnqinT_18soroban_env_common5tuplest_0pppppppppENtNtB7_3val3ValINtNtB7_7convert10TryFromValpTppppppppEE12try_from_valB7_
FN:48,_RNvXININtCsdmZoVYnqinT_18soroban_env_common5tuplesu_0pppppppppKpETppppppppEINtNtB7_7convert10TryFromValpANtNtB7_3val3ValpE12try_from_valB7_
FN:60,_RNvXININtCsdmZoVYnqinT_18soroban_env_common5tuplesj_0ppppppKpEANtNtB7_3val3ValpINtNtB7_7convert10TryFromValpTpppppEE12try_from_valB7_
FN:92,_RNvXININtCsdmZoVYnqinT_18soroban_env_common5tuple0pEuINtNtB7_7convert10TryFromValpANtNtB7_3val3Valj0_E12try_from_valB7_
FN:48,_RNvXININtCsdmZoVYnqinT_18soroban_env_common5tuplesG_0ppppppppppppKpETpppppppppppEINtNtB7_7convert10TryFromValpANtNtB7_3val3ValpE12try_from_valB7_
FN:48,_RNvXININtCsdmZoVYnqinT_18soroban_env_common5tuplesq_0ppppppppKpETpppppppEINtNtB7_7convert10TryFromValpANtNtB7_3val3ValpE12try_from_valB7_
FN:27,_RNvXININtCsdmZoVYnqinT_18soroban_env_common5tuplesl_0pppppppENtNtB7_3val3ValINtNtB7_7convert10TryFromValpTppppppEE12try_from_valB7_
FN:14,_RNvXININtCsdmZoVYnqinT_18soroban_env_common5tuplesg_0ppppppETpppppEINtNtB7_7convert10TryFromValpNtNtB7_3val3ValE12try_from_valB7_
FN:60,_RNvXININtCsdmZoVYnqinT_18soroban_env_common5tuples3_0ppKpEANtNtB7_3val3ValpINtNtB7_7convert10TryFromValpTpEE12try_from_valB7_
FN:27,_RNvXININtCsdmZoVYnqinT_18soroban_env_common5tuplesp_0ppppppppENtNtB7_3val3ValINtNtB7_7convert10TryFromValpTpppppppEE12try_from_valB7_
FN:48,_RNvXININtCsdmZoVYnqinT_18soroban_env_common5tuples6_0pppKpETppEINtNtB7_7convert10TryFromValpANtNtB7_3val3ValpE12try_from_valB7_
FN:48,_RNvXININtCsdmZoVYnqinT_18soroban_env_common5tuplesC_0pppppppppppKpETppppppppppEINtNtB7_7convert10TryFromValpANtNtB7_3val3ValpE12try_from_valB7_
FN:14,_RNvXININtCsdmZoVYnqinT_18soroban_env_common5tupless_0pppppppppETppppppppEINtNtB7_7convert10TryFromValpNtNtB7_3val3ValE12try_from_valB7_
FN:48,_RNvXININtCsdmZoVYnqinT_18soroban_env_common5tuplesK_0pppppppppppppKpETppppppppppppEINtNtB7_7convert10TryFromValpANtNtB7_3val3ValpE12try_from_valB7_
FN:60,_RNvXININtCsdmZoVYnqinT_18soroban_env_common5tuplesH_0ppppppppppppKpEANtNtB7_3val3ValpINtNtB7_7convert10TryFromValpTpppppppppppEE12try_from_valB7_
FN:60,_RNvXININtCsdmZoVYnqinT_18soroban_env_common5tuplesL_0pppppppppppppKpEANtNtB7_3val3ValpINtNtB7_7convert10TryFromValpTppppppppppppEE12try_from_valB7_
FN:48,_RNvXININtCsdmZoVYnqinT_18soroban_env_common5tuplesi_0ppppppKpETpppppEINtNtB7_7convert10TryFromValpANtNtB7_3val3ValpE12try_from_valB7_
FN:27,_RNvXININtCsdmZoVYnqinT_18soroban_env_common5tuplesJ_0pppppppppppppENtNtB7_3val3ValINtNtB7_7convert10TryFromValpTppppppppppppEE12try_from_valB7_
FN:14,_RNvXININtCsdmZoVYnqinT_18soroban_env_common5tuplesE_0ppppppppppppETpppppppppppEINtNtB7_7convert10TryFromValpNtNtB7_3val3ValE12try_from_valB7_
FN:48,_RNvXININtCsdmZoVYnqinT_18soroban_env_common5tuplesO_0ppppppppppppppKpETpppppppppppppEINtNtB7_7convert10TryFromValpANtNtB7_3val3ValpE12try_from_valB7_
FN:48,_RNvXININtCsdmZoVYnqinT_18soroban_env_common5tuplese_0pppppKpETppppEINtNtB7_7convert10TryFromValpANtNtB7_3val3ValpE12try_from_valB7_
FN:48,_RNvXININtCsdmZoVYnqinT_18soroban_env_common5tuplesm_0pppppppKpETppppppEINtNtB7_7convert10TryFromValpANtNtB7_3val3ValpE12try_from_valB7_
FN:14,_RNvXININtCsdmZoVYnqinT_18soroban_env_common5tuplesk_0pppppppETppppppEINtNtB7_7convert10TryFromValpNtNtB7_3val3ValE12try_from_valB7_
FN:14,_RNvXININtCsdmZoVYnqinT_18soroban_env_common5tuples4_0pppETppEINtNtB7_7convert10TryFromValpNtNtB7_3val3ValE12try_from_valB7_
FN:27,_RNvXININtCsdmZoVYnqinT_18soroban_env_common5tuplesd_0pppppENtNtB7_3val3ValINtNtB7_7convert10TryFromValpTppppEE12try_from_valB7_
FN:27,_RNvXININtCsdmZoVYnqinT_18soroban_env_common5tuplesh_0ppppppENtNtB7_3val3ValINtNtB7_7convert10TryFromValpTpppppEE12try_from_valB7_
FN:27,_RNvXININtCsdmZoVYnqinT_18soroban_env_common5tuplesF_0ppppppppppppENtNtB7_3val3ValINtNtB7_7convert10TryFromValpTpppppppppppEE12try_from_valB7_
FN:14,_RNvXININtCsdmZoVYnqinT_18soroban_env_common5tuplesc_0pppppETppppEINtNtB7_7convert10TryFromValpNtNtB7_3val3ValE12try_from_valB7_
FN:14,_RNvXININtCsdmZoVYnqinT_18soroban_env_common5tuplesI_0pppppppppppppETppppppppppppEINtNtB7_7convert10TryFromValpNtNtB7_3val3ValE12try_from_valB7_
FN:14,_RNvXININtCsdmZoVYnqinT_18soroban_env_common5tuplesw_0ppppppppppETpppppppppEINtNtB7_7convert10TryFromValpNtNtB7_3val3ValE12try_from_valB7_
FNDA:0,_RNvXs1_NtCsdmZoVYnqinT_18soroban_env_common5tupleNtNtB7_3val3ValINtNtB7_7convert10TryFromValNtNtCs8j26R3SUG40_16soroban_env_host4host4HostTNtNtB7_6symbol6SymbolEE12try_from_valB1w_
FNDA:0,_RNvXs5_NtCsdmZoVYnqinT_18soroban_env_common5tupleNtNtB7_3val3ValINtNtB7_7convert10TryFromValNtNtCs8j26R3SUG40_16soroban_env_host4host4HostTNtNtB7_6symbol6SymbolBL_EE12try_from_valB1w_
FNDA:0,_RNvXININtCsdmZoVYnqinT_18soroban_env_common5tuplesr_0ppppppppKpEANtNtB7_3val3ValpINtNtB7_7convert10TryFromValpTpppppppEE12try_from_valB7_
FNDA:0,_RNvXININtCsdmZoVYnqinT_18soroban_env_common5tuplesn_0pppppppKpEANtNtB7_3val3ValpINtNtB7_7convert10TryFromValpTppppppEE12try_from_valB7_
FNDA:0,_RNvXININtCsdmZoVYnqinT_18soroban_env_common5tuplesM_0ppppppppppppppETpppppppppppppEINtNtB7_7convert10TryFromValpNtNtB7_3val3ValE12try_from_valB7_
FNDA:0,_RNvXININtCsdmZoVYnqinT_18soroban_env_common5tuples5_0pppENtNtB7_3val3ValINtNtB7_7convert10TryFromValpTppEE12try_from_valB7_
FNDA:0,_RNvXININtCsdmZoVYnqinT_18soroban_env_common5tuplesx_0ppppppppppENtNtB7_3val3ValINtNtB7_7convert10TryFromValpTpppppppppEE12try_from_valB7_
FNDA:0,_RNvXININtCsdmZoVYnqinT_18soroban_env_common5tuples7_0pppKpEANtNtB7_3val3ValpINtNtB7_7convert10TryFromValpTppEE12try_from_valB7_
FNDA:0,_RNvXININtCsdmZoVYnqinT_18soroban_env_common5tuplesD_0pppppppppppKpEANtNtB7_3val3ValpINtNtB7_7convert10TryFromValpTppppppppppEE12try_from_valB7_
FNDA:0,_RNvXININtCsdmZoVYnqinT_18soroban_env_common5tuplesP_0ppppppppppppppKpEANtNtB7_3val3ValpINtNtB7_7convert10TryFromValpTpppppppppppppEE12try_from_valB7_
FNDA:0,_RNvXININtCsdmZoVYnqinT_18soroban_env_common5tuplesy_0ppppppppppKpETpppppppppEINtNtB7_7convert10TryFromValpANtNtB7_3val3ValpE12try_from_valB7_
FNDA:0,_RNvXININtCsdmZoVYnqinT_18soroban_env_common5tuples9_0ppppENtNtB7_3val3ValINtNtB7_7convert10TryFromValpTpppEE12try_from_valB7_
FNDA:0,_RNvXININtCsdmZoVYnqinT_18soroban_env_common5tupleso_0ppppppppETpppppppEINtNtB7_7convert10TryFromValpNtNtB7_3val3ValE12try_from_valB7_
FNDA:0,_RNvXININtCsdmZoVYnqinT_18soroban_env_common5tuples_0pEANtNtB7_3val3Valj0_INtNtB7_7convert10TryFromValpuE12try_from_valB7_
FNDA:0,_RNvXININtCsdmZoVYnqinT_18soroban_env_common5tuplesa_0ppppKpETpppEINtNtB7_7convert10TryFromValpANtNtB7_3val3ValpE12try_from_valB7_
FNDA:0,_RNvXININtCsdmZoVYnqinT_18soroban_env_common5tuples2_0ppKpETpEINtNtB7_7convert10TryFromValpANtNtB7_3val3ValpE12try_from_valB7_
FNDA:0,_RNvXININtCsdmZoVYnqinT_18soroban_env_common5tuplesN_0ppppppppppppppENtNtB7_3val3ValINtNtB7_7convert10TryFromValpTpppppppppppppEE12try_from_valB7_
FNDA:0,_RNvXININtCsdmZoVYnqinT_18soroban_env_common5tuplesB_0pppppppppppENtNtB7_3val3ValINtNtB7_7convert10TryFromValpTppppppppppEE12try_from_valB7_
FNDA:0,_RNvXININtCsdmZoVYnqinT_18soroban_env_common5tuplesv_0pppppppppKpEANtNtB7_3val3ValpINtNtB7_7convert10TryFromValpTppppppppEE12try_from_valB7_
FNDA:0,_RNvXININtCsdmZoVYnqinT_18soroban_env_common5tuples1_0ppENtNtB7_3val3ValINtNtB7_7convert10TryFromValpTpEE12try_from_valB7_
FNDA:0,_RNvXININtCsdmZoVYnqinT_18soroban_env_common5tuples0_0ppETpEINtNtB7_7convert10TryFromValpNtNtB7_3val3ValE12try_from_valB7_
FNDA:0,_RNvXININtCsdmZoVYnqinT_18soroban_env_common5tuplesz_0ppppppppppKpEANtNtB7_3val3ValpINtNtB7_7convert10TryFromValpTpppppppppEE12try_from_valB7_
FNDA:0,_RNvXININtCsdmZoVYnqinT_18soroban_env_common5tuplesA_0pppppppppppETppppppppppEINtNtB7_7convert10TryFromValpNtNtB7_3val3ValE12try_from_valB7_
FNDA:0,_RNvXININtCsdmZoVYnqinT_18soroban_env_common5tuplesb_0ppppKpEANtNtB7_3val3ValpINtNtB7_7convert10TryFromValpTpppEE12try_from_valB7_
FNDA:0,_RNvXININtCsdmZoVYnqinT_18soroban_env_common5tuples8_0ppppETpppEINtNtB7_7convert10TryFromValpNtNtB7_3val3ValE12try_from_valB7_
FNDA:0,_RNvXININtCsdmZoVYnqinT_18soroban_env_common5tuplesf_0pppppKpEANtNtB7_3val3ValpINtNtB7_7convert10TryFromValpTppppEE12try_from_valB7_
FNDA:0,_RNvXININtCsdmZoVYnqinT_18soroban_env_common5tuplest_0pppppppppENtNtB7_3val3ValINtNtB7_7convert10TryFromValpTppppppppEE12try_from_valB7_
FNDA:0,_RNvXININtCsdmZoVYnqinT_18soroban_env_common5tuplesu_0pppppppppKpETppppppppEINtNtB7_7convert10TryFromValpANtNtB7_3val3ValpE12try_from_valB7_
FNDA:0,_RNvXININtCsdmZoVYnqinT_18soroban_env_common5tuplesj_0ppppppKpEANtNtB7_3val3ValpINtNtB7_7convert10TryFromValpTpppppEE12try_from_valB7_
FNDA:0,_RNvXININtCsdmZoVYnqinT_18soroban_env_common5tuple0pEuINtNtB7_7convert10TryFromValpANtNtB7_3val3Valj0_E12try_from_valB7_
FNDA:0,_RNvXININtCsdmZoVYnqinT_18soroban_env_common5tuplesG_0ppppppppppppKpETpppppppppppEINtNtB7_7convert10TryFromValpANtNtB7_3val3ValpE12try_from_valB7_
FNDA:0,_RNvXININtCsdmZoVYnqinT_18soroban_env_common5tuplesq_0ppppppppKpETpppppppEINtNtB7_7convert10TryFromValpANtNtB7_3val3ValpE12try_from_valB7_
FNDA:0,_RNvXININtCsdmZoVYnqinT_18soroban_env_common5tuplesl_0pppppppENtNtB7_3val3ValINtNtB7_7convert10TryFromValpTppppppEE12try_from_valB7_
FNDA:0,_RNvXININtCsdmZoVYnqinT_18soroban_env_common5tuplesg_0ppppppETpppppEINtNtB7_7convert10TryFromValpNtNtB7_3val3ValE12try_from_valB7_
FNDA:0,_RNvXININtCsdmZoVYnqinT_18soroban_env_common5tuples3_0ppKpEANtNtB7_3val3ValpINtNtB7_7convert10TryFromValpTpEE12try_from_valB7_
FNDA:0,_RNvXININtCsdmZoVYnqinT_18soroban_env_common5tuplesp_0ppppppppENtNtB7_3val3ValINtNtB7_7convert10TryFromValpTpppppppEE12try_from_valB7_
FNDA:0,_RNvXININtCsdmZoVYnqinT_18soroban_env_common5tuples6_0pppKpETppEINtNtB7_7convert10TryFromValpANtNtB7_3val3ValpE12try_from_valB7_
FNDA:0,_RNvXININtCsdmZoVYnqinT_18soroban_env_common5tuplesC_0pppppppppppKpETppppppppppEINtNtB7_7convert10TryFromValpANtNtB7_3val3ValpE12try_from_valB7_
FNDA:0,_RNvXININtCsdmZoVYnqinT_18soroban_env_common5tupless_0pppppppppETppppppppEINtNtB7_7convert10TryFromValpNtNtB7_3val3ValE12try_from_valB7_
FNDA:0,_RNvXININtCsdmZoVYnqinT_18soroban_env_common5tuplesK_0pppppppppppppKpETppppppppppppEINtNtB7_7convert10TryFromValpANtNtB7_3val3ValpE12try_from_valB7_
FNDA:0,_RNvXININtCsdmZoVYnqinT_18soroban_env_common5tuplesH_0ppppppppppppKpEANtNtB7_3val3ValpINtNtB7_7convert10TryFromValpTpppppppppppEE12try_from_valB7_
FNDA:0,_RNvXININtCsdmZoVYnqinT_18soroban_env_common5tuplesL_0pppppppppppppKpEANtNtB7_3val3ValpINtNtB7_7convert10TryFromValpTppppppppppppEE12try_from_valB7_
FNDA:0,_RNvXININtCsdmZoVYnqinT_18soroban_env_common5tuplesi_0ppppppKpETpppppEINtNtB7_7convert10TryFromValpANtNtB7_3val3ValpE12try_from_valB7_
FNDA:0,_RNvXININtCsdmZoVYnqinT_18soroban_env_common5tuplesJ_0pppppppppppppENtNtB7_3val3ValINtNtB7_7convert10TryFromValpTppppppppppppEE12try_from_valB7_
FNDA:0,_RNvXININtCsdmZoVYnqinT_18soroban_env_common5tuplesE_0ppppppppppppETpppppppppppEINtNtB7_7convert10TryFromValpNtNtB7_3val3ValE12try_from_valB7_
FNDA:0,_RNvXININtCsdmZoVYnqinT_18soroban_env_common5tuplesO_0ppppppppppppppKpETpppppppppppppEINtNtB7_7convert10TryFromValpANtNtB7_3val3ValpE12try_from_valB7_
FNDA:0,_RNvXININtCsdmZoVYnqinT_18soroban_env_common5tuplese_0pppppKpETppppEINtNtB7_7convert10TryFromValpANtNtB7_3val3ValpE12try_from_valB7_
FNDA:0,_RNvXININtCsdmZoVYnqinT_18soroban_env_common5tuplesm_0pppppppKpETppppppEINtNtB7_7convert10TryFromValpANtNtB7_3val3ValpE12try_from_valB7_
FNDA:0,_RNvXININtCsdmZoVYnqinT_18soroban_env_common5tuplesk_0pppppppETppppppEINtNtB7_7convert10TryFromValpNtNtB7_3val3ValE12try_from_valB7_
FNDA:0,_RNvXININtCsdmZoVYnqinT_18soroban_env_common5tuples4_0pppETppEINtNtB7_7convert10TryFromValpNtNtB7_3val3ValE12try_from_valB7_
FNDA:0,_RNvXININtCsdmZoVYnqinT_18soroban_env_common5tuplesd_0pppppENtNtB7_3val3ValINtNtB7_7convert10TryFromValpTppppEE12try_from_valB7_
FNDA:0,_RNvXININtCsdmZoVYnqinT_18soroban_env_common5tuplesh_0ppppppENtNtB7_3val3ValINtNtB7_7convert10TryFromValpTpppppEE12try_from_valB7_
FNDA:0,_RNvXININtCsdmZoVYnqinT_18soroban_env_common5tuplesF_0ppppppppppppENtNtB7_3val3ValINtNtB7_7convert10TryFromValpTpppppppppppEE12try_from_valB7_
FNDA:0,_RNvXININtCsdmZoVYnqinT_18soroban_env_common5tuplesc_0pppppETppppEINtNtB7_7convert10TryFromValpNtNtB7_3val3ValE12try_from_valB7_
FNDA:0,_RNvXININtCsdmZoVYnqinT_18soroban_env_common5tuplesI_0pppppppppppppETppppppppppppEINtNtB7_7convert10TryFromValpNtNtB7_3val3ValE12try_from_valB7_
FNDA:0,_RNvXININtCsdmZoVYnqinT_18soroban_env_common5tuplesw_0ppppppppppETpppppppppEINtNtB7_7convert10TryFromValpNtNtB7_3val3ValE12try_from_valB7_
FNF:6
FNH:0
DA:14,0
DA:15,0
DA:16,0
DA:17,0
DA:18,0
DA:19,0
DA:27,0
DA:28,0
DA:29,0
DA:31,0
DA:32,0
DA:33,0
DA:48,0
DA:51,0
DA:60,0
DA:61,0
DA:62,0
DA:63,0
DA:64,0
DA:92,0
DA:93,0
DA:94,0
DA:100,0
DA:101,0
DA:102,0
BRF:0
BRH:0
LF:25
LH:0
end_of_record
SF:/src/rs-soroban-env/soroban-env-common/src/val.rs
FN:735,_RNvMss_NtCsdmZoVYnqinT_18soroban_env_common3valNtB5_3Val9has_major
FN:695,_RNvMss_NtCsdmZoVYnqinT_18soroban_env_common3valNtB5_3Val8get_body
FN:730,_RNvMss_NtCsdmZoVYnqinT_18soroban_env_common3valNtB5_3Val9has_minor
FN:745,_RNvMss_NtCsdmZoVYnqinT_18soroban_env_common3valNtB5_3Val9get_major
FN:740,_RNvMss_NtCsdmZoVYnqinT_18soroban_env_common3valNtB5_3Val9get_minor
FN:166,_RNvMNtCsdmZoVYnqinT_18soroban_env_common3valNtB2_3Tag9val_const
FN:161,_RNvMNtCsdmZoVYnqinT_18soroban_env_common3valNtB2_3Tag8val_mask
FN:669,_RNvMss_NtCsdmZoVYnqinT_18soroban_env_common3valNtB5_3Val11get_payload
FN:390,_RNvYNtNtCsdmZoVYnqinT_18soroban_env_common6object6ObjectNtNtB6_3val10ValConvert11try_convertCs8j26R3SUG40_16soroban_env_host
FN:248,_RNvXsG_NtCsdmZoVYnqinT_18soroban_env_common3valNtB5_3ValNtNtCs7L5q00ejtpZ_4core5clone5Clone5cloneCs8j26R3SUG40_16soroban_env_host
FN:684,_RNvMss_NtCsdmZoVYnqinT_18soroban_env_common3valNtB5_3Val10get_tag_u8
FN:539,_RNvXsm_NtCsdmZoVYnqinT_18soroban_env_common3valNtB5_3ValINtNtCs7L5q00ejtpZ_4core7convert4FrommE4from
FN:390,_RNvYNtNtCsdmZoVYnqinT_18soroban_env_common3num13DurationSmallNtNtB6_3val10ValConvert11try_convertCs8j26R3SUG40_16soroban_env_host
FN:390,_RNvYNtNtCsdmZoVYnqinT_18soroban_env_common3num9I64ObjectNtNtB6_3val10ValConvert11try_convertCs8j26R3SUG40_16soroban_env_host
FN:674,_RNvMss_NtCsdmZoVYnqinT_18soroban_env_common3valNtB5_3Val12from_payload
FN:390,_RNvYNtNtCsdmZoVYnqinT_18soroban_env_common3num7U256ValNtNtB6_3val10ValConvert11try_convertCs8j26R3SUG40_16soroban_env_host
FN:390,_RNvYNtNtCsdmZoVYnqinT_18soroban_env_common3num9U64ObjectNtNtB6_3val10ValConvert11try_convertCs8j26R3SUG40_16soroban_env_host
FN:176,_RNvMNtCsdmZoVYnqinT_18soroban_env_common3valNtB2_3Tag9is_object
FN:390,_RNvYNtNtCsdmZoVYnqinT_18soroban_env_common3num10U256ObjectNtNtB6_3val10ValConvert11try_convertCs8j26R3SUG40_16soroban_env_host
FN:390,_RNvYNtNtCsdmZoVYnqinT_18soroban_env_common3val9VecObjectNtB4_10ValConvert11try_convertCs8j26R3SUG40_16soroban_env_host
FN:390,_RNvYNtNtCsdmZoVYnqinT_18soroban_env_common3num10I128ObjectNtNtB6_3val10ValConvert11try_convertCs8j26R3SUG40_16soroban_env_host
FN:181,_RNvMNtCsdmZoVYnqinT_18soroban_env_common3valNtB2_3Tag7from_u8
FN:500,_RNvXsh_NtCsdmZoVYnqinT_18soroban_env_common3valmNtB5_10ValConvert18unchecked_from_val
FN:47,_RNvXsB_NtCsdmZoVYnqinT_18soroban_env_common3valNtB5_3TagNtNtCs7L5q00ejtpZ_4core3cmp10PartialOrd11partial_cmpCs8j26R3SUG40_16soroban_env_host
FN:390,_RNvYNtNtCsdmZoVYnqinT_18soroban_env_common3num10I256ObjectNtNtB6_3val10ValConvert11try_convertCs8j26R3SUG40_16soroban_env_host
FN:525,_RNvXsk_NtCsdmZoVYnqinT_18soroban_env_common3valNtB5_3ValINtNtCs7L5q00ejtpZ_4core7convert4FromuE4from
FN:390,_RNvYNtNtCsdmZoVYnqinT_18soroban_env_common3num8I64SmallNtNtB6_3val10ValConvert11try_convertCs8j26R3SUG40_16soroban_env_host
FN:390,_RNvYNtNtCsdmZoVYnqinT_18soroban_env_common3num9U256SmallNtNtB6_3val10ValConvert11try_convertCs8j26R3SUG40_16soroban_env_host
FN:47,_RNvXsC_NtCsdmZoVYnqinT_18soroban_env_common3valNtB5_3TagNtNtCs7L5q00ejtpZ_4core3cmp3Ord3cmpCs8j26R3SUG40_16soroban_env_host
FN:689,_RNvMss_NtCsdmZoVYnqinT_18soroban_env_common3valNtB5_3Val7get_tag
FN:723,_RNvMss_NtCsdmZoVYnqinT_18soroban_env_common3valNtB5_3Val24from_major_minor_and_tag
FN:705,_RNvMss_NtCsdmZoVYnqinT_18soroban_env_common3valNtB5_3Val15get_signed_body
FN:390,_RNvYNtNtCsdmZoVYnqinT_18soroban_env_common3num8U64SmallNtNtB6_3val10ValConvert11try_convertCs8j26R3SUG40_16soroban_env_host
FN:390,_RNvYNtNtCsdmZoVYnqinT_18soroban_env_common3num9I256SmallNtNtB6_3val10ValConvert11try_convertCs8j26R3SUG40_16soroban_env_host
FN:496,_RNvXsh_NtCsdmZoVYnqinT_18soroban_env_common3valmNtB5_10ValConvert11is_val_type
FN:390,_RNvYNtNtCsdmZoVYnqinT_18soroban_env_common3num9I128SmallNtNtB6_3val10ValConvert11try_convertCs8j26R3SUG40_16soroban_env_host
FN:470,_RNvXsf_NtCsdmZoVYnqinT_18soroban_env_common3valuNtB5_10ValConvert18unchecked_from_val
FN:390,_RNvYNtNtCsdmZoVYnqinT_18soroban_env_common5error5ErrorNtNtB6_3val10ValConvert11try_convertCs8j26R3SUG40_16soroban_env_host
FN:390,_RNvYNtNtCsdmZoVYnqinT_18soroban_env_common6symbol6SymbolNtNtB6_3val10ValConvert11try_convertCs8j26R3SUG40_16soroban_env_host
FN:390,_RNvYNtNtCsdmZoVYnqinT_18soroban_env_common3val13AddressObjectNtB4_10ValConvert11try_convertCs8j26R3SUG40_16soroban_env_host
FN:760,_RNvMss_NtCsdmZoVYnqinT_18soroban_env_common3valNtB5_3Val9from_bool
FN:466,_RNvXsf_NtCsdmZoVYnqinT_18soroban_env_common3valuNtB5_10ValConvert11is_val_type
FN:750,_RNvMss_NtCsdmZoVYnqinT_18soroban_env_common3valNtB5_3Val9is_object
FN:390,_RNvYNtNtCsdmZoVYnqinT_18soroban_env_common3num15TimepointObjectNtNtB6_3val10ValConvert11try_convertCs8j26R3SUG40_16soroban_env_host
FN:390,_RNvYmNtNtCsdmZoVYnqinT_18soroban_env_common3val10ValConvert11try_convertCs8j26R3SUG40_16soroban_env_host
FN:390,_RNvYNtNtCsdmZoVYnqinT_18soroban_env_common3num10U128ObjectNtNtB6_3val10ValConvert11try_convertCs8j26R3SUG40_16soroban_env_host
FN:295,_RNvXsX_NtCsdmZoVYnqinT_18soroban_env_common3valNtB5_4BoolNtNtCs7L5q00ejtpZ_4core5clone5Clone5cloneCs8j26R3SUG40_16soroban_env_host
FN:273,_RNvXs2_NtCsdmZoVYnqinT_18soroban_env_common3valNtB5_3ValINtNtB7_7convert10TryFromValNtNtCs8j26R3SUG40_16soroban_env_host4host4HostBJ_E12try_from_valB1o_
FN:518,_RNvXsj_NtCsdmZoVYnqinT_18soroban_env_common3valNtB5_3ValINtNtCs7L5q00ejtpZ_4core7convert4FrombE4from
FN:390,_RNvYNtNtCsdmZoVYnqinT_18soroban_env_common6symbol12SymbolObjectNtNtB6_3val10ValConvert11try_convertCs8j26R3SUG40_16soroban_env_host
FN:717,_RNvMss_NtCsdmZoVYnqinT_18soroban_env_common3valNtB5_3Val17from_body_and_tag
FN:390,_RNvYNtNtCsdmZoVYnqinT_18soroban_env_common3num14DurationObjectNtNtB6_3val10ValConvert11try_convertCs8j26R3SUG40_16soroban_env_host
FN:390,_RNvYNtNtCsdmZoVYnqinT_18soroban_env_common5bytes11BytesObjectNtNtB6_3val10ValConvert11try_convertCs8j26R3SUG40_16soroban_env_host
FN:755,_RNvMss_NtCsdmZoVYnqinT_18soroban_env_common3valNtB5_3Val9from_void
FN:171,_RNvMNtCsdmZoVYnqinT_18soroban_env_common3valNtB2_3Tag12u8_is_object
FN:390,_RNvYuNtNtCsdmZoVYnqinT_18soroban_env_common3val10ValConvert11try_convertCs8j26R3SUG40_16soroban_env_host
FN:390,_RNvYNtNtCsdmZoVYnqinT_18soroban_env_common6string12StringObjectNtNtB6_3val10ValConvert11try_convertCs8j26R3SUG40_16soroban_env_host
FN:710,_RNvMss_NtCsdmZoVYnqinT_18soroban_env_common3valNtB5_3Val7has_tag
FN:390,_RNvYNtNtCsdmZoVYnqinT_18soroban_env_common3num6U64ValNtNtB6_3val10ValConvert11try_convertCs8j26R3SUG40_16soroban_env_host
FN:390,_RNvYNtNtCsdmZoVYnqinT_18soroban_env_common3num7I256ValNtNtB6_3val10ValConvert11try_convertCs8j26R3SUG40_16soroban_env_host
FN:390,_RNvYNtNtCsdmZoVYnqinT_18soroban_env_common3num14TimepointSmallNtNtB6_3val10ValConvert11try_convertCs8j26R3SUG40_16soroban_env_host
FN:390,_RNvYNtNtCsdmZoVYnqinT_18soroban_env_common3num9U128SmallNtNtB6_3val10ValConvert11try_convertCs8j26R3SUG40_16soroban_env_host
FN:483,_RNvXsg_NtCsdmZoVYnqinT_18soroban_env_common3valbNtB5_10ValConvert11try_convert
FN:390,_RNvYNtNtCsdmZoVYnqinT_18soroban_env_common3val9MapObjectNtB4_10ValConvert11try_convertCs8j26R3SUG40_16soroban_env_host
FN:208,_RNvMNtCsdmZoVYnqinT_18soroban_env_common3valNtB2_3Tag14get_scval_type
FN:553,_RNvXso_NtCsdmZoVYnqinT_18soroban_env_common3valNtB5_3ValINtNtCs7L5q00ejtpZ_4core7convert4FromlE4from
FN:47,_RNvXsy_NtCsdmZoVYnqinT_18soroban_env_common3valNtB5_3TagNtNtCs7L5q00ejtpZ_4core3cmp9PartialEq2eqCs8j26R3SUG40_16soroban_env_host
FN:390,_RNvYNtNtCsdmZoVYnqinT_18soroban_env_common6symbol11SymbolSmallNtNtB6_3val10ValConvert11try_convertCs8j26R3SUG40_16soroban_env_host
FN:799,_RNvNvXsu_NtCsdmZoVYnqinT_18soroban_env_common3valNtB7_3ValNtNtCs7L5q00ejtpZ_4core3fmt5Debug3fmt7fmt_obj
FN:414,_RNvXsc_NtCsdmZoVYnqinT_18soroban_env_common3valNtB5_3ValNtB5_12WasmiMarshal22try_marshal_from_value
FN:390,_RNvYNtNtCsdmZoVYnqinT_18soroban_env_common3num9I64ObjectNtNtB6_3val10ValConvert11try_convertB6_
FN:273,_RNvXININtCsdmZoVYnqinT_18soroban_env_common3vals2_0pENtB5_3ValINtNtB7_7convert10TryFromValpBP_E12try_from_valB7_
FN:311,_RNvXs7_NtCsdmZoVYnqinT_18soroban_env_common3valNtB5_4BoolNtB5_10ValConvert11is_val_type
FN:390,_RNvYNtNtCsdmZoVYnqinT_18soroban_env_common3num14DurationObjectNtNtB6_3val10ValConvert11try_convertB6_
FN:390,_RNvYNtNtCsdmZoVYnqinT_18soroban_env_common3num10U256ObjectNtNtB6_3val10ValConvert11try_convertB6_
FN:282,_RNvXs3_NtCsdmZoVYnqinT_18soroban_env_common3valNtB5_4VoidINtNtCs7L5q00ejtpZ_4core7convert4FromuE4from
FN:260,_RNvXs0_NtCsdmZoVYnqinT_18soroban_env_common3valNtB5_3ValINtNtCs7L5q00ejtpZ_4core7convert5AsRefBJ_E6as_ref
FN:289,_RNvXININtCsdmZoVYnqinT_18soroban_env_common3vals4_0pEpINtNtB7_7compare7CompareNtB5_4VoidE7compareB7_
FN:295,_RNvXsX_NtCsdmZoVYnqinT_18soroban_env_common3valNtB5_4BoolNtNtCs7L5q00ejtpZ_4core5clone5Clone5cloneB7_
FN:363,_RNvXsb_NtCsdmZoVYnqinT_18soroban_env_common3valNtB5_15ConversionErrorINtNtCs7L5q00ejtpZ_4core7convert4FromNtNtB7_5error5ErrorE4from
FN:566,_RNvXsq_NtCsdmZoVYnqinT_18soroban_env_common3valNtB5_3ValINtNtCs7L5q00ejtpZ_4core7convert4FromNtNtNtCs47RmZobMba4_11stellar_xdr4curr9generated7ScErrorE4from
FN:252,_RNvXs_NtCsdmZoVYnqinT_18soroban_env_common3valNtB4_3ValNtNtCs7L5q00ejtpZ_4core7default7Default7default
FN:573,_RNvXsr_NtCsdmZoVYnqinT_18soroban_env_common3valNtB5_3ValINtNtCs7L5q00ejtpZ_4core7convert4FromRNtNtNtCs47RmZobMba4_11stellar_xdr4curr9generated7ScErrorE4from
FN:347,_RNvXs24_NtCsdmZoVYnqinT_18soroban_env_common3valNtB6_15ConversionErrorNtNtCs7L5q00ejtpZ_4core3fmt5Debug3fmt
FN:622,_RNCNvMss_NtCsdmZoVYnqinT_18soroban_env_common3valNtB7_3Val19can_represent_scvals_0B9_
FN:776,_RNvMss_NtCsdmZoVYnqinT_18soroban_env_common3valNtB5_3Val8is_false
FN:357,_RNvXsa_NtCsdmZoVYnqinT_18soroban_env_common3valNtB5_15ConversionErrorINtNtCs7L5q00ejtpZ_4core7convert4FromNtNtNtCs47RmZobMba4_11stellar_xdr4curr9generated5ErrorE4from
FN:585,_RNvMss_NtCsdmZoVYnqinT_18soroban_env_common3valNtB5_3Val24can_represent_scval_type
FN:700,_RNvMss_NtCsdmZoVYnqinT_18soroban_env_common3valNtB5_3Val8has_body
FN:305,_RNvXs6_NtCsdmZoVYnqinT_18soroban_env_common3valbINtNtCs7L5q00ejtpZ_4core7convert4FromNtB5_4BoolE4from
FN:390,_RNvYNtNtCsdmZoVYnqinT_18soroban_env_common3num8I64SmallNtNtB6_3val10ValConvert11try_convertB6_
FN:390,_RNvYNtNtCsdmZoVYnqinT_18soroban_env_common3num10I128ObjectNtNtB6_3val10ValConvert11try_convertB6_
FN:390,_RNvYNtNtCsdmZoVYnqinT_18soroban_env_common3num8U64SmallNtNtB6_3val10ValConvert11try_convertB6_
FN:47,_RNvXsy_NtCsdmZoVYnqinT_18soroban_env_common3valNtB5_3TagNtNtCs7L5q00ejtpZ_4core3cmp9PartialEq2eqB7_
FN:390,_RNvYNtNtCsdmZoVYnqinT_18soroban_env_common3num15TimepointObjectNtNtB6_3val10ValConvert11try_convertB6_
FN:390,_RNvYNtNtCsdmZoVYnqinT_18soroban_env_common3num10I256ObjectNtNtB6_3val10ValConvert11try_convertB6_
FN:426,_RNvXsc_NtCsdmZoVYnqinT_18soroban_env_common3valNtB5_3ValNtB5_12WasmiMarshal17marshal_from_self
FN:456,_RNvXse_NtCsdmZoVYnqinT_18soroban_env_common3valxNtB5_12WasmiMarshal17marshal_from_self
FN:300,_RNvXs5_NtCsdmZoVYnqinT_18soroban_env_common3valNtB5_4BoolINtNtCs7L5q00ejtpZ_4core7convert4FrombE4from
FN:613,_RNvMss_NtCsdmZoVYnqinT_18soroban_env_common3valNtB5_3Val19can_represent_scval
FN:679,_RNvMss_NtCsdmZoVYnqinT_18soroban_env_common3valNtB5_3Val10shallow_eq
FN:390,_RNvYNtNtCsdmZoVYnqinT_18soroban_env_common3num14TimepointSmallNtNtB6_3val10ValConvert11try_convertB6_
FN:390,_RNvYNtNtCsdmZoVYnqinT_18soroban_env_common6symbol12SymbolObjectNtNtB6_3val10ValConvert11try_convertB6_
FN:798,_RNvXsu_NtCsdmZoVYnqinT_18soroban_env_common3valNtB5_3ValNtNtCs7L5q00ejtpZ_4core3fmt5Debug3fmt
FN:631,_RNvMss_NtCsdmZoVYnqinT_18soroban_env_common3valNtB5_3Val7is_good
FN:390,_RNvYNtNtCsdmZoVYnqinT_18soroban_env_common3num9U128SmallNtNtB6_3val10ValConvert11try_convertB6_
FN:248,_RNvXsG_NtCsdmZoVYnqinT_18soroban_env_common3valNtB5_3ValNtNtCs7L5q00ejtpZ_4core5clone5Clone5cloneB7_
FN:390,_RNvYNtNtCsdmZoVYnqinT_18soroban_env_common3num9U256SmallNtNtB6_3val10ValConvert11try_convertB6_
FN:47,_RNvXsC_NtCsdmZoVYnqinT_18soroban_env_common3valNtB5_3TagNtNtCs7L5q00ejtpZ_4core3cmp3Ord3cmpB7_
FN:390,_RNvYNtNtCsdmZoVYnqinT_18soroban_env_common6symbol11SymbolSmallNtNtB6_3val10ValConvert11try_convertB6_
FN:390,_RNvYNtNtCsdmZoVYnqinT_18soroban_env_common3num9I256SmallNtNtB6_3val10ValConvert11try_convertB6_
FN:347,_RNvXs28_NtCsdmZoVYnqinT_18soroban_env_common3valNtB6_15ConversionErrorNtNtCs7L5q00ejtpZ_4core3cmp9PartialEq2eqB8_
FN:390,_RNvYNtNtCsdmZoVYnqinT_18soroban_env_common3num10U128ObjectNtNtB6_3val10ValConvert11try_convertB6_
FN:322,_RNvXININtCsdmZoVYnqinT_18soroban_env_common3vals8_0pEpINtNtB7_7compare7CompareNtB5_4BoolE7compareB7_
FN:434,_RNvXsd_NtCsdmZoVYnqinT_18soroban_env_common3valyNtB5_12WasmiMarshal22try_marshal_from_value
FN:47,_RNvXsB_NtCsdmZoVYnqinT_18soroban_env_common3valNtB5_3TagNtNtCs7L5q00ejtpZ_4core3cmp10PartialOrd11partial_cmpB7_
FN:449,_RNvXse_NtCsdmZoVYnqinT_18soroban_env_common3valxNtB5_12WasmiMarshal22try_marshal_from_value
FN:315,_RNvXs7_NtCsdmZoVYnqinT_18soroban_env_common3valNtB5_4BoolNtB5_10ValConvert18unchecked_from_val
FN:47,_RNvXsw_NtCsdmZoVYnqinT_18soroban_env_common3valNtB5_3TagNtNtCs7L5q00ejtpZ_4core5clone5Clone5cloneB7_
FN:266,_RNvXs1_NtCsdmZoVYnqinT_18soroban_env_common3valNtB5_3ValINtNtCs7L5q00ejtpZ_4core7convert5AsMutBJ_E6as_mut
FN:47,_RINvXsD_NtCsdmZoVYnqinT_18soroban_env_common3valNtB6_3TagNtNtCs7L5q00ejtpZ_4core4hash4Hash4hashpEB8_
FN:351,_RNvXs9_NtCsdmZoVYnqinT_18soroban_env_common3valNtB5_15ConversionErrorINtNtCs7L5q00ejtpZ_4core7convert4FromNtB18_10InfallibleE4from
FN:441,_RNvXsd_NtCsdmZoVYnqinT_18soroban_env_common3valyNtB5_12WasmiMarshal17marshal_from_self
FN:390,_RNvYNtNtCsdmZoVYnqinT_18soroban_env_common3num13DurationSmallNtNtB6_3val10ValConvert11try_convertB6_
FN:47,_RNvXsE_NtCsdmZoVYnqinT_18soroban_env_common3valNtB5_3TagNtNtCs7L5q00ejtpZ_4core3fmt5Debug3fmt
FN:771,_RNvMss_NtCsdmZoVYnqinT_18soroban_env_common3valNtB5_3Val7is_true
FN:390,_RNvYNtNtCsdmZoVYnqinT_18soroban_env_common3num9U64ObjectNtNtB6_3val10ValConvert11try_convertB6_
FN:390,_RNvYNtNtCsdmZoVYnqinT_18soroban_env_common3num9I128SmallNtNtB6_3val10ValConvert11try_convertB6_
FN:617,_RNCNvMss_NtCsdmZoVYnqinT_18soroban_env_common3valNtB7_3Val19can_represent_scval0B9_
FNDA:460,_RNvMss_NtCsdmZoVYnqinT_18soroban_env_common3valNtB5_3Val9has_major
FNDA:129953,_RNvMss_NtCsdmZoVYnqinT_18soroban_env_common3valNtB5_3Val8get_body
FNDA:28318,_RNvMss_NtCsdmZoVYnqinT_18soroban_env_common3valNtB5_3Val9has_minor
FNDA:94134,_RNvMss_NtCsdmZoVYnqinT_18soroban_env_common3valNtB5_3Val9get_major
FNDA:29272,_RNvMss_NtCsdmZoVYnqinT_18soroban_env_common3valNtB5_3Val9get_minor
FNDA:0,_RNvMNtCsdmZoVYnqinT_18soroban_env_common3valNtB2_3Tag9val_const
FNDA:0,_RNvMNtCsdmZoVYnqinT_18soroban_env_common3valNtB2_3Tag8val_mask
FNDA:23339,_RNvMss_NtCsdmZoVYnqinT_18soroban_env_common3valNtB5_3Val11get_payload
FNDA:53945,_RNvYNtNtCsdmZoVYnqinT_18soroban_env_common6object6ObjectNtNtB6_3val10ValConvert11try_convertCs8j26R3SUG40_16soroban_env_host
FNDA:132250,_RNvXsG_NtCsdmZoVYnqinT_18soroban_env_common3valNtB5_3ValNtNtCs7L5q00ejtpZ_4core5clone5Clone5cloneCs8j26R3SUG40_16soroban_env_host
FNDA:176693,_RNvMss_NtCsdmZoVYnqinT_18soroban_env_common3valNtB5_3Val10get_tag_u8
FNDA:1432,_RNvXsm_NtCsdmZoVYnqinT_18soroban_env_common3valNtB5_3ValINtNtCs7L5q00ejtpZ_4core7convert4FrommE4from
FNDA:0,_RNvYNtNtCsdmZoVYnqinT_18soroban_env_common3num13DurationSmallNtNtB6_3val10ValConvert11try_convertCs8j26R3SUG40_16soroban_env_host
FNDA:8,_RNvYNtNtCsdmZoVYnqinT_18soroban_env_common3num9I64ObjectNtNtB6_3val10ValConvert11try_convertCs8j26R3SUG40_16soroban_env_host
FNDA:5354,_RNvMss_NtCsdmZoVYnqinT_18soroban_env_common3valNtB5_3Val12from_payload
FNDA:10,_RNvYNtNtCsdmZoVYnqinT_18soroban_env_common3num7U256ValNtNtB6_3val10ValConvert11try_convertCs8j26R3SUG40_16soroban_env_host
FNDA:26,_RNvYNtNtCsdmZoVYnqinT_18soroban_env_common3num9U64ObjectNtNtB6_3val10ValConvert11try_convertCs8j26R3SUG40_16soroban_env_host
FNDA:48450,_RNvMNtCsdmZoVYnqinT_18soroban_env_common3valNtB2_3Tag9is_object
FNDA:0,_RNvYNtNtCsdmZoVYnqinT_18soroban_env_common3num10U256ObjectNtNtB6_3val10ValConvert11try_convertCs8j26R3SUG40_16soroban_env_host
FNDA:702,_RNvYNtNtCsdmZoVYnqinT_18soroban_env_common3val9VecObjectNtB4_10ValConvert11try_convertCs8j26R3SUG40_16soroban_env_host
FNDA:0,_RNvYNtNtCsdmZoVYnqinT_18soroban_env_common3num10I128ObjectNtNtB6_3val10ValConvert11try_convertCs8j26R3SUG40_16soroban_env_host
FNDA:104242,_RNvMNtCsdmZoVYnqinT_18soroban_env_common3valNtB2_3Tag7from_u8
FNDA:0,_RNvXsh_NtCsdmZoVYnqinT_18soroban_env_common3valmNtB5_10ValConvert18unchecked_from_val
FNDA:154,_RNvXsB_NtCsdmZoVYnqinT_18soroban_env_common3valNtB5_3TagNtNtCs7L5q00ejtpZ_4core3cmp10PartialOrd11partial_cmpCs8j26R3SUG40_16soroban_env_host
FNDA:0,_RNvYNtNtCsdmZoVYnqinT_18soroban_env_common3num10I256ObjectNtNtB6_3val10ValConvert11try_convertCs8j26R3SUG40_16soroban_env_host
FNDA:176,_RNvXsk_NtCsdmZoVYnqinT_18soroban_env_common3valNtB5_3ValINtNtCs7L5q00ejtpZ_4core7convert4FromuE4from
FNDA:0,_RNvYNtNtCsdmZoVYnqinT_18soroban_env_common3num8I64SmallNtNtB6_3val10ValConvert11try_convertCs8j26R3SUG40_16soroban_env_host
FNDA:0,_RNvYNtNtCsdmZoVYnqinT_18soroban_env_common3num9U256SmallNtNtB6_3val10ValConvert11try_convertCs8j26R3SUG40_16soroban_env_host
FNDA:0,_RNvXsC_NtCsdmZoVYnqinT_18soroban_env_common3valNtB5_3TagNtNtCs7L5q00ejtpZ_4core3cmp3Ord3cmpCs8j26R3SUG40_16soroban_env_host
FNDA:104242,_RNvMss_NtCsdmZoVYnqinT_18soroban_env_common3valNtB5_3Val7get_tag
FNDA:50742,_RNvMss_NtCsdmZoVYnqinT_18soroban_env_common3valNtB5_3Val24from_major_minor_and_tag
FNDA:70,_RNvMss_NtCsdmZoVYnqinT_18soroban_env_common3valNtB5_3Val15get_signed_body
FNDA:0,_RNvYNtNtCsdmZoVYnqinT_18soroban_env_common3num8U64SmallNtNtB6_3val10ValConvert11try_convertCs8j26R3SUG40_16soroban_env_host
FNDA:4,_RNvYNtNtCsdmZoVYnqinT_18soroban_env_common3num9I256SmallNtNtB6_3val10ValConvert11try_convertCs8j26R3SUG40_16soroban_env_host
FNDA:0,_RNvXsh_NtCsdmZoVYnqinT_18soroban_env_common3valmNtB5_10ValConvert11is_val_type
FNDA:0,_RNvYNtNtCsdmZoVYnqinT_18soroban_env_common3num9I128SmallNtNtB6_3val10ValConvert11try_convertCs8j26R3SUG40_16soroban_env_host
FNDA:0,_RNvXsf_NtCsdmZoVYnqinT_18soroban_env_common3valuNtB5_10ValConvert18unchecked_from_val
FNDA:3818,_RNvYNtNtCsdmZoVYnqinT_18soroban_env_common5error5ErrorNtNtB6_3val10ValConvert11try_convertCs8j26R3SUG40_16soroban_env_host
FNDA:108,_RNvYNtNtCsdmZoVYnqinT_18soroban_env_common6symbol6SymbolNtNtB6_3val10ValConvert11try_convertCs8j26R3SUG40_16soroban_env_host
FNDA:676,_RNvYNtNtCsdmZoVYnqinT_18soroban_env_common3val13AddressObjectNtB4_10ValConvert11try_convertCs8j26R3SUG40_16soroban_env_host
FNDA:27,_RNvMss_NtCsdmZoVYnqinT_18soroban_env_common3valNtB5_3Val9from_bool
FNDA:0,_RNvXsf_NtCsdmZoVYnqinT_18soroban_env_common3valuNtB5_10ValConvert11is_val_type
FNDA:56271,_RNvMss_NtCsdmZoVYnqinT_18soroban_env_common3valNtB5_3Val9is_object
FNDA:14,_RNvYNtNtCsdmZoVYnqinT_18soroban_env_common3num15TimepointObjectNtNtB6_3val10ValConvert11try_convertCs8j26R3SUG40_16soroban_env_host
FNDA:0,_RNvYmNtNtCsdmZoVYnqinT_18soroban_env_common3val10ValConvert11try_convertCs8j26R3SUG40_16soroban_env_host
FNDA:0,_RNvYNtNtCsdmZoVYnqinT_18soroban_env_common3num10U128ObjectNtNtB6_3val10ValConvert11try_convertCs8j26R3SUG40_16soroban_env_host
FNDA:8,_RNvXsX_NtCsdmZoVYnqinT_18soroban_env_common3valNtB5_4BoolNtNtCs7L5q00ejtpZ_4core5clone5Clone5cloneCs8j26R3SUG40_16soroban_env_host
FNDA:0,_RNvXs2_NtCsdmZoVYnqinT_18soroban_env_common3valNtB5_3ValINtNtB7_7convert10TryFromValNtNtCs8j26R3SUG40_16soroban_env_host4host4HostBJ_E12try_from_valB1o_
FNDA:0,_RNvXsj_NtCsdmZoVYnqinT_18soroban_env_common3valNtB5_3ValINtNtCs7L5q00ejtpZ_4core7convert4FrombE4from
FNDA:12,_RNvYNtNtCsdmZoVYnqinT_18soroban_env_common6symbol12SymbolObjectNtNtB6_3val10ValConvert11try_convertCs8j26R3SUG40_16soroban_env_host
FNDA:56797,_RNvMss_NtCsdmZoVYnqinT_18soroban_env_common3valNtB5_3Val17from_body_and_tag
FNDA:4,_RNvYNtNtCsdmZoVYnqinT_18soroban_env_common3num14DurationObjectNtNtB6_3val10ValConvert11try_convertCs8j26R3SUG40_16soroban_env_host
FNDA:1772,_RNvYNtNtCsdmZoVYnqinT_18soroban_env_common5bytes11BytesObjectNtNtB6_3val10ValConvert11try_convertCs8j26R3SUG40_16soroban_env_host
FNDA:176,_RNvMss_NtCsdmZoVYnqinT_18soroban_env_common3valNtB5_3Val9from_void
FNDA:104721,_RNvMNtCsdmZoVYnqinT_18soroban_env_common3valNtB2_3Tag12u8_is_object
FNDA:0,_RNvYuNtNtCsdmZoVYnqinT_18soroban_env_common3val10ValConvert11try_convertCs8j26R3SUG40_16soroban_env_host
FNDA:20,_RNvYNtNtCsdmZoVYnqinT_18soroban_env_common6string12StringObjectNtNtB6_3val10ValConvert11try_convertCs8j26R3SUG40_16soroban_env_host
FNDA:16180,_RNvMss_NtCsdmZoVYnqinT_18soroban_env_common3valNtB5_3Val7has_tag
FNDA:32,_RNvYNtNtCsdmZoVYnqinT_18soroban_env_common3num6U64ValNtNtB6_3val10ValConvert11try_convertCs8j26R3SUG40_16soroban_env_host
FNDA:58,_RNvYNtNtCsdmZoVYnqinT_18soroban_env_common3num7I256ValNtNtB6_3val10ValConvert11try_convertCs8j26R3SUG40_16soroban_env_host
FNDA:0,_RNvYNtNtCsdmZoVYnqinT_18soroban_env_common3num14TimepointSmallNtNtB6_3val10ValConvert11try_convertCs8j26R3SUG40_16soroban_env_host
FNDA:0,_RNvYNtNtCsdmZoVYnqinT_18soroban_env_common3num9U128SmallNtNtB6_3val10ValConvert11try_convertCs8j26R3SUG40_16soroban_env_host
FNDA:0,_RNvXsg_NtCsdmZoVYnqinT_18soroban_env_common3valbNtB5_10ValConvert11try_convert
FNDA:768,_RNvYNtNtCsdmZoVYnqinT_18soroban_env_common3val9MapObjectNtB4_10ValConvert11try_convertCs8j26R3SUG40_16soroban_env_host
FNDA:8,_RNvMNtCsdmZoVYnqinT_18soroban_env_common3valNtB2_3Tag14get_scval_type
FNDA:39,_RNvXso_NtCsdmZoVYnqinT_18soroban_env_common3valNtB5_3ValINtNtCs7L5q00ejtpZ_4core7convert4FromlE4from
FNDA:3050,_RNvXsy_NtCsdmZoVYnqinT_18soroban_env_common3valNtB5_3TagNtNtCs7L5q00ejtpZ_4core3cmp9PartialEq2eqCs8j26R3SUG40_16soroban_env_host
FNDA:0,_RNvYNtNtCsdmZoVYnqinT_18soroban_env_common6symbol11SymbolSmallNtNtB6_3val10ValConvert11try_convertCs8j26R3SUG40_16soroban_env_host
FNDA:26772,_RNvNvXsu_NtCsdmZoVYnqinT_18soroban_env_common3valNtB7_3ValNtNtCs7L5q00ejtpZ_4core3fmt5Debug3fmt7fmt_obj
FNDA:4970,_RNvXsc_NtCsdmZoVYnqinT_18soroban_env_common3valNtB5_3ValNtB5_12WasmiMarshal22try_marshal_from_value
FNDA:0,_RNvYNtNtCsdmZoVYnqinT_18soroban_env_common3num9I64ObjectNtNtB6_3val10ValConvert11try_convertB6_
FNDA:0,_RNvXININtCsdmZoVYnqinT_18soroban_env_common3vals2_0pENtB5_3ValINtNtB7_7convert10TryFromValpBP_E12try_from_valB7_
FNDA:0,_RNvXs7_NtCsdmZoVYnqinT_18soroban_env_common3valNtB5_4BoolNtB5_10ValConvert11is_val_type
FNDA:0,_RNvYNtNtCsdmZoVYnqinT_18soroban_env_common3num14DurationObjectNtNtB6_3val10ValConvert11try_convertB6_
FNDA:0,_RNvYNtNtCsdmZoVYnqinT_18soroban_env_common3num10U256ObjectNtNtB6_3val10ValConvert11try_convertB6_
FNDA:2,_RNvXs3_NtCsdmZoVYnqinT_18soroban_env_common3valNtB5_4VoidINtNtCs7L5q00ejtpZ_4core7convert4FromuE4from
FNDA:0,_RNvXs0_NtCsdmZoVYnqinT_18soroban_env_common3valNtB5_3ValINtNtCs7L5q00ejtpZ_4core7convert5AsRefBJ_E6as_ref
FNDA:0,_RNvXININtCsdmZoVYnqinT_18soroban_env_common3vals4_0pEpINtNtB7_7compare7CompareNtB5_4VoidE7compareB7_
FNDA:0,_RNvXsX_NtCsdmZoVYnqinT_18soroban_env_common3valNtB5_4BoolNtNtCs7L5q00ejtpZ_4core5clone5Clone5cloneB7_
FNDA:0,_RNvXsb_NtCsdmZoVYnqinT_18soroban_env_common3valNtB5_15ConversionErrorINtNtCs7L5q00ejtpZ_4core7convert4FromNtNtB7_5error5ErrorE4from
FNDA:0,_RNvXsq_NtCsdmZoVYnqinT_18soroban_env_common3valNtB5_3ValINtNtCs7L5q00ejtpZ_4core7convert4FromNtNtNtCs47RmZobMba4_11stellar_xdr4curr9generated7ScErrorE4from
FNDA:0,_RNvXs_NtCsdmZoVYnqinT_18soroban_env_common3valNtB4_3ValNtNtCs7L5q00ejtpZ_4core7default7Default7default
FNDA:0,_RNvXsr_NtCsdmZoVYnqinT_18soroban_env_common3valNtB5_3ValINtNtCs7L5q00ejtpZ_4core7convert4FromRNtNtNtCs47RmZobMba4_11stellar_xdr4curr9generated7ScErrorE4from
FNDA:0,_RNvXs24_NtCsdmZoVYnqinT_18soroban_env_common3valNtB6_15ConversionErrorNtNtCs7L5q00ejtpZ_4core3fmt5Debug3fmt
FNDA:2,_RNCNvMss_NtCsdmZoVYnqinT_18soroban_env_common3valNtB7_3Val19can_represent_scvals_0B9_
FNDA:0,_RNvMss_NtCsdmZoVYnqinT_18soroban_env_common3valNtB5_3Val8is_false
FNDA:0,_RNvXsa_NtCsdmZoVYnqinT_18soroban_env_common3valNtB5_15ConversionErrorINtNtCs7L5q00ejtpZ_4core7convert4FromNtNtNtCs47RmZobMba4_11stellar_xdr4curr9generated5ErrorE4from
FNDA:48122,_RNvMss_NtCsdmZoVYnqinT_18soroban_env_common3valNtB5_3Val24can_represent_scval_type
FNDA:1287,_RNvMss_NtCsdmZoVYnqinT_18soroban_env_common3valNtB5_3Val8has_body
FNDA:0,_RNvXs6_NtCsdmZoVYnqinT_18soroban_env_common3valbINtNtCs7L5q00ejtpZ_4core7convert4FromNtB5_4BoolE4from
FNDA:0,_RNvYNtNtCsdmZoVYnqinT_18soroban_env_common3num8I64SmallNtNtB6_3val10ValConvert11try_convertB6_
FNDA:0,_RNvYNtNtCsdmZoVYnqinT_18soroban_env_common3num10I128ObjectNtNtB6_3val10ValConvert11try_convertB6_
FNDA:0,_RNvYNtNtCsdmZoVYnqinT_18soroban_env_common3num8U64SmallNtNtB6_3val10ValConvert11try_convertB6_
FNDA:0,_RNvXsy_NtCsdmZoVYnqinT_18soroban_env_common3valNtB5_3TagNtNtCs7L5q00ejtpZ_4core3cmp9PartialEq2eqB7_
FNDA:0,_RNvYNtNtCsdmZoVYnqinT_18soroban_env_common3num15TimepointObjectNtNtB6_3val10ValConvert11try_convertB6_
FNDA:0,_RNvYNtNtCsdmZoVYnqinT_18soroban_env_common3num10I256ObjectNtNtB6_3val10ValConvert11try_convertB6_
FNDA:18464,_RNvXsc_NtCsdmZoVYnqinT_18soroban_env_common3valNtB5_3ValNtB5_12WasmiMarshal17marshal_from_self
FNDA:0,_RNvXse_NtCsdmZoVYnqinT_18soroban_env_common3valxNtB5_12WasmiMarshal17marshal_from_self
FNDA:21,_RNvXs5_NtCsdmZoVYnqinT_18soroban_env_common3valNtB5_4BoolINtNtCs7L5q00ejtpZ_4core7convert4FrombE4from
FNDA:14,_RNvMss_NtCsdmZoVYnqinT_18soroban_env_common3valNtB5_3Val19can_represent_scval
FNDA:0,_RNvMss_NtCsdmZoVYnqinT_18soroban_env_common3valNtB5_3Val10shallow_eq
FNDA:0,_RNvYNtNtCsdmZoVYnqinT_18soroban_env_common3num14TimepointSmallNtNtB6_3val10ValConvert11try_convertB6_
FNDA:0,_RNvYNtNtCsdmZoVYnqinT_18soroban_env_common6symbol12SymbolObjectNtNtB6_3val10ValConvert11try_convertB6_
FNDA:28999,_RNvXsu_NtCsdmZoVYnqinT_18soroban_env_common3valNtB5_3ValNtNtCs7L5q00ejtpZ_4core3fmt5Debug3fmt
FNDA:30049,_RNvMss_NtCsdmZoVYnqinT_18soroban_env_common3valNtB5_3Val7is_good
FNDA:0,_RNvYNtNtCsdmZoVYnqinT_18soroban_env_common3num9U128SmallNtNtB6_3val10ValConvert11try_convertB6_
FNDA:0,_RNvXsG_NtCsdmZoVYnqinT_18soroban_env_common3valNtB5_3ValNtNtCs7L5q00ejtpZ_4core5clone5Clone5cloneB7_
FNDA:2,_RNvYNtNtCsdmZoVYnqinT_18soroban_env_common3num9U256SmallNtNtB6_3val10ValConvert11try_convertB6_
FNDA:0,_RNvXsC_NtCsdmZoVYnqinT_18soroban_env_common3valNtB5_3TagNtNtCs7L5q00ejtpZ_4core3cmp3Ord3cmpB7_
FNDA:4850,_RNvYNtNtCsdmZoVYnqinT_18soroban_env_common6symbol11SymbolSmallNtNtB6_3val10ValConvert11try_convertB6_
FNDA:12,_RNvYNtNtCsdmZoVYnqinT_18soroban_env_common3num9I256SmallNtNtB6_3val10ValConvert11try_convertB6_
FNDA:0,_RNvXs28_NtCsdmZoVYnqinT_18soroban_env_common3valNtB6_15ConversionErrorNtNtCs7L5q00ejtpZ_4core3cmp9PartialEq2eqB8_
FNDA:0,_RNvYNtNtCsdmZoVYnqinT_18soroban_env_common3num10U128ObjectNtNtB6_3val10ValConvert11try_convertB6_
FNDA:0,_RNvXININtCsdmZoVYnqinT_18soroban_env_common3vals8_0pEpINtNtB7_7compare7CompareNtB5_4BoolE7compareB7_
FNDA:64,_RNvXsd_NtCsdmZoVYnqinT_18soroban_env_common3valyNtB5_12WasmiMarshal22try_marshal_from_value
FNDA:0,_RNvXsB_NtCsdmZoVYnqinT_18soroban_env_common3valNtB5_3TagNtNtCs7L5q00ejtpZ_4core3cmp10PartialOrd11partial_cmpB7_
FNDA:16,_RNvXse_NtCsdmZoVYnqinT_18soroban_env_common3valxNtB5_12WasmiMarshal22try_marshal_from_value
FNDA:0,_RNvXs7_NtCsdmZoVYnqinT_18soroban_env_common3valNtB5_4BoolNtB5_10ValConvert18unchecked_from_val
FNDA:0,_RNvXsw_NtCsdmZoVYnqinT_18soroban_env_common3valNtB5_3TagNtNtCs7L5q00ejtpZ_4core5clone5Clone5cloneB7_
FNDA:0,_RNvXs1_NtCsdmZoVYnqinT_18soroban_env_common3valNtB5_3ValINtNtCs7L5q00ejtpZ_4core7convert5AsMutBJ_E6as_mut
FNDA:0,_RINvXsD_NtCsdmZoVYnqinT_18soroban_env_common3valNtB6_3TagNtNtCs7L5q00ejtpZ_4core4hash4Hash4hashpEB8_
FNDA:0,_RNvXs9_NtCsdmZoVYnqinT_18soroban_env_common3valNtB5_15ConversionErrorINtNtCs7L5q00ejtpZ_4core7convert4FromNtB18_10InfallibleE4from
FNDA:6,_RNvXsd_NtCsdmZoVYnqinT_18soroban_env_common3valyNtB5_12WasmiMarshal17marshal_from_self
FNDA:0,_RNvYNtNtCsdmZoVYnqinT_18soroban_env_common3num13DurationSmallNtNtB6_3val10ValConvert11try_convertB6_
FNDA:0,_RNvXsE_NtCsdmZoVYnqinT_18soroban_env_common3valNtB5_3TagNtNtCs7L5q00ejtpZ_4core3fmt5Debug3fmt
FNDA:0,_RNvMss_NtCsdmZoVYnqinT_18soroban_env_common3valNtB5_3Val7is_true
FNDA:0,_RNvYNtNtCsdmZoVYnqinT_18soroban_env_common3num9U64ObjectNtNtB6_3val10ValConvert11try_convertB6_
FNDA:0,_RNvYNtNtCsdmZoVYnqinT_18soroban_env_common3num9I128SmallNtNtB6_3val10ValConvert11try_convertB6_
FNDA:184,_RNCNvMss_NtCsdmZoVYnqinT_18soroban_env_common3valNtB7_3Val19can_represent_scval0B9_
FNF:75
FNH:43
DA:47,3050
DA:161,0
DA:162,0
DA:163,0
DA:166,0
DA:167,0
DA:168,0
DA:171,104721
DA:172,104721
DA:173,104721
DA:176,48450
DA:177,48450
DA:178,48450
DA:181,104242
DA:182,104242
DA:183,104242
DA:184,104242
DA:185,104242
DA:186,0
DA:187,104242
DA:188,104242
DA:189,104242
DA:190,104242
DA:191,104242
DA:192,104242
DA:193,104242
DA:194,104242
DA:195,104242
DA:196,104242
DA:197,104242
DA:198,104242
DA:208,8
DA:209,8
DA:210,0
DA:211,0
DA:212,0
DA:213,0
DA:214,4
DA:215,0
DA:216,0
DA:217,0
DA:218,0
DA:219,0
DA:220,0
DA:221,0
DA:222,0
DA:223,0
DA:224,0
DA:225,0
DA:226,0
DA:227,0
DA:228,0
DA:229,0
DA:230,0
DA:231,0
DA:232,0
DA:233,0
DA:234,0
DA:235,0
DA:236,0
DA:237,0
DA:238,0
DA:239,0
DA:240,4
DA:241,0
DA:242,0
DA:244,8
DA:248,132250
DA:252,0
DA:253,0
DA:254,0
DA:260,0
DA:261,0
DA:262,0
DA:266,0
DA:267,0
DA:268,0
DA:273,0
DA:274,0
DA:275,0
DA:282,2
DA:283,2
DA:284,2
DA:289,0
DA:290,0
DA:291,0
DA:295,8
DA:300,21
DA:301,21
DA:302,21
DA:305,0
DA:306,0
DA:307,0
DA:311,0
DA:312,0
DA:313,0
DA:315,0
DA:316,0
DA:317,0
DA:322,0
DA:323,0
DA:324,0
DA:325,0
DA:326,0
DA:347,0
DA:351,0
DA:352,0
DA:353,0
DA:357,0
DA:358,0
DA:359,0
DA:363,0
DA:364,0
DA:365,0
DA:390,66841
DA:391,66841
DA:392,54852
DA:394,11989
DA:396,66841
DA:414,4970
DA:415,4970
DA:416,4970
DA:417,4970
DA:419,0
DA:422,0
DA:424,4970
DA:426,18464
DA:427,18464
DA:428,18464
DA:434,64
DA:435,64
DA:437,0
DA:439,64
DA:441,6
DA:442,6
DA:443,6
DA:449,16
DA:450,16
DA:452,0
DA:454,16
DA:456,0
DA:457,0
DA:458,0
DA:466,0
DA:467,0
DA:468,0
DA:470,0
DA:483,0
DA:484,0
DA:485,0
DA:486,0
DA:487,0
DA:489,0
DA:491,0
DA:496,0
DA:497,0
DA:498,0
DA:500,0
DA:501,0
DA:502,0
DA:518,0
DA:519,0
DA:520,0
DA:525,176
DA:526,176
DA:527,176
DA:539,1432
DA:540,1432
DA:541,1432
DA:553,39
DA:554,39
DA:555,39
DA:566,0
DA:567,0
DA:568,0
DA:569,0
DA:573,0
DA:574,0
DA:575,0
DA:576,0
DA:585,48122
DA:586,48122
DA:605,48122
DA:608,0
DA:610,48122
DA:613,94
DA:615,0
DA:616,0
DA:617,184
DA:618,80
DA:619,80
DA:620,80
DA:621,80
DA:622,80
DA:624,48122
DA:626,48216
DA:631,30049
DA:632,30049
DA:638,0
DA:639,1287
DA:640,2718
DA:641,148
DA:642,204
DA:650,188
DA:664,25504
DA:666,30049
DA:669,23339
DA:670,23339
DA:671,23339
DA:674,5354
DA:675,5354
DA:676,5354
DA:679,0
DA:680,0
DA:681,0
DA:684,176693
DA:685,176693
DA:686,176693
DA:689,104242
DA:690,104242
DA:691,104242
DA:692,104242
DA:695,129953
DA:696,129953
DA:697,129953
DA:700,1287
DA:701,1287
DA:702,1287
DA:705,70
DA:706,70
DA:707,70
DA:710,16180
DA:711,16180
DA:712,16180
DA:717,56797
DA:718,56797
DA:719,56797
DA:723,50742
DA:724,50742
DA:725,50742
DA:726,50742
DA:727,50742
DA:730,28318
DA:731,28318
DA:732,28318
DA:735,460
DA:736,460
DA:737,460
DA:740,29272
DA:741,29272
DA:742,29272
DA:745,94134
DA:746,94134
DA:747,94134
DA:750,56271
DA:751,56271
DA:752,56271
DA:755,176
DA:756,176
DA:757,176
DA:760,27
DA:761,27
DA:762,27
DA:763,27
DA:771,0
DA:772,0
DA:773,0
DA:776,0
DA:777,0
DA:778,0
DA:798,28999
DA:799,28999
DA:800,26772
DA:801,26772
DA:802,28999
DA:803,28999
DA:804,1536
DA:805,10
DA:806,20
DA:807,2
DA:808,503
DA:809,22
DA:810,38
DA:811,0
DA:812,0
DA:813,0
DA:815,0
DA:816,0
DA:818,8
DA:819,48
DA:821,40
DA:822,40
DA:823,40
DA:824,40
DA:827,22
DA:828,8
DA:829,16
DA:830,4
DA:831,0
DA:832,0
DA:833,0
DA:834,0
DA:835,16338
DA:836,28
DA:837,12
DA:838,474
DA:839,570
DA:840,9300
DA:846,0
DA:847,0
DA:848,0
DA:849,0
DA:850,0
DA:851,0
DA:854,28999
BRF:0
BRH:0
LF:326
LH:181
end_of_record
SF:/src/rs-soroban-env/soroban-env-common/src/vmcaller_env.rs
FN:179,_RNvXs_NtCsdmZoVYnqinT_18soroban_env_common12vmcaller_envNtNtCs8j26R3SUG40_16soroban_env_host4host4HostNtNtB6_3env3Env12require_authBW_
FN:179,_RNvXs_NtCsdmZoVYnqinT_18soroban_env_common12vmcaller_envNtNtCs8j26R3SUG40_16soroban_env_host4host4HostNtNtB6_3env3Env17obj_to_i256_lo_loBW_
FN:179,_RNvXs_NtCsdmZoVYnqinT_18soroban_env_common12vmcaller_envNtNtCs8j26R3SUG40_16soroban_env_host4host4HostNtNtB6_3env3Env17get_contract_dataBW_
FN:179,_RNvXs_NtCsdmZoVYnqinT_18soroban_env_common12vmcaller_envNtNtCs8j26R3SUG40_16soroban_env_host4host4HostNtNtB6_3env3Env16obj_to_i128_lo64BW_
FN:179,_RNvXs_NtCsdmZoVYnqinT_18soroban_env_common12vmcaller_envNtNtCs8j26R3SUG40_16soroban_env_host4host4HostNtNtB6_3env3Env7vec_lenBW_
FN:179,_RNvXs_NtCsdmZoVYnqinT_18soroban_env_common12vmcaller_envNtNtCs8j26R3SUG40_16soroban_env_host4host4HostNtNtB6_3env3Env13vec_push_backBW_
FN:179,_RNvXs_NtCsdmZoVYnqinT_18soroban_env_common12vmcaller_envNtNtCs8j26R3SUG40_16soroban_env_host4host4HostNtNtB6_3env3Env9bytes_lenBW_
FN:179,_RNvXs_NtCsdmZoVYnqinT_18soroban_env_common12vmcaller_envNtNtCs8j26R3SUG40_16soroban_env_host4host4HostNtNtB6_3env3Env7obj_cmpBW_
FN:179,_RNvXs_NtCsdmZoVYnqinT_18soroban_env_common12vmcaller_envNtNtCs8j26R3SUG40_16soroban_env_host4host4HostNtNtB6_3env3Env19get_ledger_sequenceBW_
FN:179,_RNvXs_NtCsdmZoVYnqinT_18soroban_env_common12vmcaller_envNtNtCs8j26R3SUG40_16soroban_env_host4host4HostNtNtB6_3env3Env14contract_eventBW_
FN:179,_RNvXs_NtCsdmZoVYnqinT_18soroban_env_common12vmcaller_envNtNtCs8j26R3SUG40_16soroban_env_host4host4HostNtNtB6_3env3Env17obj_to_u256_lo_loBW_
FN:179,_RNvXs_NtCsdmZoVYnqinT_18soroban_env_common12vmcaller_envNtNtCs8j26R3SUG40_16soroban_env_host4host4HostNtNtB6_3env3Env24extend_contract_data_ttlBW_
FN:179,_RNvXs_NtCsdmZoVYnqinT_18soroban_env_common12vmcaller_envNtNtCs8j26R3SUG40_16soroban_env_host4host4HostNtNtB6_3env3Env17obj_to_u256_hi_loBW_
FN:179,_RNvXs_NtCsdmZoVYnqinT_18soroban_env_common12vmcaller_envNtNtCs8j26R3SUG40_16soroban_env_host4host4HostNtNtB6_3env3Env7vec_newBW_
FN:179,_RNvXs_NtCsdmZoVYnqinT_18soroban_env_common12vmcaller_envNtNtCs8j26R3SUG40_16soroban_env_host4host4HostNtNtB6_3env3Env10string_lenBW_
FN:179,_RNvXs_NtCsdmZoVYnqinT_18soroban_env_common12vmcaller_envNtNtCs8j26R3SUG40_16soroban_env_host4host4HostNtNtB6_3env3Env17put_contract_dataBW_
FN:44,_RNvMNtCsdmZoVYnqinT_18soroban_env_common12vmcaller_envINtB2_8VmCallerNtNtCs8j26R3SUG40_16soroban_env_host4host4HostE7try_mutB19_
FN:179,_RNvXs_NtCsdmZoVYnqinT_18soroban_env_common12vmcaller_envNtNtCs8j26R3SUG40_16soroban_env_host4host4HostNtNtB6_3env3Env21get_ledger_network_idBW_
FN:179,_RNvXs_NtCsdmZoVYnqinT_18soroban_env_common12vmcaller_envNtNtCs8j26R3SUG40_16soroban_env_host4host4HostNtNtB6_3env3Env16obj_to_i128_hi64BW_
FN:179,_RNvXs_NtCsdmZoVYnqinT_18soroban_env_common12vmcaller_envNtNtCs8j26R3SUG40_16soroban_env_host4host4HostNtNtB6_3env3Env17obj_to_i256_hi_loBW_
FN:179,_RNvXs_NtCsdmZoVYnqinT_18soroban_env_common12vmcaller_envNtNtCs8j26R3SUG40_16soroban_env_host4host4HostNtNtB6_3env3Env17has_contract_dataBW_
FN:179,_RNvXs_NtCsdmZoVYnqinT_18soroban_env_common12vmcaller_envNtNtCs8j26R3SUG40_16soroban_env_host4host4HostNtNtB6_3env3Env15create_contractBW_
FN:179,_RNvXs_NtCsdmZoVYnqinT_18soroban_env_common12vmcaller_envNtNtCs8j26R3SUG40_16soroban_env_host4host4HostNtNtB6_3env3Env18verify_sig_ed25519BW_
FN:179,_RNvXs_NtCsdmZoVYnqinT_18soroban_env_common12vmcaller_envNtNtCs8j26R3SUG40_16soroban_env_host4host4HostNtNtB6_3env3Env20obj_from_i128_piecesBW_
FN:179,_RNvXs_NtCsdmZoVYnqinT_18soroban_env_common12vmcaller_envNtNtCs8j26R3SUG40_16soroban_env_host4host4HostNtNtB6_3env3Env20obj_from_u256_piecesBW_
FN:179,_RNvXs_NtCsdmZoVYnqinT_18soroban_env_common12vmcaller_envNtNtCs8j26R3SUG40_16soroban_env_host4host4HostNtNtB6_3env3Env20obj_from_i256_piecesBW_
FN:179,_RNvXs_NtCsdmZoVYnqinT_18soroban_env_common12vmcaller_envNtNtCs8j26R3SUG40_16soroban_env_host4host4HostNtNtB6_3env3Env17obj_to_i256_hi_hiBW_
FN:32,_RNvMNtCsdmZoVYnqinT_18soroban_env_common12vmcaller_envINtB2_8VmCallerNtNtCs8j26R3SUG40_16soroban_env_host4host4HostE4noneB19_
FN:179,_RNvXs_NtCsdmZoVYnqinT_18soroban_env_common12vmcaller_envNtNtCs8j26R3SUG40_16soroban_env_host4host4HostNtNtB6_3env3Env12obj_from_i64BW_
FN:179,_RNvXs_NtCsdmZoVYnqinT_18soroban_env_common12vmcaller_envNtNtCs8j26R3SUG40_16soroban_env_host4host4HostNtNtB6_3env3Env11upload_wasmBW_
FN:179,_RNvXs_NtCsdmZoVYnqinT_18soroban_env_common12vmcaller_envNtNtCs8j26R3SUG40_16soroban_env_host4host4HostNtNtB6_3env3Env45extend_current_contract_instance_and_code_ttlBW_
FN:179,_RNvXs_NtCsdmZoVYnqinT_18soroban_env_common12vmcaller_envNtNtCs8j26R3SUG40_16soroban_env_host4host4HostNtNtB6_3env3Env12obj_from_u64BW_
FN:179,_RNvXs_NtCsdmZoVYnqinT_18soroban_env_common12vmcaller_envNtNtCs8j26R3SUG40_16soroban_env_host4host4HostNtNtB6_3env3Env17obj_to_u256_lo_hiBW_
FN:179,_RNvXs_NtCsdmZoVYnqinT_18soroban_env_common12vmcaller_envNtNtCs8j26R3SUG40_16soroban_env_host4host4HostNtNtB6_3env3Env7vec_getBW_
FN:179,_RNvXs_NtCsdmZoVYnqinT_18soroban_env_common12vmcaller_envNtNtCs8j26R3SUG40_16soroban_env_host4host4HostNtNtB6_3env3Env17obj_to_i256_lo_hiBW_
FN:179,_RNvXs_NtCsdmZoVYnqinT_18soroban_env_common12vmcaller_envNtNtCs8j26R3SUG40_16soroban_env_host4host4HostNtNtB6_3env3Env17obj_to_u256_hi_hiBW_
FN:179,_RNvXs_NtCsdmZoVYnqinT_18soroban_env_common12vmcaller_envNtNtCs8j26R3SUG40_16soroban_env_host4host4HostNtNtB6_3env3Env10symbol_lenBW_
FN:179,_RNvXININtCsdmZoVYnqinT_18soroban_env_common12vmcaller_envs_0pEpNtNtB7_3env3Env16obj_to_i128_lo64B7_
FN:179,_RNvXININtCsdmZoVYnqinT_18soroban_env_common12vmcaller_envs_0pEpNtNtB7_3env3Env14vec_push_frontB7_
FN:179,_RNvXININtCsdmZoVYnqinT_18soroban_env_common12vmcaller_envs_0pEpNtNtB7_3env3Env12vec_pop_backB7_
FN:179,_RNvXININtCsdmZoVYnqinT_18soroban_env_common12vmcaller_envs_0pEpNtNtB7_3env3Env17has_contract_dataB7_
FN:179,_RNvXININtCsdmZoVYnqinT_18soroban_env_common12vmcaller_envs_0pEpNtNtB7_3env3Env27prng_u64_in_inclusive_rangeB7_
FN:179,_RNvXININtCsdmZoVYnqinT_18soroban_env_common12vmcaller_envs_0pEpNtNtB7_3env3Env8i256_subB7_
FN:179,_RNvXININtCsdmZoVYnqinT_18soroban_env_common12vmcaller_envs_0pEpNtNtB7_3env3Env15i256_rem_euclidB7_
FN:179,_RNvXININtCsdmZoVYnqinT_18soroban_env_common12vmcaller_envs_0pEpNtNtB7_3env3Env16prng_vec_shuffleB7_
FN:179,_RNvXININtCsdmZoVYnqinT_18soroban_env_common12vmcaller_envs_0pEpNtNtB7_3env3Env28update_current_contract_wasmB7_
FN:179,_RNvXININtCsdmZoVYnqinT_18soroban_env_common12vmcaller_envs_0pEpNtNtB7_3env3Env37extend_contract_instance_and_code_ttlB7_
FN:179,_RNvXININtCsdmZoVYnqinT_18soroban_env_common12vmcaller_envs_0pEpNtNtB7_3env3Env8i256_shrB7_
FN:179,_RNvXININtCsdmZoVYnqinT_18soroban_env_common12vmcaller_envs_0pEpNtNtB7_3env3Env14map_val_by_posB7_
FN:179,_RNvXININtCsdmZoVYnqinT_18soroban_env_common12vmcaller_envs_0pEpNtNtB7_3env3Env21duration_obj_from_u64B7_
FN:179,_RNvXININtCsdmZoVYnqinT_18soroban_env_common12vmcaller_envs_0pEpNtNtB7_3env3Env26map_new_from_linear_memoryB7_
FN:179,_RNvXININtCsdmZoVYnqinT_18soroban_env_common12vmcaller_envs_0pEpNtNtB7_3env3Env22timepoint_obj_from_u64B7_
FN:179,_RNvXININtCsdmZoVYnqinT_18soroban_env_common12vmcaller_envs_0pEpNtNtB7_3env3Env7vec_putB7_
FN:179,_RNvXININtCsdmZoVYnqinT_18soroban_env_common12vmcaller_envs_0pEpNtNtB7_3env3Env28string_copy_to_linear_memoryB7_
FN:179,_RNvXININtCsdmZoVYnqinT_18soroban_env_common12vmcaller_envs_0pEpNtNtB7_3env3Env22u256_val_from_be_bytesB7_
FN:179,_RNvXININtCsdmZoVYnqinT_18soroban_env_common12vmcaller_envs_0pEpNtNtB7_3env3Env21get_ledger_network_idB7_
FN:179,_RNvXININtCsdmZoVYnqinT_18soroban_env_common12vmcaller_envs_0pEpNtNtB7_3env3Env17obj_to_u256_hi_loB7_
FN:179,_RNvXININtCsdmZoVYnqinT_18soroban_env_common12vmcaller_envs_0pEpNtNtB7_3env3Env12obj_from_u64B7_
FN:179,_RNvXININtCsdmZoVYnqinT_18soroban_env_common12vmcaller_envs_0pEpNtNtB7_3env3Env20u256_val_to_be_bytesB7_
FN:179,_RNvXININtCsdmZoVYnqinT_18soroban_env_common12vmcaller_envs_0pEpNtNtB7_3env3Env13vec_pop_frontB7_
FN:179,_RNvXININtCsdmZoVYnqinT_18soroban_env_common12vmcaller_envs_0pEpNtNtB7_3env3Env13vec_push_backB7_
FN:179,_RNvXININtCsdmZoVYnqinT_18soroban_env_common12vmcaller_envs_0pEpNtNtB7_3env3Env17strkey_to_addressB7_
FN:179,_RNvXININtCsdmZoVYnqinT_18soroban_env_common12vmcaller_envs_0pEpNtNtB7_3env3Env22i256_val_from_be_bytesB7_
FN:179,_RNvXININtCsdmZoVYnqinT_18soroban_env_common12vmcaller_envs_0pEpNtNtB7_3env3Env8u256_addB7_
FN:179,_RNvXININtCsdmZoVYnqinT_18soroban_env_common12vmcaller_envs_0pEpNtNtB7_3env3Env17get_contract_dataB7_
FN:179,_RNvXININtCsdmZoVYnqinT_18soroban_env_common12vmcaller_envs_0pEpNtNtB7_3env3Env21create_asset_contractB7_
FN:179,_RNvXININtCsdmZoVYnqinT_18soroban_env_common12vmcaller_envs_0pEpNtNtB7_3env3Env27bytes_copy_to_linear_memoryB7_
FN:179,_RNvXININtCsdmZoVYnqinT_18soroban_env_common12vmcaller_envs_0pEpNtNtB7_3env3Env22log_from_linear_memoryB7_
FN:179,_RNvXININtCsdmZoVYnqinT_18soroban_env_common12vmcaller_envs_0pEpNtNtB7_3env3Env18get_ledger_versionB7_
FN:32,_RNvMNtCsdmZoVYnqinT_18soroban_env_common12vmcaller_envINtB2_8VmCallerpE4noneB4_
FN:179,_RNvXININtCsdmZoVYnqinT_18soroban_env_common12vmcaller_envs_0pEpNtNtB7_3env3Env7map_hasB7_
FN:179,_RNvXININtCsdmZoVYnqinT_18soroban_env_common12vmcaller_envs_0pEpNtNtB7_3env3Env8map_keysB7_
FN:179,_RNvXININtCsdmZoVYnqinT_18soroban_env_common12vmcaller_envs_0pEpNtNtB7_3env3Env9bytes_delB7_
FN:179,_RNvXININtCsdmZoVYnqinT_18soroban_env_common12vmcaller_envs_0pEpNtNtB7_3env3Env9bytes_popB7_
FN:35,_RNvMNtCsdmZoVYnqinT_18soroban_env_common12vmcaller_envINtB2_8VmCallerpE7try_refB4_
FN:179,_RNvXININtCsdmZoVYnqinT_18soroban_env_common12vmcaller_envs_0pEpNtNtB7_3env3Env12obj_from_i64B7_
FN:179,_RNvXININtCsdmZoVYnqinT_18soroban_env_common12vmcaller_envs_0pEpNtNtB7_3env3Env16obj_to_u128_lo64B7_
FN:179,_RNvXININtCsdmZoVYnqinT_18soroban_env_common12vmcaller_envs_0pEpNtNtB7_3env3Env27map_unpack_to_linear_memoryB7_
FN:179,_RNvXININtCsdmZoVYnqinT_18soroban_env_common12vmcaller_envs_0pEpNtNtB7_3env3Env10vec_insertB7_
FN:179,_RNvXININtCsdmZoVYnqinT_18soroban_env_common12vmcaller_envs_0pEpNtNtB7_3env3Env7vec_getB7_
FN:179,_RNvXININtCsdmZoVYnqinT_18soroban_env_common12vmcaller_envs_0pEpNtNtB7_3env3Env18vec_first_index_ofB7_
FN:179,_RNvXININtCsdmZoVYnqinT_18soroban_env_common12vmcaller_envs_0pEpNtNtB7_3env3Env7vec_newB7_
FN:179,_RNvXININtCsdmZoVYnqinT_18soroban_env_common12vmcaller_envs_0pEpNtNtB7_3env3Env26vec_new_from_linear_memoryB7_
FN:179,_RNvXININtCsdmZoVYnqinT_18soroban_env_common12vmcaller_envs_0pEpNtNtB7_3env3Env6dummy0B7_
FN:179,_RNvXININtCsdmZoVYnqinT_18soroban_env_common12vmcaller_envs_0pEpNtNtB7_3env3Env8u256_divB7_
FN:179,_RNvXININtCsdmZoVYnqinT_18soroban_env_common12vmcaller_envs_0pEpNtNtB7_3env3Env17obj_to_u256_hi_hiB7_
FN:179,_RNvXININtCsdmZoVYnqinT_18soroban_env_common12vmcaller_envs_0pEpNtNtB7_3env3Env8u256_shlB7_
FN:179,_RNvXININtCsdmZoVYnqinT_18soroban_env_common12vmcaller_envs_0pEpNtNtB7_3env3Env17obj_to_u256_lo_loB7_
FN:179,_RNvXININtCsdmZoVYnqinT_18soroban_env_common12vmcaller_envs_0pEpNtNtB7_3env3Env15u256_rem_euclidB7_
FN:179,_RNvXININtCsdmZoVYnqinT_18soroban_env_common12vmcaller_envs_0pEpNtNtB7_3env3Env17del_contract_dataB7_
FN:179,_RNvXININtCsdmZoVYnqinT_18soroban_env_common12vmcaller_envs_0pEpNtNtB7_3env3Env11upload_wasmB7_
FN:179,_RNvXININtCsdmZoVYnqinT_18soroban_env_common12vmcaller_envs_0pEpNtNtB7_3env3Env45extend_current_contract_instance_and_code_ttlB7_
FN:179,_RNvXININtCsdmZoVYnqinT_18soroban_env_common12vmcaller_envs_0pEpNtNtB7_3env3Env15create_contractB7_
FN:179,_RNvXININtCsdmZoVYnqinT_18soroban_env_common12vmcaller_envs_0pEpNtNtB7_3env3Env8i256_mulB7_
FN:179,_RNvXININtCsdmZoVYnqinT_18soroban_env_common12vmcaller_envs_0pEpNtNtB7_3env3Env8i256_powB7_
FN:179,_RNvXININtCsdmZoVYnqinT_18soroban_env_common12vmcaller_envs_0pEpNtNtB7_3env3Env7obj_cmpB7_
FN:179,_RNvXININtCsdmZoVYnqinT_18soroban_env_common12vmcaller_envs_0pEpNtNtB7_3env3Env19get_ledger_sequenceB7_
FN:179,_RNvXININtCsdmZoVYnqinT_18soroban_env_common12vmcaller_envs_0pEpNtNtB7_3env3Env16obj_to_u128_hi64B7_
FN:179,_RNvXININtCsdmZoVYnqinT_18soroban_env_common12vmcaller_envs_0pEpNtNtB7_3env3Env16obj_to_i128_hi64B7_
FN:179,_RNvXININtCsdmZoVYnqinT_18soroban_env_common12vmcaller_envs_0pEpNtNtB7_3env3Env7vec_delB7_
FN:179,_RNvXININtCsdmZoVYnqinT_18soroban_env_common12vmcaller_envs_0pEpNtNtB7_3env3Env9bytes_putB7_
FN:179,_RNvXININtCsdmZoVYnqinT_18soroban_env_common12vmcaller_envs_0pEpNtNtB7_3env3Env28symbol_copy_to_linear_memoryB7_
FN:179,_RNvXININtCsdmZoVYnqinT_18soroban_env_common12vmcaller_envs_0pEpNtNtB7_3env3Env29bytes_copy_from_linear_memoryB7_
FN:179,_RNvXININtCsdmZoVYnqinT_18soroban_env_common12vmcaller_envs_0pEpNtNtB7_3env3Env12bytes_appendB7_
FN:179,_RNvXININtCsdmZoVYnqinT_18soroban_env_common12vmcaller_envs_0pEpNtNtB7_3env3Env9vec_frontB7_
FN:179,_RNvXININtCsdmZoVYnqinT_18soroban_env_common12vmcaller_envs_0pEpNtNtB7_3env3Env10vec_appendB7_
FN:179,_RNvXININtCsdmZoVYnqinT_18soroban_env_common12vmcaller_envs_0pEpNtNtB7_3env3Env19compute_hash_sha256B7_
FN:179,_RNvXININtCsdmZoVYnqinT_18soroban_env_common12vmcaller_envs_0pEpNtNtB7_3env3Env27recover_key_ecdsa_secp256k1B7_
FN:179,_RNvXININtCsdmZoVYnqinT_18soroban_env_common12vmcaller_envs_0pEpNtNtB7_3env3Env17obj_to_u256_lo_hiB7_
FN:179,_RNvXININtCsdmZoVYnqinT_18soroban_env_common12vmcaller_envs_0pEpNtNtB7_3env3Env17obj_to_i256_hi_loB7_
FN:179,_RNvXININtCsdmZoVYnqinT_18soroban_env_common12vmcaller_envs_0pEpNtNtB7_3env3Env17vec_last_index_ofB7_
FN:179,_RNvXININtCsdmZoVYnqinT_18soroban_env_common12vmcaller_envs_0pEpNtNtB7_3env3Env24extend_contract_data_ttlB7_
FN:179,_RNvXININtCsdmZoVYnqinT_18soroban_env_common12vmcaller_envs_0pEpNtNtB7_3env3Env27vec_unpack_to_linear_memoryB7_
FN:179,_RNvXININtCsdmZoVYnqinT_18soroban_env_common12vmcaller_envs_0pEpNtNtB7_3env3Env15get_contract_idB7_
FN:179,_RNvXININtCsdmZoVYnqinT_18soroban_env_common12vmcaller_envs_0pEpNtNtB7_3env3Env17vec_binary_searchB7_
FN:179,_RNvXININtCsdmZoVYnqinT_18soroban_env_common12vmcaller_envs_0pEpNtNtB7_3env3Env8try_callB7_
FN:179,_RNvXININtCsdmZoVYnqinT_18soroban_env_common12vmcaller_envs_0pEpNtNtB7_3env3Env14prng_bytes_newB7_
FN:179,_RNvXININtCsdmZoVYnqinT_18soroban_env_common12vmcaller_envs_0pEpNtNtB7_3env3Env8u256_powB7_
FN:179,_RNvXININtCsdmZoVYnqinT_18soroban_env_common12vmcaller_envs_0pEpNtNtB7_3env3Env19duration_obj_to_u64B7_
FN:179,_RNvXININtCsdmZoVYnqinT_18soroban_env_common12vmcaller_envs_0pEpNtNtB7_3env3Env8i256_addB7_
FN:179,_RNvXININtCsdmZoVYnqinT_18soroban_env_common12vmcaller_envs_0pEpNtNtB7_3env3Env7map_getB7_
FN:179,_RNvXININtCsdmZoVYnqinT_18soroban_env_common12vmcaller_envs_0pEpNtNtB7_3env3Env7map_newB7_
FN:179,_RNvXININtCsdmZoVYnqinT_18soroban_env_common12vmcaller_envs_0pEpNtNtB7_3env3Env28bytes_new_from_linear_memoryB7_
FN:179,_RNvXININtCsdmZoVYnqinT_18soroban_env_common12vmcaller_envs_0pEpNtNtB7_3env3Env9bytes_getB7_
FN:179,_RNvXININtCsdmZoVYnqinT_18soroban_env_common12vmcaller_envs_0pEpNtNtB7_3env3Env10bytes_pushB7_
FN:44,_RNvMNtCsdmZoVYnqinT_18soroban_env_common12vmcaller_envINtB2_8VmCallerpE7try_mutB4_
FN:179,_RNvXININtCsdmZoVYnqinT_18soroban_env_common12vmcaller_envs_0pEpNtNtB7_3env3Env10obj_to_u64B7_
FN:179,_RNvXININtCsdmZoVYnqinT_18soroban_env_common12vmcaller_envs_0pEpNtNtB7_3env3Env20obj_from_u128_piecesB7_
FN:179,_RNvXININtCsdmZoVYnqinT_18soroban_env_common12vmcaller_envs_0pEpNtNtB7_3env3Env9bytes_newB7_
FN:179,_RNvXININtCsdmZoVYnqinT_18soroban_env_common12vmcaller_envs_0pEpNtNtB7_3env3Env25get_max_live_until_ledgerB7_
FN:179,_RNvXININtCsdmZoVYnqinT_18soroban_env_common12vmcaller_envs_0pEpNtNtB7_3env3Env14map_key_by_posB7_
FN:179,_RNvXININtCsdmZoVYnqinT_18soroban_env_common12vmcaller_envs_0pEpNtNtB7_3env3Env10map_valuesB7_
FN:179,_RNvXININtCsdmZoVYnqinT_18soroban_env_common12vmcaller_envs_0pEpNtNtB7_3env3Env10bytes_backB7_
FN:179,_RNvXININtCsdmZoVYnqinT_18soroban_env_common12vmcaller_envs_0pEpNtNtB7_3env3Env11bytes_sliceB7_
FN:179,_RNvXININtCsdmZoVYnqinT_18soroban_env_common12vmcaller_envs_0pEpNtNtB7_3env3Env29string_new_from_linear_memoryB7_
FN:179,_RNvXININtCsdmZoVYnqinT_18soroban_env_common12vmcaller_envs_0pEpNtNtB7_3env3Env20obj_from_i128_piecesB7_
FN:179,_RNvXININtCsdmZoVYnqinT_18soroban_env_common12vmcaller_envs_0pEpNtNtB7_3env3Env17address_to_strkeyB7_
FN:179,_RNvXININtCsdmZoVYnqinT_18soroban_env_common12vmcaller_envs_0pEpNtNtB7_3env3Env10symbol_lenB7_
FN:179,_RNvXININtCsdmZoVYnqinT_18soroban_env_common12vmcaller_envs_0pEpNtNtB7_3env3Env11prng_reseedB7_
FN:179,_RNvXININtCsdmZoVYnqinT_18soroban_env_common12vmcaller_envs_0pEpNtNtB7_3env3Env20obj_from_u256_piecesB7_
FN:179,_RNvXININtCsdmZoVYnqinT_18soroban_env_common12vmcaller_envs_0pEpNtNtB7_3env3Env17obj_to_i256_lo_hiB7_
FN:179,_RNvXININtCsdmZoVYnqinT_18soroban_env_common12vmcaller_envs_0pEpNtNtB7_3env3Env8u256_subB7_
FN:179,_RNvXININtCsdmZoVYnqinT_18soroban_env_common12vmcaller_envs_0pEpNtNtB7_3env3Env17put_contract_dataB7_
FN:179,_RNvXININtCsdmZoVYnqinT_18soroban_env_common12vmcaller_envs_0pEpNtNtB7_3env3Env8u256_shrB7_
FN:179,_RNvXININtCsdmZoVYnqinT_18soroban_env_common12vmcaller_envs_0pEpNtNtB7_3env3Env21get_asset_contract_idB7_
FN:179,_RNvXININtCsdmZoVYnqinT_18soroban_env_common12vmcaller_envs_0pEpNtNtB7_3env3Env9bytes_lenB7_
FN:179,_RNvXININtCsdmZoVYnqinT_18soroban_env_common12vmcaller_envs_0pEpNtNtB7_3env3Env18serialize_to_bytesB7_
FN:179,_RNvXININtCsdmZoVYnqinT_18soroban_env_common12vmcaller_envs_0pEpNtNtB7_3env3Env11bytes_frontB7_
FN:179,_RNvXININtCsdmZoVYnqinT_18soroban_env_common12vmcaller_envs_0pEpNtNtB7_3env3Env4callB7_
FN:179,_RNvXININtCsdmZoVYnqinT_18soroban_env_common12vmcaller_envs_0pEpNtNtB7_3env3Env10obj_to_i64B7_
FN:179,_RNvXININtCsdmZoVYnqinT_18soroban_env_common12vmcaller_envs_0pEpNtNtB7_3env3Env14contract_eventB7_
FN:179,_RNvXININtCsdmZoVYnqinT_18soroban_env_common12vmcaller_envs_0pEpNtNtB7_3env3Env7map_putB7_
FN:179,_RNvXININtCsdmZoVYnqinT_18soroban_env_common12vmcaller_envs_0pEpNtNtB7_3env3Env7map_lenB7_
FN:179,_RNvXININtCsdmZoVYnqinT_18soroban_env_common12vmcaller_envs_0pEpNtNtB7_3env3Env7vec_lenB7_
FN:179,_RNvXININtCsdmZoVYnqinT_18soroban_env_common12vmcaller_envs_0pEpNtNtB7_3env3Env29symbol_new_from_linear_memoryB7_
FN:179,_RNvXININtCsdmZoVYnqinT_18soroban_env_common12vmcaller_envs_0pEpNtNtB7_3env3Env29symbol_index_in_linear_memoryB7_
FN:179,_RNvXININtCsdmZoVYnqinT_18soroban_env_common12vmcaller_envs_0pEpNtNtB7_3env3Env22compute_hash_keccak256B7_
FN:179,_RNvXININtCsdmZoVYnqinT_18soroban_env_common12vmcaller_envs_0pEpNtNtB7_3env3Env20obj_from_i256_piecesB7_
FN:179,_RNvXININtCsdmZoVYnqinT_18soroban_env_common12vmcaller_envs_0pEpNtNtB7_3env3Env17obj_to_i256_hi_hiB7_
FN:179,_RNvXININtCsdmZoVYnqinT_18soroban_env_common12vmcaller_envs_0pEpNtNtB7_3env3Env10string_lenB7_
FN:179,_RNvXININtCsdmZoVYnqinT_18soroban_env_common12vmcaller_envs_0pEpNtNtB7_3env3Env8vec_backB7_
FN:179,_RNvXININtCsdmZoVYnqinT_18soroban_env_common12vmcaller_envs_0pEpNtNtB7_3env3Env9vec_sliceB7_
FN:179,_RNvXININtCsdmZoVYnqinT_18soroban_env_common12vmcaller_envs_0pEpNtNtB7_3env3Env12require_authB7_
FN:179,_RNvXININtCsdmZoVYnqinT_18soroban_env_common12vmcaller_envs_0pEpNtNtB7_3env3Env26authorize_as_curr_contractB7_
FN:179,_RNvXININtCsdmZoVYnqinT_18soroban_env_common12vmcaller_envs_0pEpNtNtB7_3env3Env17obj_to_i256_lo_loB7_
FN:179,_RNvXININtCsdmZoVYnqinT_18soroban_env_common12vmcaller_envs_0pEpNtNtB7_3env3Env8i256_divB7_
FN:179,_RNvXININtCsdmZoVYnqinT_18soroban_env_common12vmcaller_envs_0pEpNtNtB7_3env3Env8u256_mulB7_
FN:179,_RNvXININtCsdmZoVYnqinT_18soroban_env_common12vmcaller_envs_0pEpNtNtB7_3env3Env8i256_shlB7_
FN:179,_RNvXININtCsdmZoVYnqinT_18soroban_env_common12vmcaller_envs_0pEpNtNtB7_3env3Env20timepoint_obj_to_u64B7_
FN:179,_RNvXININtCsdmZoVYnqinT_18soroban_env_common12vmcaller_envs_0pEpNtNtB7_3env3Env22deserialize_from_bytesB7_
FN:179,_RNvXININtCsdmZoVYnqinT_18soroban_env_common12vmcaller_envs_0pEpNtNtB7_3env3Env20get_ledger_timestampB7_
FN:179,_RNvXININtCsdmZoVYnqinT_18soroban_env_common12vmcaller_envs_0pEpNtNtB7_3env3Env28get_current_contract_addressB7_
FN:179,_RNvXININtCsdmZoVYnqinT_18soroban_env_common12vmcaller_envs_0pEpNtNtB7_3env3Env15fail_with_errorB7_
FN:179,_RNvXININtCsdmZoVYnqinT_18soroban_env_common12vmcaller_envs_0pEpNtNtB7_3env3Env7map_delB7_
FN:179,_RNvXININtCsdmZoVYnqinT_18soroban_env_common12vmcaller_envs_0pEpNtNtB7_3env3Env18verify_sig_ed25519B7_
FN:179,_RNvXININtCsdmZoVYnqinT_18soroban_env_common12vmcaller_envs_0pEpNtNtB7_3env3Env21require_auth_for_argsB7_
FN:179,_RNvXININtCsdmZoVYnqinT_18soroban_env_common12vmcaller_envs_0pEpNtNtB7_3env3Env12bytes_insertB7_
FN:179,_RNvXININtCsdmZoVYnqinT_18soroban_env_common12vmcaller_envs_0pEpNtNtB7_3env3Env20i256_val_to_be_bytesB7_
FNDA:0,_RNvXs_NtCsdmZoVYnqinT_18soroban_env_common12vmcaller_envNtNtCs8j26R3SUG40_16soroban_env_host4host4HostNtNtB6_3env3Env12require_authBW_
FNDA:0,_RNvXs_NtCsdmZoVYnqinT_18soroban_env_common12vmcaller_envNtNtCs8j26R3SUG40_16soroban_env_host4host4HostNtNtB6_3env3Env17obj_to_i256_lo_loBW_
FNDA:0,_RNvXs_NtCsdmZoVYnqinT_18soroban_env_common12vmcaller_envNtNtCs8j26R3SUG40_16soroban_env_host4host4HostNtNtB6_3env3Env17get_contract_dataBW_
FNDA:0,_RNvXs_NtCsdmZoVYnqinT_18soroban_env_common12vmcaller_envNtNtCs8j26R3SUG40_16soroban_env_host4host4HostNtNtB6_3env3Env16obj_to_i128_lo64BW_
FNDA:0,_RNvXs_NtCsdmZoVYnqinT_18soroban_env_common12vmcaller_envNtNtCs8j26R3SUG40_16soroban_env_host4host4HostNtNtB6_3env3Env7vec_lenBW_
FNDA:0,_RNvXs_NtCsdmZoVYnqinT_18soroban_env_common12vmcaller_envNtNtCs8j26R3SUG40_16soroban_env_host4host4HostNtNtB6_3env3Env13vec_push_backBW_
FNDA:0,_RNvXs_NtCsdmZoVYnqinT_18soroban_env_common12vmcaller_envNtNtCs8j26R3SUG40_16soroban_env_host4host4HostNtNtB6_3env3Env9bytes_lenBW_
FNDA:2168,_RNvXs_NtCsdmZoVYnqinT_18soroban_env_common12vmcaller_envNtNtCs8j26R3SUG40_16soroban_env_host4host4HostNtNtB6_3env3Env7obj_cmpBW_
FNDA:32,_RNvXs_NtCsdmZoVYnqinT_18soroban_env_common12vmcaller_envNtNtCs8j26R3SUG40_16soroban_env_host4host4HostNtNtB6_3env3Env19get_ledger_sequenceBW_
FNDA:0,_RNvXs_NtCsdmZoVYnqinT_18soroban_env_common12vmcaller_envNtNtCs8j26R3SUG40_16soroban_env_host4host4HostNtNtB6_3env3Env14contract_eventBW_
FNDA:0,_RNvXs_NtCsdmZoVYnqinT_18soroban_env_common12vmcaller_envNtNtCs8j26R3SUG40_16soroban_env_host4host4HostNtNtB6_3env3Env17obj_to_u256_lo_loBW_
FNDA:0,_RNvXs_NtCsdmZoVYnqinT_18soroban_env_common12vmcaller_envNtNtCs8j26R3SUG40_16soroban_env_host4host4HostNtNtB6_3env3Env24extend_contract_data_ttlBW_
FNDA:0,_RNvXs_NtCsdmZoVYnqinT_18soroban_env_common12vmcaller_envNtNtCs8j26R3SUG40_16soroban_env_host4host4HostNtNtB6_3env3Env17obj_to_u256_hi_loBW_
FNDA:0,_RNvXs_NtCsdmZoVYnqinT_18soroban_env_common12vmcaller_envNtNtCs8j26R3SUG40_16soroban_env_host4host4HostNtNtB6_3env3Env7vec_newBW_
FNDA:0,_RNvXs_NtCsdmZoVYnqinT_18soroban_env_common12vmcaller_envNtNtCs8j26R3SUG40_16soroban_env_host4host4HostNtNtB6_3env3Env10string_lenBW_
FNDA:273,_RNvXs_NtCsdmZoVYnqinT_18soroban_env_common12vmcaller_envNtNtCs8j26R3SUG40_16soroban_env_host4host4HostNtNtB6_3env3Env17put_contract_dataBW_
FNDA:3470,_RNvMNtCsdmZoVYnqinT_18soroban_env_common12vmcaller_envINtB2_8VmCallerNtNtCs8j26R3SUG40_16soroban_env_host4host4HostE7try_mutB19_
FNDA:2172,_RNvXs_NtCsdmZoVYnqinT_18soroban_env_common12vmcaller_envNtNtCs8j26R3SUG40_16soroban_env_host4host4HostNtNtB6_3env3Env21get_ledger_network_idBW_
FNDA:0,_RNvXs_NtCsdmZoVYnqinT_18soroban_env_common12vmcaller_envNtNtCs8j26R3SUG40_16soroban_env_host4host4HostNtNtB6_3env3Env16obj_to_i128_hi64BW_
FNDA:0,_RNvXs_NtCsdmZoVYnqinT_18soroban_env_common12vmcaller_envNtNtCs8j26R3SUG40_16soroban_env_host4host4HostNtNtB6_3env3Env17obj_to_i256_hi_loBW_
FNDA:0,_RNvXs_NtCsdmZoVYnqinT_18soroban_env_common12vmcaller_envNtNtCs8j26R3SUG40_16soroban_env_host4host4HostNtNtB6_3env3Env17has_contract_dataBW_
FNDA:2156,_RNvXs_NtCsdmZoVYnqinT_18soroban_env_common12vmcaller_envNtNtCs8j26R3SUG40_16soroban_env_host4host4HostNtNtB6_3env3Env15create_contractBW_
FNDA:0,_RNvXs_NtCsdmZoVYnqinT_18soroban_env_common12vmcaller_envNtNtCs8j26R3SUG40_16soroban_env_host4host4HostNtNtB6_3env3Env18verify_sig_ed25519BW_
FNDA:0,_RNvXs_NtCsdmZoVYnqinT_18soroban_env_common12vmcaller_envNtNtCs8j26R3SUG40_16soroban_env_host4host4HostNtNtB6_3env3Env20obj_from_i128_piecesBW_
FNDA:0,_RNvXs_NtCsdmZoVYnqinT_18soroban_env_common12vmcaller_envNtNtCs8j26R3SUG40_16soroban_env_host4host4HostNtNtB6_3env3Env20obj_from_u256_piecesBW_
FNDA:0,_RNvXs_NtCsdmZoVYnqinT_18soroban_env_common12vmcaller_envNtNtCs8j26R3SUG40_16soroban_env_host4host4HostNtNtB6_3env3Env20obj_from_i256_piecesBW_
FNDA:0,_RNvXs_NtCsdmZoVYnqinT_18soroban_env_common12vmcaller_envNtNtCs8j26R3SUG40_16soroban_env_host4host4HostNtNtB6_3env3Env17obj_to_i256_hi_hiBW_
FNDA:8957,_RNvMNtCsdmZoVYnqinT_18soroban_env_common12vmcaller_envINtB2_8VmCallerNtNtCs8j26R3SUG40_16soroban_env_host4host4HostE4noneB19_
FNDA:0,_RNvXs_NtCsdmZoVYnqinT_18soroban_env_common12vmcaller_envNtNtCs8j26R3SUG40_16soroban_env_host4host4HostNtNtB6_3env3Env12obj_from_i64BW_
FNDA:2156,_RNvXs_NtCsdmZoVYnqinT_18soroban_env_common12vmcaller_envNtNtCs8j26R3SUG40_16soroban_env_host4host4HostNtNtB6_3env3Env11upload_wasmBW_
FNDA:0,_RNvXs_NtCsdmZoVYnqinT_18soroban_env_common12vmcaller_envNtNtCs8j26R3SUG40_16soroban_env_host4host4HostNtNtB6_3env3Env45extend_current_contract_instance_and_code_ttlBW_
FNDA:0,_RNvXs_NtCsdmZoVYnqinT_18soroban_env_common12vmcaller_envNtNtCs8j26R3SUG40_16soroban_env_host4host4HostNtNtB6_3env3Env12obj_from_u64BW_
FNDA:0,_RNvXs_NtCsdmZoVYnqinT_18soroban_env_common12vmcaller_envNtNtCs8j26R3SUG40_16soroban_env_host4host4HostNtNtB6_3env3Env17obj_to_u256_lo_hiBW_
FNDA:0,_RNvXs_NtCsdmZoVYnqinT_18soroban_env_common12vmcaller_envNtNtCs8j26R3SUG40_16soroban_env_host4host4HostNtNtB6_3env3Env7vec_getBW_
FNDA:0,_RNvXs_NtCsdmZoVYnqinT_18soroban_env_common12vmcaller_envNtNtCs8j26R3SUG40_16soroban_env_host4host4HostNtNtB6_3env3Env17obj_to_i256_lo_hiBW_
FNDA:0,_RNvXs_NtCsdmZoVYnqinT_18soroban_env_common12vmcaller_envNtNtCs8j26R3SUG40_16soroban_env_host4host4HostNtNtB6_3env3Env17obj_to_u256_hi_hiBW_
FNDA:0,_RNvXs_NtCsdmZoVYnqinT_18soroban_env_common12vmcaller_envNtNtCs8j26R3SUG40_16soroban_env_host4host4HostNtNtB6_3env3Env10symbol_lenBW_
FNDA:0,_RNvXININtCsdmZoVYnqinT_18soroban_env_common12vmcaller_envs_0pEpNtNtB7_3env3Env16obj_to_i128_lo64B7_
FNDA:0,_RNvXININtCsdmZoVYnqinT_18soroban_env_common12vmcaller_envs_0pEpNtNtB7_3env3Env14vec_push_frontB7_
FNDA:0,_RNvXININtCsdmZoVYnqinT_18soroban_env_common12vmcaller_envs_0pEpNtNtB7_3env3Env12vec_pop_backB7_
FNDA:0,_RNvXININtCsdmZoVYnqinT_18soroban_env_common12vmcaller_envs_0pEpNtNtB7_3env3Env17has_contract_dataB7_
FNDA:0,_RNvXININtCsdmZoVYnqinT_18soroban_env_common12vmcaller_envs_0pEpNtNtB7_3env3Env27prng_u64_in_inclusive_rangeB7_
FNDA:0,_RNvXININtCsdmZoVYnqinT_18soroban_env_common12vmcaller_envs_0pEpNtNtB7_3env3Env8i256_subB7_
FNDA:0,_RNvXININtCsdmZoVYnqinT_18soroban_env_common12vmcaller_envs_0pEpNtNtB7_3env3Env15i256_rem_euclidB7_
FNDA:0,_RNvXININtCsdmZoVYnqinT_18soroban_env_common12vmcaller_envs_0pEpNtNtB7_3env3Env16prng_vec_shuffleB7_
FNDA:0,_RNvXININtCsdmZoVYnqinT_18soroban_env_common12vmcaller_envs_0pEpNtNtB7_3env3Env28update_current_contract_wasmB7_
FNDA:0,_RNvXININtCsdmZoVYnqinT_18soroban_env_common12vmcaller_envs_0pEpNtNtB7_3env3Env37extend_contract_instance_and_code_ttlB7_
FNDA:0,_RNvXININtCsdmZoVYnqinT_18soroban_env_common12vmcaller_envs_0pEpNtNtB7_3env3Env8i256_shrB7_
FNDA:0,_RNvXININtCsdmZoVYnqinT_18soroban_env_common12vmcaller_envs_0pEpNtNtB7_3env3Env14map_val_by_posB7_
FNDA:0,_RNvXININtCsdmZoVYnqinT_18soroban_env_common12vmcaller_envs_0pEpNtNtB7_3env3Env21duration_obj_from_u64B7_
FNDA:0,_RNvXININtCsdmZoVYnqinT_18soroban_env_common12vmcaller_envs_0pEpNtNtB7_3env3Env26map_new_from_linear_memoryB7_
FNDA:0,_RNvXININtCsdmZoVYnqinT_18soroban_env_common12vmcaller_envs_0pEpNtNtB7_3env3Env22timepoint_obj_from_u64B7_
FNDA:0,_RNvXININtCsdmZoVYnqinT_18soroban_env_common12vmcaller_envs_0pEpNtNtB7_3env3Env7vec_putB7_
FNDA:0,_RNvXININtCsdmZoVYnqinT_18soroban_env_common12vmcaller_envs_0pEpNtNtB7_3env3Env28string_copy_to_linear_memoryB7_
FNDA:0,_RNvXININtCsdmZoVYnqinT_18soroban_env_common12vmcaller_envs_0pEpNtNtB7_3env3Env22u256_val_from_be_bytesB7_
FNDA:0,_RNvXININtCsdmZoVYnqinT_18soroban_env_common12vmcaller_envs_0pEpNtNtB7_3env3Env21get_ledger_network_idB7_
FNDA:0,_RNvXININtCsdmZoVYnqinT_18soroban_env_common12vmcaller_envs_0pEpNtNtB7_3env3Env17obj_to_u256_hi_loB7_
FNDA:0,_RNvXININtCsdmZoVYnqinT_18soroban_env_common12vmcaller_envs_0pEpNtNtB7_3env3Env12obj_from_u64B7_
FNDA:0,_RNvXININtCsdmZoVYnqinT_18soroban_env_common12vmcaller_envs_0pEpNtNtB7_3env3Env20u256_val_to_be_bytesB7_
FNDA:0,_RNvXININtCsdmZoVYnqinT_18soroban_env_common12vmcaller_envs_0pEpNtNtB7_3env3Env13vec_pop_frontB7_
FNDA:0,_RNvXININtCsdmZoVYnqinT_18soroban_env_common12vmcaller_envs_0pEpNtNtB7_3env3Env13vec_push_backB7_
FNDA:0,_RNvXININtCsdmZoVYnqinT_18soroban_env_common12vmcaller_envs_0pEpNtNtB7_3env3Env17strkey_to_addressB7_
FNDA:0,_RNvXININtCsdmZoVYnqinT_18soroban_env_common12vmcaller_envs_0pEpNtNtB7_3env3Env22i256_val_from_be_bytesB7_
FNDA:0,_RNvXININtCsdmZoVYnqinT_18soroban_env_common12vmcaller_envs_0pEpNtNtB7_3env3Env8u256_addB7_
FNDA:0,_RNvXININtCsdmZoVYnqinT_18soroban_env_common12vmcaller_envs_0pEpNtNtB7_3env3Env17get_contract_dataB7_
FNDA:0,_RNvXININtCsdmZoVYnqinT_18soroban_env_common12vmcaller_envs_0pEpNtNtB7_3env3Env21create_asset_contractB7_
FNDA:0,_RNvXININtCsdmZoVYnqinT_18soroban_env_common12vmcaller_envs_0pEpNtNtB7_3env3Env27bytes_copy_to_linear_memoryB7_
FNDA:0,_RNvXININtCsdmZoVYnqinT_18soroban_env_common12vmcaller_envs_0pEpNtNtB7_3env3Env22log_from_linear_memoryB7_
FNDA:0,_RNvXININtCsdmZoVYnqinT_18soroban_env_common12vmcaller_envs_0pEpNtNtB7_3env3Env18get_ledger_versionB7_
FNDA:0,_RNvMNtCsdmZoVYnqinT_18soroban_env_common12vmcaller_envINtB2_8VmCallerpE4noneB4_
FNDA:0,_RNvXININtCsdmZoVYnqinT_18soroban_env_common12vmcaller_envs_0pEpNtNtB7_3env3Env7map_hasB7_
FNDA:0,_RNvXININtCsdmZoVYnqinT_18soroban_env_common12vmcaller_envs_0pEpNtNtB7_3env3Env8map_keysB7_
FNDA:0,_RNvXININtCsdmZoVYnqinT_18soroban_env_common12vmcaller_envs_0pEpNtNtB7_3env3Env9bytes_delB7_
FNDA:0,_RNvXININtCsdmZoVYnqinT_18soroban_env_common12vmcaller_envs_0pEpNtNtB7_3env3Env9bytes_popB7_
FNDA:0,_RNvMNtCsdmZoVYnqinT_18soroban_env_common12vmcaller_envINtB2_8VmCallerpE7try_refB4_
FNDA:0,_RNvXININtCsdmZoVYnqinT_18soroban_env_common12vmcaller_envs_0pEpNtNtB7_3env3Env12obj_from_i64B7_
FNDA:0,_RNvXININtCsdmZoVYnqinT_18soroban_env_common12vmcaller_envs_0pEpNtNtB7_3env3Env16obj_to_u128_lo64B7_
FNDA:0,_RNvXININtCsdmZoVYnqinT_18soroban_env_common12vmcaller_envs_0pEpNtNtB7_3env3Env27map_unpack_to_linear_memoryB7_
FNDA:0,_RNvXININtCsdmZoVYnqinT_18soroban_env_common12vmcaller_envs_0pEpNtNtB7_3env3Env10vec_insertB7_
FNDA:0,_RNvXININtCsdmZoVYnqinT_18soroban_env_common12vmcaller_envs_0pEpNtNtB7_3env3Env7vec_getB7_
FNDA:0,_RNvXININtCsdmZoVYnqinT_18soroban_env_common12vmcaller_envs_0pEpNtNtB7_3env3Env18vec_first_index_ofB7_
FNDA:0,_RNvXININtCsdmZoVYnqinT_18soroban_env_common12vmcaller_envs_0pEpNtNtB7_3env3Env7vec_newB7_
FNDA:0,_RNvXININtCsdmZoVYnqinT_18soroban_env_common12vmcaller_envs_0pEpNtNtB7_3env3Env26vec_new_from_linear_memoryB7_
FNDA:0,_RNvXININtCsdmZoVYnqinT_18soroban_env_common12vmcaller_envs_0pEpNtNtB7_3env3Env6dummy0B7_
FNDA:0,_RNvXININtCsdmZoVYnqinT_18soroban_env_common12vmcaller_envs_0pEpNtNtB7_3env3Env8u256_divB7_
FNDA:0,_RNvXININtCsdmZoVYnqinT_18soroban_env_common12vmcaller_envs_0pEpNtNtB7_3env3Env17obj_to_u256_hi_hiB7_
FNDA:0,_RNvXININtCsdmZoVYnqinT_18soroban_env_common12vmcaller_envs_0pEpNtNtB7_3env3Env8u256_shlB7_
FNDA:0,_RNvXININtCsdmZoVYnqinT_18soroban_env_common12vmcaller_envs_0pEpNtNtB7_3env3Env17obj_to_u256_lo_loB7_
FNDA:0,_RNvXININtCsdmZoVYnqinT_18soroban_env_common12vmcaller_envs_0pEpNtNtB7_3env3Env15u256_rem_euclidB7_
FNDA:0,_RNvXININtCsdmZoVYnqinT_18soroban_env_common12vmcaller_envs_0pEpNtNtB7_3env3Env17del_contract_dataB7_
FNDA:0,_RNvXININtCsdmZoVYnqinT_18soroban_env_common12vmcaller_envs_0pEpNtNtB7_3env3Env11upload_wasmB7_
FNDA:0,_RNvXININtCsdmZoVYnqinT_18soroban_env_common12vmcaller_envs_0pEpNtNtB7_3env3Env45extend_current_contract_instance_and_code_ttlB7_
FNDA:0,_RNvXININtCsdmZoVYnqinT_18soroban_env_common12vmcaller_envs_0pEpNtNtB7_3env3Env15create_contractB7_
FNDA:0,_RNvXININtCsdmZoVYnqinT_18soroban_env_common12vmcaller_envs_0pEpNtNtB7_3env3Env8i256_mulB7_
FNDA:0,_RNvXININtCsdmZoVYnqinT_18soroban_env_common12vmcaller_envs_0pEpNtNtB7_3env3Env8i256_powB7_
FNDA:0,_RNvXININtCsdmZoVYnqinT_18soroban_env_common12vmcaller_envs_0pEpNtNtB7_3env3Env7obj_cmpB7_
FNDA:0,_RNvXININtCsdmZoVYnqinT_18soroban_env_common12vmcaller_envs_0pEpNtNtB7_3env3Env19get_ledger_sequenceB7_
FNDA:0,_RNvXININtCsdmZoVYnqinT_18soroban_env_common12vmcaller_envs_0pEpNtNtB7_3env3Env16obj_to_u128_hi64B7_
FNDA:0,_RNvXININtCsdmZoVYnqinT_18soroban_env_common12vmcaller_envs_0pEpNtNtB7_3env3Env16obj_to_i128_hi64B7_
FNDA:0,_RNvXININtCsdmZoVYnqinT_18soroban_env_common12vmcaller_envs_0pEpNtNtB7_3env3Env7vec_delB7_
FNDA:0,_RNvXININtCsdmZoVYnqinT_18soroban_env_common12vmcaller_envs_0pEpNtNtB7_3env3Env9bytes_putB7_
FNDA:0,_RNvXININtCsdmZoVYnqinT_18soroban_env_common12vmcaller_envs_0pEpNtNtB7_3env3Env28symbol_copy_to_linear_memoryB7_
FNDA:0,_RNvXININtCsdmZoVYnqinT_18soroban_env_common12vmcaller_envs_0pEpNtNtB7_3env3Env29bytes_copy_from_linear_memoryB7_
FNDA:0,_RNvXININtCsdmZoVYnqinT_18soroban_env_common12vmcaller_envs_0pEpNtNtB7_3env3Env12bytes_appendB7_
FNDA:0,_RNvXININtCsdmZoVYnqinT_18soroban_env_common12vmcaller_envs_0pEpNtNtB7_3env3Env9vec_frontB7_
FNDA:0,_RNvXININtCsdmZoVYnqinT_18soroban_env_common12vmcaller_envs_0pEpNtNtB7_3env3Env10vec_appendB7_
FNDA:0,_RNvXININtCsdmZoVYnqinT_18soroban_env_common12vmcaller_envs_0pEpNtNtB7_3env3Env19compute_hash_sha256B7_
FNDA:0,_RNvXININtCsdmZoVYnqinT_18soroban_env_common12vmcaller_envs_0pEpNtNtB7_3env3Env27recover_key_ecdsa_secp256k1B7_
FNDA:0,_RNvXININtCsdmZoVYnqinT_18soroban_env_common12vmcaller_envs_0pEpNtNtB7_3env3Env17obj_to_u256_lo_hiB7_
FNDA:0,_RNvXININtCsdmZoVYnqinT_18soroban_env_common12vmcaller_envs_0pEpNtNtB7_3env3Env17obj_to_i256_hi_loB7_
FNDA:0,_RNvXININtCsdmZoVYnqinT_18soroban_env_common12vmcaller_envs_0pEpNtNtB7_3env3Env17vec_last_index_ofB7_
FNDA:0,_RNvXININtCsdmZoVYnqinT_18soroban_env_common12vmcaller_envs_0pEpNtNtB7_3env3Env24extend_contract_data_ttlB7_
FNDA:0,_RNvXININtCsdmZoVYnqinT_18soroban_env_common12vmcaller_envs_0pEpNtNtB7_3env3Env27vec_unpack_to_linear_memoryB7_
FNDA:0,_RNvXININtCsdmZoVYnqinT_18soroban_env_common12vmcaller_envs_0pEpNtNtB7_3env3Env15get_contract_idB7_
FNDA:0,_RNvXININtCsdmZoVYnqinT_18soroban_env_common12vmcaller_envs_0pEpNtNtB7_3env3Env17vec_binary_searchB7_
FNDA:0,_RNvXININtCsdmZoVYnqinT_18soroban_env_common12vmcaller_envs_0pEpNtNtB7_3env3Env8try_callB7_
FNDA:0,_RNvXININtCsdmZoVYnqinT_18soroban_env_common12vmcaller_envs_0pEpNtNtB7_3env3Env14prng_bytes_newB7_
FNDA:0,_RNvXININtCsdmZoVYnqinT_18soroban_env_common12vmcaller_envs_0pEpNtNtB7_3env3Env8u256_powB7_
FNDA:0,_RNvXININtCsdmZoVYnqinT_18soroban_env_common12vmcaller_envs_0pEpNtNtB7_3env3Env19duration_obj_to_u64B7_
FNDA:0,_RNvXININtCsdmZoVYnqinT_18soroban_env_common12vmcaller_envs_0pEpNtNtB7_3env3Env8i256_addB7_
FNDA:0,_RNvXININtCsdmZoVYnqinT_18soroban_env_common12vmcaller_envs_0pEpNtNtB7_3env3Env7map_getB7_
FNDA:0,_RNvXININtCsdmZoVYnqinT_18soroban_env_common12vmcaller_envs_0pEpNtNtB7_3env3Env7map_newB7_
FNDA:0,_RNvXININtCsdmZoVYnqinT_18soroban_env_common12vmcaller_envs_0pEpNtNtB7_3env3Env28bytes_new_from_linear_memoryB7_
FNDA:0,_RNvXININtCsdmZoVYnqinT_18soroban_env_common12vmcaller_envs_0pEpNtNtB7_3env3Env9bytes_getB7_
FNDA:0,_RNvXININtCsdmZoVYnqinT_18soroban_env_common12vmcaller_envs_0pEpNtNtB7_3env3Env10bytes_pushB7_
FNDA:0,_RNvMNtCsdmZoVYnqinT_18soroban_env_common12vmcaller_envINtB2_8VmCallerpE7try_mutB4_
FNDA:0,_RNvXININtCsdmZoVYnqinT_18soroban_env_common12vmcaller_envs_0pEpNtNtB7_3env3Env10obj_to_u64B7_
FNDA:0,_RNvXININtCsdmZoVYnqinT_18soroban_env_common12vmcaller_envs_0pEpNtNtB7_3env3Env20obj_from_u128_piecesB7_
FNDA:0,_RNvXININtCsdmZoVYnqinT_18soroban_env_common12vmcaller_envs_0pEpNtNtB7_3env3Env9bytes_newB7_
FNDA:0,_RNvXININtCsdmZoVYnqinT_18soroban_env_common12vmcaller_envs_0pEpNtNtB7_3env3Env25get_max_live_until_ledgerB7_
FNDA:0,_RNvXININtCsdmZoVYnqinT_18soroban_env_common12vmcaller_envs_0pEpNtNtB7_3env3Env14map_key_by_posB7_
FNDA:0,_RNvXININtCsdmZoVYnqinT_18soroban_env_common12vmcaller_envs_0pEpNtNtB7_3env3Env10map_valuesB7_
FNDA:0,_RNvXININtCsdmZoVYnqinT_18soroban_env_common12vmcaller_envs_0pEpNtNtB7_3env3Env10bytes_backB7_
FNDA:0,_RNvXININtCsdmZoVYnqinT_18soroban_env_common12vmcaller_envs_0pEpNtNtB7_3env3Env11bytes_sliceB7_
FNDA:0,_RNvXININtCsdmZoVYnqinT_18soroban_env_common12vmcaller_envs_0pEpNtNtB7_3env3Env29string_new_from_linear_memoryB7_
FNDA:0,_RNvXININtCsdmZoVYnqinT_18soroban_env_common12vmcaller_envs_0pEpNtNtB7_3env3Env20obj_from_i128_piecesB7_
FNDA:0,_RNvXININtCsdmZoVYnqinT_18soroban_env_common12vmcaller_envs_0pEpNtNtB7_3env3Env17address_to_strkeyB7_
FNDA:0,_RNvXININtCsdmZoVYnqinT_18soroban_env_common12vmcaller_envs_0pEpNtNtB7_3env3Env10symbol_lenB7_
FNDA:0,_RNvXININtCsdmZoVYnqinT_18soroban_env_common12vmcaller_envs_0pEpNtNtB7_3env3Env11prng_reseedB7_
FNDA:0,_RNvXININtCsdmZoVYnqinT_18soroban_env_common12vmcaller_envs_0pEpNtNtB7_3env3Env20obj_from_u256_piecesB7_
FNDA:0,_RNvXININtCsdmZoVYnqinT_18soroban_env_common12vmcaller_envs_0pEpNtNtB7_3env3Env17obj_to_i256_lo_hiB7_
FNDA:0,_RNvXININtCsdmZoVYnqinT_18soroban_env_common12vmcaller_envs_0pEpNtNtB7_3env3Env8u256_subB7_
FNDA:0,_RNvXININtCsdmZoVYnqinT_18soroban_env_common12vmcaller_envs_0pEpNtNtB7_3env3Env17put_contract_dataB7_
FNDA:0,_RNvXININtCsdmZoVYnqinT_18soroban_env_common12vmcaller_envs_0pEpNtNtB7_3env3Env8u256_shrB7_
FNDA:0,_RNvXININtCsdmZoVYnqinT_18soroban_env_common12vmcaller_envs_0pEpNtNtB7_3env3Env21get_asset_contract_idB7_
FNDA:0,_RNvXININtCsdmZoVYnqinT_18soroban_env_common12vmcaller_envs_0pEpNtNtB7_3env3Env9bytes_lenB7_
FNDA:0,_RNvXININtCsdmZoVYnqinT_18soroban_env_common12vmcaller_envs_0pEpNtNtB7_3env3Env18serialize_to_bytesB7_
FNDA:0,_RNvXININtCsdmZoVYnqinT_18soroban_env_common12vmcaller_envs_0pEpNtNtB7_3env3Env11bytes_frontB7_
FNDA:0,_RNvXININtCsdmZoVYnqinT_18soroban_env_common12vmcaller_envs_0pEpNtNtB7_3env3Env4callB7_
FNDA:0,_RNvXININtCsdmZoVYnqinT_18soroban_env_common12vmcaller_envs_0pEpNtNtB7_3env3Env10obj_to_i64B7_
FNDA:0,_RNvXININtCsdmZoVYnqinT_18soroban_env_common12vmcaller_envs_0pEpNtNtB7_3env3Env14contract_eventB7_
FNDA:0,_RNvXININtCsdmZoVYnqinT_18soroban_env_common12vmcaller_envs_0pEpNtNtB7_3env3Env7map_putB7_
FNDA:0,_RNvXININtCsdmZoVYnqinT_18soroban_env_common12vmcaller_envs_0pEpNtNtB7_3env3Env7map_lenB7_
FNDA:0,_RNvXININtCsdmZoVYnqinT_18soroban_env_common12vmcaller_envs_0pEpNtNtB7_3env3Env7vec_lenB7_
FNDA:0,_RNvXININtCsdmZoVYnqinT_18soroban_env_common12vmcaller_envs_0pEpNtNtB7_3env3Env29symbol_new_from_linear_memoryB7_
FNDA:0,_RNvXININtCsdmZoVYnqinT_18soroban_env_common12vmcaller_envs_0pEpNtNtB7_3env3Env29symbol_index_in_linear_memoryB7_
FNDA:0,_RNvXININtCsdmZoVYnqinT_18soroban_env_common12vmcaller_envs_0pEpNtNtB7_3env3Env22compute_hash_keccak256B7_
FNDA:0,_RNvXININtCsdmZoVYnqinT_18soroban_env_common12vmcaller_envs_0pEpNtNtB7_3env3Env20obj_from_i256_piecesB7_
FNDA:0,_RNvXININtCsdmZoVYnqinT_18soroban_env_common12vmcaller_envs_0pEpNtNtB7_3env3Env17obj_to_i256_hi_hiB7_
FNDA:0,_RNvXININtCsdmZoVYnqinT_18soroban_env_common12vmcaller_envs_0pEpNtNtB7_3env3Env10string_lenB7_
FNDA:0,_RNvXININtCsdmZoVYnqinT_18soroban_env_common12vmcaller_envs_0pEpNtNtB7_3env3Env8vec_backB7_
FNDA:0,_RNvXININtCsdmZoVYnqinT_18soroban_env_common12vmcaller_envs_0pEpNtNtB7_3env3Env9vec_sliceB7_
FNDA:0,_RNvXININtCsdmZoVYnqinT_18soroban_env_common12vmcaller_envs_0pEpNtNtB7_3env3Env12require_authB7_
FNDA:0,_RNvXININtCsdmZoVYnqinT_18soroban_env_common12vmcaller_envs_0pEpNtNtB7_3env3Env26authorize_as_curr_contractB7_
FNDA:0,_RNvXININtCsdmZoVYnqinT_18soroban_env_common12vmcaller_envs_0pEpNtNtB7_3env3Env17obj_to_i256_lo_loB7_
FNDA:0,_RNvXININtCsdmZoVYnqinT_18soroban_env_common12vmcaller_envs_0pEpNtNtB7_3env3Env8i256_divB7_
FNDA:0,_RNvXININtCsdmZoVYnqinT_18soroban_env_common12vmcaller_envs_0pEpNtNtB7_3env3Env8u256_mulB7_
FNDA:0,_RNvXININtCsdmZoVYnqinT_18soroban_env_common12vmcaller_envs_0pEpNtNtB7_3env3Env8i256_shlB7_
FNDA:0,_RNvXININtCsdmZoVYnqinT_18soroban_env_common12vmcaller_envs_0pEpNtNtB7_3env3Env20timepoint_obj_to_u64B7_
FNDA:0,_RNvXININtCsdmZoVYnqinT_18soroban_env_common12vmcaller_envs_0pEpNtNtB7_3env3Env22deserialize_from_bytesB7_
FNDA:0,_RNvXININtCsdmZoVYnqinT_18soroban_env_common12vmcaller_envs_0pEpNtNtB7_3env3Env20get_ledger_timestampB7_
FNDA:0,_RNvXININtCsdmZoVYnqinT_18soroban_env_common12vmcaller_envs_0pEpNtNtB7_3env3Env28get_current_contract_addressB7_
FNDA:0,_RNvXININtCsdmZoVYnqinT_18soroban_env_common12vmcaller_envs_0pEpNtNtB7_3env3Env15fail_with_errorB7_
FNDA:0,_RNvXININtCsdmZoVYnqinT_18soroban_env_common12vmcaller_envs_0pEpNtNtB7_3env3Env7map_delB7_
FNDA:0,_RNvXININtCsdmZoVYnqinT_18soroban_env_common12vmcaller_envs_0pEpNtNtB7_3env3Env18verify_sig_ed25519B7_
FNDA:0,_RNvXININtCsdmZoVYnqinT_18soroban_env_common12vmcaller_envs_0pEpNtNtB7_3env3Env21require_auth_for_argsB7_
FNDA:0,_RNvXININtCsdmZoVYnqinT_18soroban_env_common12vmcaller_envs_0pEpNtNtB7_3env3Env12bytes_insertB7_
FNDA:0,_RNvXININtCsdmZoVYnqinT_18soroban_env_common12vmcaller_envs_0pEpNtNtB7_3env3Env20i256_val_to_be_bytesB7_
FNF:4
FNH:3
DA:32,8957
DA:33,8957
DA:34,8957
DA:35,0
DA:36,0
DA:37,0
DA:38,0
DA:39,0
DA:40,0
DA:41,0
DA:43,0
DA:44,3470
DA:45,3470
DA:46,3470
DA:47,0
DA:48,0
DA:49,0
DA:50,0
DA:52,3470
DA:179,8957
DA:180,8957
DA:181,8957
DA:182,8957
DA:183,8957
DA:184,8957
DA:186,6753
DA:187,8957
DA:188,8957
DA:189,0
DA:193,8957
DA:194,8957
DA:195,0
DA:197,8957
DA:199,8957
DA:200,8957
BRF:0
BRH:0
LF:35
LH:21
end_of_record
SF:/src/rs-soroban-env/soroban-env-common/src/wrapper_macros.rs
FN:272,_RNvXs1i_NtCsdmZoVYnqinT_18soroban_env_common6symbolNtB6_6SymbolNtNtCs7L5q00ejtpZ_4core5clone5Clone5cloneCs7fXtI9ZzZ9j_18soroban_synth_wasm
FN:214,_RNvXsI_NtCsdmZoVYnqinT_18soroban_env_common3valNtB5_4VoidNtNtCs7L5q00ejtpZ_4core5clone5Clone5cloneCs7fXtI9ZzZ9j_18soroban_synth_wasm
FN:50,_RNvXs3H_NtCsdmZoVYnqinT_18soroban_env_common3numNtB6_15TimepointObjectINtNtCs7L5q00ejtpZ_4core7convert7TryFromNtNtB8_3val3ValE8try_from
FN:246,_RNvMs10_NtCsdmZoVYnqinT_18soroban_env_common6symbolNtB6_12SymbolObject11from_handle
FN:214,_RNvXs6q_NtCsdmZoVYnqinT_18soroban_env_common3numNtB6_10I128ObjectNtNtCs7L5q00ejtpZ_4core5clone5Clone5cloneCs8j26R3SUG40_16soroban_env_host
FN:50,_RNvXs1u_NtCsdmZoVYnqinT_18soroban_env_common3numNtB6_8U64SmallINtNtCs7L5q00ejtpZ_4core7convert7TryFromNtNtB8_3val3ValE8try_from
FN:50,_RNvXsh_NtCsdmZoVYnqinT_18soroban_env_common6stringNtB5_12StringObjectINtNtCs7L5q00ejtpZ_4core7convert7TryFromNtNtB7_3val3ValE8try_from
FN:50,_RNvXs1N_NtCsdmZoVYnqinT_18soroban_env_common3numNtB6_9U64ObjectINtNtCs7L5q00ejtpZ_4core7convert7TryFromNtNtB8_3val3ValE8try_from
FN:214,_RNvXs4w_NtCsdmZoVYnqinT_18soroban_env_common3numNtB6_14DurationObjectNtNtCs7L5q00ejtpZ_4core5clone5Clone5cloneCs8j26R3SUG40_16soroban_env_host
FN:67,_RNvXs2j_NtCsdmZoVYnqinT_18soroban_env_common3valmINtNtB8_7convert10TryFromValNtNtCs8j26R3SUG40_16soroban_env_host4host4HostNtB6_3ValE12try_from_valB1h_
FN:246,_RNvMs3w_NtCsdmZoVYnqinT_18soroban_env_common3numNtB6_15TimepointObject11from_handle
FN:10,_RNvXs7z_NtCsdmZoVYnqinT_18soroban_env_common3numNtB6_10U256ObjectNtNtB8_3val10ValConvert11is_val_type
FN:10,_RNvXs22_NtCsdmZoVYnqinT_18soroban_env_common3valNtB6_13AddressObjectNtB6_10ValConvert11is_val_type
FN:50,_RNvXsS_NtCsdmZoVYnqinT_18soroban_env_common6symbolNtB5_11SymbolSmallINtNtCs7L5q00ejtpZ_4core7convert7TryFromNtNtB7_3val3ValE8try_from
FN:50,_RNvXs1b_NtCsdmZoVYnqinT_18soroban_env_common6symbolNtB6_12SymbolObjectINtNtCs7L5q00ejtpZ_4core7convert7TryFromNtNtB8_3val3ValE8try_from
FN:10,_RNvXsl_NtCsdmZoVYnqinT_18soroban_env_common6stringNtB5_12StringObjectNtNtB7_3val10ValConvert11is_val_type
FN:14,_RNvXs6C_NtCsdmZoVYnqinT_18soroban_env_common3numNtB6_10I128ObjectNtNtB8_3val10ValConvert18unchecked_from_val
FN:214,_RNvXs8k_NtCsdmZoVYnqinT_18soroban_env_common3numNtB6_10I256ObjectNtNtCs7L5q00ejtpZ_4core5clone5Clone5cloneCs8j26R3SUG40_16soroban_env_host
FN:50,_RNvXs6y_NtCsdmZoVYnqinT_18soroban_env_common3numNtB6_10I128ObjectINtNtCs7L5q00ejtpZ_4core7convert7TryFromNtNtB8_3val3ValE8try_from
FN:14,_RNvXsp_NtCsdmZoVYnqinT_18soroban_env_common5bytesNtB5_11BytesObjectNtNtB7_3val10ValConvert18unchecked_from_val
FN:14,_RNvXsS_NtCsdmZoVYnqinT_18soroban_env_common3numNtB5_6U32ValNtNtB7_3val10ValConvert18unchecked_from_val
FN:50,_RNvXs4E_NtCsdmZoVYnqinT_18soroban_env_common3numNtB6_14DurationObjectINtNtCs7L5q00ejtpZ_4core7convert7TryFromNtNtB8_3val3ValE8try_from
FN:335,_RNvXs71_NtCsdmZoVYnqinT_18soroban_env_common3numNtNtCs8j26R3SUG40_16soroban_env_host4host4HostINtNtB8_7compare7CompareNtB6_9U256SmallE7compareBO_
FN:246,_RNvMs1b_NtCsdmZoVYnqinT_18soroban_env_common3valNtB6_9VecObject11from_handle
FN:214,_RNvXsd_NtCsdmZoVYnqinT_18soroban_env_common5bytesNtB5_11BytesObjectNtNtCs7L5q00ejtpZ_4core5clone5Clone5cloneCs8j26R3SUG40_16soroban_env_host
FN:246,_RNvMs1u_NtCsdmZoVYnqinT_18soroban_env_common3valNtB6_9MapObject11from_handle
FN:357,_RNvXs40_NtCsdmZoVYnqinT_18soroban_env_common3numNtB6_13DurationSmallNtNtCs7L5q00ejtpZ_4core3cmp3Ord3cmp
FN:10,_RNvXs5m_NtCsdmZoVYnqinT_18soroban_env_common3numNtB6_9U128SmallNtNtB8_3val10ValConvert11is_val_type
FN:10,_RNvXs6C_NtCsdmZoVYnqinT_18soroban_env_common3numNtB6_10I128ObjectNtNtB8_3val10ValConvert11is_val_type
FN:14,_RNvXsW_NtCsdmZoVYnqinT_18soroban_env_common6symbolNtB5_11SymbolSmallNtNtB7_3val10ValConvert18unchecked_from_val
FN:50,_RNvXs8s_NtCsdmZoVYnqinT_18soroban_env_common3numNtB6_10I256ObjectINtNtCs7L5q00ejtpZ_4core7convert7TryFromNtNtB8_3val3ValE8try_from
FN:14,_RNvXs5F_NtCsdmZoVYnqinT_18soroban_env_common3numNtB6_10U128ObjectNtNtB8_3val10ValConvert18unchecked_from_val
FN:50,_RNvXs4l_NtCsdmZoVYnqinT_18soroban_env_common3numNtB6_13DurationSmallINtNtCs7L5q00ejtpZ_4core7convert7TryFromNtNtB8_3val3ValE8try_from
FN:14,_RNvXs3s_NtCsdmZoVYnqinT_18soroban_env_common3numNtB6_14TimepointSmallNtNtB8_3val10ValConvert18unchecked_from_val
FN:335,_RNvXs3d_NtCsdmZoVYnqinT_18soroban_env_common3numNtNtCs8j26R3SUG40_16soroban_env_host4host4HostINtNtB8_7compare7CompareNtB6_14TimepointSmallE7compareBO_
FN:50,_RNvXs2K_NtCsdmZoVYnqinT_18soroban_env_common3numNtB6_9I64ObjectINtNtCs7L5q00ejtpZ_4core7convert7TryFromNtNtB8_3val3ValE8try_from
FN:14,_RNvXs3L_NtCsdmZoVYnqinT_18soroban_env_common3numNtB6_15TimepointObjectNtNtB8_3val10ValConvert18unchecked_from_val
FN:10,_RNvXs8d_NtCsdmZoVYnqinT_18soroban_env_common3numNtB6_9I256SmallNtNtB8_3val10ValConvert11is_val_type
FN:214,_RNvXs5t_NtCsdmZoVYnqinT_18soroban_env_common3numNtB6_10U128ObjectNtNtCs7L5q00ejtpZ_4core5clone5Clone5cloneCs8j26R3SUG40_16soroban_env_host
FN:335,_RNvXs57_NtCsdmZoVYnqinT_18soroban_env_common3numNtNtCs8j26R3SUG40_16soroban_env_host4host4HostINtNtB8_7compare7CompareNtB6_9U128SmallE7compareBO_
FN:10,_RNvXs8w_NtCsdmZoVYnqinT_18soroban_env_common3numNtB6_10I256ObjectNtNtB8_3val10ValConvert11is_val_type
FN:14,_RNvXs7g_NtCsdmZoVYnqinT_18soroban_env_common3numNtB6_9U256SmallNtNtB8_3val10ValConvert18unchecked_from_val
FN:10,_RNvXsp_NtCsdmZoVYnqinT_18soroban_env_common5bytesNtB5_11BytesObjectNtNtB7_3val10ValConvert11is_val_type
FN:14,_RNvXs7z_NtCsdmZoVYnqinT_18soroban_env_common3numNtB6_10U256ObjectNtNtB8_3val10ValConvert18unchecked_from_val
FN:251,_RNvMs1N_NtCsdmZoVYnqinT_18soroban_env_common3valNtB6_13AddressObject10get_handle
FN:357,_RNvXs19_NtCsdmZoVYnqinT_18soroban_env_common3numNtB6_8U64SmallNtNtCs7L5q00ejtpZ_4core3cmp3Ord3cmp
FN:50,_RNvXs7v_NtCsdmZoVYnqinT_18soroban_env_common3numNtB6_10U256ObjectINtNtCs7L5q00ejtpZ_4core7convert7TryFromNtNtB8_3val3ValE8try_from
FN:10,_RNvXs2v_NtCsdmZoVYnqinT_18soroban_env_common3numNtB6_8I64SmallNtNtB8_3val10ValConvert11is_val_type
FN:50,_RNvXs5B_NtCsdmZoVYnqinT_18soroban_env_common3numNtB6_10U128ObjectINtNtCs7L5q00ejtpZ_4core7convert7TryFromNtNtB8_3val3ValE8try_from
FN:335,_RNvXs1j_NtCsdmZoVYnqinT_18soroban_env_common3numNtNtCs8j26R3SUG40_16soroban_env_host4host4HostINtNtB8_7compare7CompareNtB6_8U64SmallE7compareBO_
FN:14,_RNvXsl_NtCsdmZoVYnqinT_18soroban_env_common6stringNtB5_12StringObjectNtNtB7_3val10ValConvert18unchecked_from_val
FN:10,_RNvXsm_NtCsdmZoVYnqinT_18soroban_env_common5errorNtB5_5ErrorNtNtB7_3val10ValConvert11is_val_type
FN:214,_RNvXs1e_NtCsdmZoVYnqinT_18soroban_env_common3valNtB6_9VecObjectNtNtCs7L5q00ejtpZ_4core5clone5Clone5cloneCs8j26R3SUG40_16soroban_env_host
FN:14,_RNvXs1y_NtCsdmZoVYnqinT_18soroban_env_common3numNtB6_8U64SmallNtNtB8_3val10ValConvert18unchecked_from_val
FN:246,_RNvMs7k_NtCsdmZoVYnqinT_18soroban_env_common3numNtB6_10U256Object11from_handle
FN:214,_RNvXs1x_NtCsdmZoVYnqinT_18soroban_env_common3valNtB6_9MapObjectNtNtCs7L5q00ejtpZ_4core5clone5Clone5cloneCs8j26R3SUG40_16soroban_env_host
FN:10,_RNvXs6j_NtCsdmZoVYnqinT_18soroban_env_common3numNtB6_9I128SmallNtNtB8_3val10ValConvert11is_val_type
FN:73,_RNvXs2g_NtCsdmZoVYnqinT_18soroban_env_common3valNtB6_3ValINtNtB8_7convert10TryFromValNtNtCs8j26R3SUG40_16soroban_env_host4host4HostbE12try_from_valB1p_
FN:246,_RNvMs1N_NtCsdmZoVYnqinT_18soroban_env_common3valNtB6_13AddressObject11from_handle
FN:246,_RNvMs6_NtCsdmZoVYnqinT_18soroban_env_common6stringNtB5_12StringObject11from_handle
FN:50,_RNvXs7K_NtCsdmZoVYnqinT_18soroban_env_common3numNtB6_7U256ValINtNtCs7L5q00ejtpZ_4core7convert7TryFromNtNtB8_3val3ValE8try_from
FN:73,_RNvXs1t_NtCsdmZoVYnqinT_18soroban_env_common6symbolNtNtB8_3val3ValINtNtB8_7convert10TryFromValNtNtCs8j26R3SUG40_16soroban_env_host4host4HostNtB6_6SymbolE12try_from_valB1y_
FN:14,_RNvXs4I_NtCsdmZoVYnqinT_18soroban_env_common3numNtB6_14DurationObjectNtNtB8_3val10ValConvert18unchecked_from_val
FN:14,_RNvXs2O_NtCsdmZoVYnqinT_18soroban_env_common3numNtB6_9I64ObjectNtNtB8_3val10ValConvert18unchecked_from_val
FN:73,_RNvXs2c_NtCsdmZoVYnqinT_18soroban_env_common3valNtB6_3ValINtNtB8_7convert10TryFromValNtNtCs8j26R3SUG40_16soroban_env_host4host4HostuE12try_from_valB1p_
FN:50,_RNvXs22_NtCsdmZoVYnqinT_18soroban_env_common3numNtB6_6U64ValINtNtCs7L5q00ejtpZ_4core7convert7TryFromNtNtB8_3val3ValE8try_from
FN:50,_RNvXsi_NtCsdmZoVYnqinT_18soroban_env_common6objectNtB5_6ObjectINtNtCs7L5q00ejtpZ_4core7convert7TryFromNtNtB7_3val3ValE8try_from
FN:372,_RNvXs7O_NtCsdmZoVYnqinT_18soroban_env_common3numNtB6_9I256SmallNtNtCs7L5q00ejtpZ_4core3cmp3Ord3cmp
FN:214,_RNvXsI_NtCsdmZoVYnqinT_18soroban_env_common3valNtB5_4VoidNtNtCs7L5q00ejtpZ_4core5clone5Clone5cloneCs8j26R3SUG40_16soroban_env_host
FN:14,_RNvXsm_NtCsdmZoVYnqinT_18soroban_env_common5errorNtB5_5ErrorNtNtB7_3val10ValConvert18unchecked_from_val
FN:335,_RNvXs2g_NtCsdmZoVYnqinT_18soroban_env_common3numNtNtCs8j26R3SUG40_16soroban_env_host4host4HostINtNtB8_7compare7CompareNtB6_8I64SmallE7compareBO_
FN:50,_RNvXs2h_NtCsdmZoVYnqinT_18soroban_env_common3valmINtNtCs7L5q00ejtpZ_4core7convert7TryFromNtB6_3ValE8try_from
FN:10,_RNvXs3s_NtCsdmZoVYnqinT_18soroban_env_common3numNtB6_14TimepointSmallNtNtB8_3val10ValConvert11is_val_type
FN:60,_RNvXs1G_NtCsdmZoVYnqinT_18soroban_env_common3valNtB6_9MapObjectINtNtCs7L5q00ejtpZ_4core7convert7TryFromRNtB6_3ValE8try_from
FN:14,_RNvXs2v_NtCsdmZoVYnqinT_18soroban_env_common3numNtB6_8I64SmallNtNtB8_3val10ValConvert18unchecked_from_val
FN:246,_RNvMs8h_NtCsdmZoVYnqinT_18soroban_env_common3numNtB6_10I256Object11from_handle
FN:246,_RNvMs6n_NtCsdmZoVYnqinT_18soroban_env_common3numNtB6_10I128Object11from_handle
FN:214,_RNvXsG_NtCsdmZoVYnqinT_18soroban_env_common3numNtB5_6U32ValNtNtCs7L5q00ejtpZ_4core5clone5Clone5cloneCs8j26R3SUG40_16soroban_env_host
FN:50,_RNvXs2p_NtCsdmZoVYnqinT_18soroban_env_common3valNtNtB8_5error5ErrorINtNtCs7L5q00ejtpZ_4core7convert7TryFromNtB6_3ValE8try_from
FN:50,_RNvXs8H_NtCsdmZoVYnqinT_18soroban_env_common3numNtB6_7I256ValINtNtCs7L5q00ejtpZ_4core7convert7TryFromNtNtB8_3val3ValE8try_from
FN:357,_RNvXs4X_NtCsdmZoVYnqinT_18soroban_env_common3numNtB6_9U128SmallNtNtCs7L5q00ejtpZ_4core3cmp3Ord3cmp
FN:73,_RNvXs2k_NtCsdmZoVYnqinT_18soroban_env_common3valNtB6_3ValINtNtB8_7convert10TryFromValNtNtCs8j26R3SUG40_16soroban_env_host4host4HostmE12try_from_valB1p_
FN:67,_RNvXsn_NtCsdmZoVYnqinT_18soroban_env_common5bytesNtB5_11BytesObjectINtNtB7_7convert10TryFromValNtNtCs8j26R3SUG40_16soroban_env_host4host4HostNtNtB7_3val3ValE12try_from_valB1z_
FN:272,_RNvXs1i_NtCsdmZoVYnqinT_18soroban_env_common6symbolNtB6_6SymbolNtNtCs7L5q00ejtpZ_4core5clone5Clone5cloneCs8j26R3SUG40_16soroban_env_host
FN:214,_RNvXs13_NtCsdmZoVYnqinT_18soroban_env_common6symbolNtB6_12SymbolObjectNtNtCs7L5q00ejtpZ_4core5clone5Clone5cloneCs8j26R3SUG40_16soroban_env_host
FN:50,_RNvXsl_NtCsdmZoVYnqinT_18soroban_env_common5bytesNtB5_11BytesObjectINtNtCs7L5q00ejtpZ_4core7convert7TryFromNtNtB7_3val3ValE8try_from
FN:214,_RNvXs7n_NtCsdmZoVYnqinT_18soroban_env_common3numNtB6_10U256ObjectNtNtCs7L5q00ejtpZ_4core5clone5Clone5cloneCs8j26R3SUG40_16soroban_env_host
FN:50,_RNvXs2r_NtCsdmZoVYnqinT_18soroban_env_common3numNtB6_8I64SmallINtNtCs7L5q00ejtpZ_4core7convert7TryFromNtNtB8_3val3ValE8try_from
FN:357,_RNvXs6R_NtCsdmZoVYnqinT_18soroban_env_common3numNtB6_9U256SmallNtNtCs7L5q00ejtpZ_4core3cmp3Ord3cmp
FN:246,_RNvMs5q_NtCsdmZoVYnqinT_18soroban_env_common3numNtB6_10U128Object11from_handle
FN:67,_RNvXs2f_NtCsdmZoVYnqinT_18soroban_env_common3valbINtNtB8_7convert10TryFromValNtNtCs8j26R3SUG40_16soroban_env_host4host4HostNtB6_3ValE12try_from_valB1h_
FN:335,_RNvXsH_NtCsdmZoVYnqinT_18soroban_env_common6symbolNtNtCs8j26R3SUG40_16soroban_env_host4host4HostINtNtB7_7compare7CompareNtB5_11SymbolSmallE7compareBQ_
FN:14,_RNvXs1q_NtCsdmZoVYnqinT_18soroban_env_common3valNtB6_9VecObjectNtB6_10ValConvert18unchecked_from_val
FN:14,_RNvXs8w_NtCsdmZoVYnqinT_18soroban_env_common3numNtB6_10I256ObjectNtNtB8_3val10ValConvert18unchecked_from_val
FN:50,_RNvXs7c_NtCsdmZoVYnqinT_18soroban_env_common3numNtB6_9U256SmallINtNtCs7L5q00ejtpZ_4core7convert7TryFromNtNtB8_3val3ValE8try_from
FN:14,_RNvXs1J_NtCsdmZoVYnqinT_18soroban_env_common3valNtB6_9MapObjectNtB6_10ValConvert18unchecked_from_val
FN:272,_RNvXs8z_NtCsdmZoVYnqinT_18soroban_env_common3numNtB6_7I256ValNtNtCs7L5q00ejtpZ_4core5clone5Clone5cloneCs8j26R3SUG40_16soroban_env_host
FN:67,_RNvXs1s_NtCsdmZoVYnqinT_18soroban_env_common6symbolNtB6_6SymbolINtNtB8_7convert10TryFromValNtNtCs8j26R3SUG40_16soroban_env_host4host4HostNtNtB8_3val3ValE12try_from_valB1v_
FN:272,_RNvXs1U_NtCsdmZoVYnqinT_18soroban_env_common3numNtB6_6U64ValNtNtCs7L5q00ejtpZ_4core5clone5Clone5cloneCs8j26R3SUG40_16soroban_env_host
FN:10,_RNvXs7g_NtCsdmZoVYnqinT_18soroban_env_common3numNtB6_9U256SmallNtNtB8_3val10ValConvert11is_val_type
FN:10,_RNvXs4p_NtCsdmZoVYnqinT_18soroban_env_common3numNtB6_13DurationSmallNtNtB8_3val10ValConvert11is_val_type
FN:214,_RNvXs1F_NtCsdmZoVYnqinT_18soroban_env_common3numNtB6_9U64ObjectNtNtCs7L5q00ejtpZ_4core5clone5Clone5cloneCs8j26R3SUG40_16soroban_env_host
FN:10,_RNvXs4I_NtCsdmZoVYnqinT_18soroban_env_common3numNtB6_14DurationObjectNtNtB8_3val10ValConvert11is_val_type
FN:14,_RNvXs6j_NtCsdmZoVYnqinT_18soroban_env_common3numNtB6_9I128SmallNtNtB8_3val10ValConvert18unchecked_from_val
FN:50,_RNvXs3o_NtCsdmZoVYnqinT_18soroban_env_common3numNtB6_14TimepointSmallINtNtCs7L5q00ejtpZ_4core7convert7TryFromNtNtB8_3val3ValE8try_from
FN:14,_RNvXs4p_NtCsdmZoVYnqinT_18soroban_env_common3numNtB6_13DurationSmallNtNtB8_3val10ValConvert18unchecked_from_val
FN:257,_RNvXs11_NtCsdmZoVYnqinT_18soroban_env_common6symbolNtNtCs8j26R3SUG40_16soroban_env_host4host4HostINtNtB8_7compare7CompareNtB6_12SymbolObjectE7compareBR_
FN:60,_RNvXs1n_NtCsdmZoVYnqinT_18soroban_env_common3valNtB6_9VecObjectINtNtCs7L5q00ejtpZ_4core7convert7TryFromRNtB6_3ValE8try_from
FN:60,_RNvXs1r_NtCsdmZoVYnqinT_18soroban_env_common6symbolNtB6_6SymbolINtNtCs7L5q00ejtpZ_4core7convert7TryFromRNtNtB8_3val3ValE8try_from
FN:34,_RNvMsn_NtCsdmZoVYnqinT_18soroban_env_common5errorNtB5_5Error16from_major_minor
FN:14,_RNvXs8d_NtCsdmZoVYnqinT_18soroban_env_common3numNtB6_9I256SmallNtNtB8_3val10ValConvert18unchecked_from_val
FN:257,_RNvXs1O_NtCsdmZoVYnqinT_18soroban_env_common3valNtNtCs8j26R3SUG40_16soroban_env_host4host4HostINtNtB8_7compare7CompareNtB6_13AddressObjectE7compareBO_
FN:50,_RNvXs89_NtCsdmZoVYnqinT_18soroban_env_common3numNtB6_9I256SmallINtNtCs7L5q00ejtpZ_4core7convert7TryFromNtNtB8_3val3ValE8try_from
FN:372,_RNvXs26_NtCsdmZoVYnqinT_18soroban_env_common3numNtB6_8I64SmallNtNtCs7L5q00ejtpZ_4core3cmp3Ord3cmp
FN:50,_RNvXs6f_NtCsdmZoVYnqinT_18soroban_env_common3numNtB6_9I128SmallINtNtCs7L5q00ejtpZ_4core7convert7TryFromNtNtB8_3val3ValE8try_from
FN:50,_RNvXs5i_NtCsdmZoVYnqinT_18soroban_env_common3numNtB6_9U128SmallINtNtCs7L5q00ejtpZ_4core7convert7TryFromNtNtB8_3val3ValE8try_from
FN:73,_RNvXsV_NtCsdmZoVYnqinT_18soroban_env_common6symbolNtNtB7_3val3ValINtNtB7_7convert10TryFromValNtNtCs8j26R3SUG40_16soroban_env_host4host4HostNtB5_11SymbolSmallE12try_from_valB1x_
FN:10,_RNvXs1R_NtCsdmZoVYnqinT_18soroban_env_common3numNtB6_9U64ObjectNtNtB8_3val10ValConvert11is_val_type
FN:272,_RNvXs7C_NtCsdmZoVYnqinT_18soroban_env_common3numNtB6_7U256ValNtNtCs7L5q00ejtpZ_4core5clone5Clone5cloneCs8j26R3SUG40_16soroban_env_host
FN:10,_RNvXsW_NtCsdmZoVYnqinT_18soroban_env_common6symbolNtB5_11SymbolSmallNtNtB7_3val10ValConvert11is_val_type
FN:214,_RNvXs3z_NtCsdmZoVYnqinT_18soroban_env_common3numNtB6_15TimepointObjectNtNtCs7L5q00ejtpZ_4core5clone5Clone5cloneCs8j26R3SUG40_16soroban_env_host
FN:10,_RNvXs1f_NtCsdmZoVYnqinT_18soroban_env_common6symbolNtB6_12SymbolObjectNtNtB8_3val10ValConvert11is_val_type
FN:214,_RNvXs2C_NtCsdmZoVYnqinT_18soroban_env_common3numNtB6_9I64ObjectNtNtCs7L5q00ejtpZ_4core5clone5Clone5cloneCs8j26R3SUG40_16soroban_env_host
FN:10,_RNvXs5F_NtCsdmZoVYnqinT_18soroban_env_common3numNtB6_10U128ObjectNtNtB8_3val10ValConvert11is_val_type
FN:60,_RNvXsj_NtCsdmZoVYnqinT_18soroban_env_common6objectNtB5_6ObjectINtNtCs7L5q00ejtpZ_4core7convert7TryFromRNtNtB7_3val3ValE8try_from
FN:246,_RNvMsa_NtCsdmZoVYnqinT_18soroban_env_common5bytesNtB5_11BytesObject11from_handle
FN:14,_RNvXs1f_NtCsdmZoVYnqinT_18soroban_env_common6symbolNtB6_12SymbolObjectNtNtB8_3val10ValConvert18unchecked_from_val
FN:10,_RNvXs3L_NtCsdmZoVYnqinT_18soroban_env_common3numNtB6_15TimepointObjectNtNtB8_3val10ValConvert11is_val_type
FN:14,_RNvXs5m_NtCsdmZoVYnqinT_18soroban_env_common3numNtB6_9U128SmallNtNtB8_3val10ValConvert18unchecked_from_val
FN:50,_RNvXs1m_NtCsdmZoVYnqinT_18soroban_env_common3valNtB6_9VecObjectINtNtCs7L5q00ejtpZ_4core7convert7TryFromNtB6_3ValE8try_from
FN:14,_RNvXs17_NtCsdmZoVYnqinT_18soroban_env_common3numNtB6_6I32ValNtNtB8_3val10ValConvert18unchecked_from_val
FN:10,_RNvXs1q_NtCsdmZoVYnqinT_18soroban_env_common3valNtB6_9VecObjectNtB6_10ValConvert11is_val_type
FN:246,_RNvMs4t_NtCsdmZoVYnqinT_18soroban_env_common3numNtB6_14DurationObject11from_handle
FN:10,_RNvXs1J_NtCsdmZoVYnqinT_18soroban_env_common3valNtB6_9MapObjectNtB6_10ValConvert11is_val_type
FN:50,_RNvXs1q_NtCsdmZoVYnqinT_18soroban_env_common6symbolNtB6_6SymbolINtNtCs7L5q00ejtpZ_4core7convert7TryFromNtNtB8_3val3ValE8try_from
FN:246,_RNvMs2z_NtCsdmZoVYnqinT_18soroban_env_common3numNtB6_9I64Object11from_handle
FN:10,_RNvXs1y_NtCsdmZoVYnqinT_18soroban_env_common3numNtB6_8U64SmallNtNtB8_3val10ValConvert11is_val_type
FN:10,_RNvXs2O_NtCsdmZoVYnqinT_18soroban_env_common3numNtB6_9I64ObjectNtNtB8_3val10ValConvert11is_val_type
FN:335,_RNvXs7Y_NtCsdmZoVYnqinT_18soroban_env_common3numNtNtCs8j26R3SUG40_16soroban_env_host4host4HostINtNtB8_7compare7CompareNtB6_9I256SmallE7compareBO_
FN:14,_RNvXs22_NtCsdmZoVYnqinT_18soroban_env_common3valNtB6_13AddressObjectNtB6_10ValConvert18unchecked_from_val
FN:14,_RNvXs1R_NtCsdmZoVYnqinT_18soroban_env_common3numNtB6_9U64ObjectNtNtB8_3val10ValConvert18unchecked_from_val
FN:214,_RNvXs1Q_NtCsdmZoVYnqinT_18soroban_env_common3valNtB6_13AddressObjectNtNtCs7L5q00ejtpZ_4core5clone5Clone5cloneCs8j26R3SUG40_16soroban_env_host
FN:372,_RNvXs5U_NtCsdmZoVYnqinT_18soroban_env_common3numNtB6_9I128SmallNtNtCs7L5q00ejtpZ_4core3cmp3Ord3cmp
FN:335,_RNvXs4a_NtCsdmZoVYnqinT_18soroban_env_common3numNtNtCs8j26R3SUG40_16soroban_env_host4host4HostINtNtB8_7compare7CompareNtB6_13DurationSmallE7compareBO_
FN:214,_RNvXs9_NtCsdmZoVYnqinT_18soroban_env_common6stringNtB5_12StringObjectNtNtCs7L5q00ejtpZ_4core5clone5Clone5cloneCs8j26R3SUG40_16soroban_env_host
FN:50,_RNvXs2d_NtCsdmZoVYnqinT_18soroban_env_common3valbINtNtCs7L5q00ejtpZ_4core7convert7TryFromNtB6_3ValE8try_from
FN:50,_RNvXs29_NtCsdmZoVYnqinT_18soroban_env_common3valuINtNtCs7L5q00ejtpZ_4core7convert7TryFromNtB6_3ValE8try_from
FN:357,_RNvXs33_NtCsdmZoVYnqinT_18soroban_env_common3numNtB6_14TimepointSmallNtNtCs7L5q00ejtpZ_4core3cmp3Ord3cmp
FN:246,_RNvMs1C_NtCsdmZoVYnqinT_18soroban_env_common3numNtB6_9U64Object11from_handle
FN:335,_RNvXs64_NtCsdmZoVYnqinT_18soroban_env_common3numNtNtCs8j26R3SUG40_16soroban_env_host4host4HostINtNtB8_7compare7CompareNtB6_9I128SmallE7compareBO_
FN:50,_RNvXs1F_NtCsdmZoVYnqinT_18soroban_env_common3valNtB6_9MapObjectINtNtCs7L5q00ejtpZ_4core7convert7TryFromNtB6_3ValE8try_from
FN:50,_RNvXs1Y_NtCsdmZoVYnqinT_18soroban_env_common3valNtB6_13AddressObjectINtNtCs7L5q00ejtpZ_4core7convert7TryFromNtB6_3ValE8try_from
FN:235,_RNvXs8g_NtCsdmZoVYnqinT_18soroban_env_common3numNtB6_10I256ObjectINtNtCs7L5q00ejtpZ_4core7convert7TryFromNtNtB8_6object6ObjectE8try_from
FN:116,_RNvXs6t_NtCsdmZoVYnqinT_18soroban_env_common3numNtB6_10I128ObjectINtNtCs7L5q00ejtpZ_4core7convert5AsMutNtNtB8_3val3ValE6as_mut
FN:137,_RNvMs6w_NtCsdmZoVYnqinT_18soroban_env_common3numNtB6_10I128Object6as_val
FN:128,_RNvXs4i_NtCsdmZoVYnqinT_18soroban_env_common3numNtNtB8_3val3ValINtNtCs7L5q00ejtpZ_4core7convert4FromRNtB6_13DurationSmallE4from
FN:88,_RNvXs6M_NtCsdmZoVYnqinT_18soroban_env_common3numNtB6_7I128ValNtNtB8_3val12WasmiMarshal22try_marshal_from_value
FN:28,_RNvMs6k_NtCsdmZoVYnqinT_18soroban_env_common3numNtB6_9I128Small9from_body
FN:116,_RNvXs3j_NtCsdmZoVYnqinT_18soroban_env_common3numNtB6_14TimepointSmallINtNtCs7L5q00ejtpZ_4core7convert5AsMutNtNtB8_3val3ValE6as_mut
FN:214,_RNvXsI_NtCsdmZoVYnqinT_18soroban_env_common3valNtB5_4VoidNtNtCs7L5q00ejtpZ_4core5clone5Clone5cloneB7_
FN:128,_RNvXs5y_NtCsdmZoVYnqinT_18soroban_env_common3numNtNtB8_3val3ValINtNtCs7L5q00ejtpZ_4core7convert4FromRNtB6_10U128ObjectE4from
FN:67,_RNvXININtCsdmZoVYnqinT_18soroban_env_common3vals2n_0pElINtNtB7_7convert10TryFromValpNtB5_3ValE12try_from_valB7_
FN:141,_RNvMs1o_NtCsdmZoVYnqinT_18soroban_env_common6symbolNtB6_6Symbol6to_val
FN:128,_RNvXsL_NtCsdmZoVYnqinT_18soroban_env_common3numNtNtB7_3val3ValINtNtCs7L5q00ejtpZ_4core7convert4FromRNtB5_6U32ValE4from
FN:88,_RNvXs14_NtCsdmZoVYnqinT_18soroban_env_common3valNtB6_4BoolNtB6_12WasmiMarshal22try_marshal_from_value
FN:281,_RNvXs7P_NtCsdmZoVYnqinT_18soroban_env_common3numNtB6_7I256ValNtNtB8_3val10ValConvert18unchecked_from_val
FN:272,_RNvXs2R_NtCsdmZoVYnqinT_18soroban_env_common3numNtB6_6I64ValNtNtCs7L5q00ejtpZ_4core5clone5Clone5cloneB8_
FN:116,_RNvXs2U_NtCsdmZoVYnqinT_18soroban_env_common3numNtB6_6I64ValINtNtCs7L5q00ejtpZ_4core7convert5AsMutNtNtB8_3val3ValE6as_mut
FN:281,_RNvXs5V_NtCsdmZoVYnqinT_18soroban_env_common3numNtB6_7I128ValNtNtB8_3val10ValConvert18unchecked_from_val
FN:73,_RNvXININtCsdmZoVYnqinT_18soroban_env_common3numsR_0pENtNtB7_3val3ValINtNtB7_7convert10TryFromValpNtB5_6U32ValE12try_from_valB7_
FN:137,_RNvMs1D_NtCsdmZoVYnqinT_18soroban_env_common3valNtB6_9MapObject6as_val
FN:214,_RNvXsV_NtCsdmZoVYnqinT_18soroban_env_common3numNtB5_6I32ValNtNtCs7L5q00ejtpZ_4core5clone5Clone5cloneB7_
FN:116,_RNvXsY_NtCsdmZoVYnqinT_18soroban_env_common3numNtB5_6I32ValINtNtCs7L5q00ejtpZ_4core7convert5AsMutNtNtB7_3val3ValE6as_mut
FN:73,_RNvXININtCsdmZoVYnqinT_18soroban_env_common3nums6B_0pENtNtB7_3val3ValINtNtB7_7convert10TryFromValpNtB5_10I128ObjectE12try_from_valB7_
FN:28,_RNvMs7h_NtCsdmZoVYnqinT_18soroban_env_common3numNtB6_9U256Small9from_body
FN:116,_RNvXs4g_NtCsdmZoVYnqinT_18soroban_env_common3numNtB6_13DurationSmallINtNtCs7L5q00ejtpZ_4core7convert5AsMutNtNtB8_3val3ValE6as_mut
FN:141,_RNvMsQ_NtCsdmZoVYnqinT_18soroban_env_common6symbolNtB5_11SymbolSmall6to_val
FN:28,_RNvMs5n_NtCsdmZoVYnqinT_18soroban_env_common3numNtB6_9U128Small9from_body
FN:214,_RNvXs2j_NtCsdmZoVYnqinT_18soroban_env_common3numNtB6_8I64SmallNtNtCs7L5q00ejtpZ_4core5clone5Clone5cloneB8_
FN:88,_RNvXs5P_NtCsdmZoVYnqinT_18soroban_env_common3numNtB6_7U128ValNtNtB8_3val12WasmiMarshal22try_marshal_from_value
FN:287,_RNvXs35_NtCsdmZoVYnqinT_18soroban_env_common3numNtB6_12TimepointValINtNtCs7L5q00ejtpZ_4core7convert4FromNtB6_14TimepointSmallE4from
FN:111,_RNvXs6H_NtCsdmZoVYnqinT_18soroban_env_common3numNtB6_7I128ValINtNtCs7L5q00ejtpZ_4core7convert5AsRefNtNtB8_3val3ValE6as_ref
FN:98,_RNvXst_NtCsdmZoVYnqinT_18soroban_env_common5errorNtB5_5ErrorNtNtB7_3val12WasmiMarshal17marshal_from_self
FN:73,_RNvXININtCsdmZoVYnqinT_18soroban_env_common6stringsk_0pENtNtB7_3val3ValINtNtB7_7convert10TryFromValpNtB5_12StringObjectE12try_from_valB7_
FN:111,_RNvXsZ_NtCsdmZoVYnqinT_18soroban_env_common3valNtB5_4BoolINtNtCs7L5q00ejtpZ_4core7convert5AsRefNtB5_3ValE6as_ref
FN:111,_RNvXs4N_NtCsdmZoVYnqinT_18soroban_env_common3numNtB6_11DurationValINtNtCs7L5q00ejtpZ_4core7convert5AsRefNtNtB8_3val3ValE6as_ref
FN:128,_RNvXsi_NtCsdmZoVYnqinT_18soroban_env_common5bytesNtNtB7_3val3ValINtNtCs7L5q00ejtpZ_4core7convert4FromRNtB5_11BytesObjectE4from
FN:335,_RNvXININtCsdmZoVYnqinT_18soroban_env_common3nums64_0pEpINtNtB7_7compare7CompareNtB5_9I128SmallE7compareB7_
FN:98,_RNvXs88_NtCsdmZoVYnqinT_18soroban_env_common3numNtB6_9I256SmallNtNtB8_3val12WasmiMarshal17marshal_from_self
FN:128,_RNvXs2W_NtCsdmZoVYnqinT_18soroban_env_common3numNtNtB8_3val3ValINtNtCs7L5q00ejtpZ_4core7convert4FromRNtB6_6I64ValE4from
FN:229,_RNvXs5o_NtCsdmZoVYnqinT_18soroban_env_common3numNtNtB8_6object6ObjectINtNtCs7L5q00ejtpZ_4core7convert4FromNtB6_10U128ObjectE4from
FN:128,_RNvXs7s_NtCsdmZoVYnqinT_18soroban_env_common3numNtNtB8_3val3ValINtNtCs7L5q00ejtpZ_4core7convert4FromRNtB6_10U256ObjectE4from
FN:111,_RNvXs69_NtCsdmZoVYnqinT_18soroban_env_common3numNtB6_9I128SmallINtNtCs7L5q00ejtpZ_4core7convert5AsRefNtNtB8_3val3ValE6as_ref
FN:277,_RNvXs1a_NtCsdmZoVYnqinT_18soroban_env_common3numNtB6_6U64ValNtNtB8_3val10ValConvert11is_val_type
FN:116,_RNvXsJ_NtCsdmZoVYnqinT_18soroban_env_common3numNtB5_6U32ValINtNtCs7L5q00ejtpZ_4core7convert5AsMutNtNtB7_3val3ValE6as_mut
FN:88,_RNvXs2Y_NtCsdmZoVYnqinT_18soroban_env_common3numNtB6_6I64ValNtNtB8_3val12WasmiMarshal22try_marshal_from_value
FN:128,_RNvXs7H_NtCsdmZoVYnqinT_18soroban_env_common3numNtNtB8_3val3ValINtNtCs7L5q00ejtpZ_4core7convert4FromRNtB6_7U256ValE4from
FN:141,_RNvMs6L_NtCsdmZoVYnqinT_18soroban_env_common3numNtB6_7I128Val6to_val
FN:128,_RNvXs2o_NtCsdmZoVYnqinT_18soroban_env_common3numNtNtB8_3val3ValINtNtCs7L5q00ejtpZ_4core7convert4FromRNtB6_8I64SmallE4from
FN:116,_RNvXsd_NtCsdmZoVYnqinT_18soroban_env_common6objectNtB5_6ObjectINtNtCs7L5q00ejtpZ_4core7convert5AsMutNtNtB7_3val3ValE6as_mut
FN:137,_RNvMs3m_NtCsdmZoVYnqinT_18soroban_env_common3numNtB6_14TimepointSmall6as_val
FN:229,_RNvXs1L_NtCsdmZoVYnqinT_18soroban_env_common3valNtNtB8_6object6ObjectINtNtCs7L5q00ejtpZ_4core7convert4FromNtB6_13AddressObjectE4from
FN:141,_RNvMs87_NtCsdmZoVYnqinT_18soroban_env_common3numNtB6_9I256Small6to_val
FN:173,_RNvXs7D_NtCsdmZoVYnqinT_18soroban_env_common3numNtB6_7U256ValNtNtCs7L5q00ejtpZ_4core3fmt5Debug3fmt
FN:73,_RNvXININtCsdmZoVYnqinT_18soroban_env_common3nums2N_0pENtNtB7_3val3ValINtNtB7_7convert10TryFromValpNtB5_9I64ObjectE12try_from_valB7_
FN:98,_RNvXs8r_NtCsdmZoVYnqinT_18soroban_env_common3numNtB6_10I256ObjectNtNtB8_3val12WasmiMarshal17marshal_from_self
FN:88,_RNvXs3V_NtCsdmZoVYnqinT_18soroban_env_common3numNtB6_12TimepointValNtNtB8_3val12WasmiMarshal22try_marshal_from_value
FN:67,_RNvXININtCsdmZoVYnqinT_18soroban_env_common6symbolsU_0pENtB5_11SymbolSmallINtNtB7_7convert10TryFromValpNtNtB7_3val3ValE12try_from_valB7_
FN:287,_RNvXs1b_NtCsdmZoVYnqinT_18soroban_env_common3numNtB6_6U64ValINtNtCs7L5q00ejtpZ_4core7convert4FromNtB6_8U64SmallE4from
FN:67,_RNvXININtCsdmZoVYnqinT_18soroban_env_common3vals17_0pENtB5_4BoolINtNtB7_7convert10TryFromValpNtB5_3ValE12try_from_valB7_
FN:335,_RNvXININtCsdmZoVYnqinT_18soroban_env_common3nums71_0pEpINtNtB7_7compare7CompareNtB5_9U256SmallE7compareB7_
FN:88,_RNvXs21_NtCsdmZoVYnqinT_18soroban_env_common3numNtB6_6U64ValNtNtB8_3val12WasmiMarshal22try_marshal_from_value
FN:257,_RNvXININtCsdmZoVYnqinT_18soroban_env_common6strings7_0pEpINtNtB7_7compare7CompareNtB5_12StringObjectE7compareB7_
FN:111,_RNvXsK_NtCsdmZoVYnqinT_18soroban_env_common3valNtB5_4VoidINtNtCs7L5q00ejtpZ_4core7convert5AsRefNtB5_3ValE6as_ref
FN:173,_RNvXs75_NtCsdmZoVYnqinT_18soroban_env_common3numNtB6_9U256SmallNtNtCs7L5q00ejtpZ_4core3fmt5Debug3fmt
FN:173,_RNvXs8l_NtCsdmZoVYnqinT_18soroban_env_common3numNtB6_10I256ObjectNtNtCs7L5q00ejtpZ_4core3fmt5Debug3fmt
FN:293,_RNvXs7R_NtCsdmZoVYnqinT_18soroban_env_common3numNtB6_7I256ValINtNtCs7L5q00ejtpZ_4core7convert4FromNtB6_10I256ObjectE4from
FN:88,_RNvXs3n_NtCsdmZoVYnqinT_18soroban_env_common3numNtB6_14TimepointSmallNtNtB8_3val12WasmiMarshal22try_marshal_from_value
FN:229,_RNvXs8_NtCsdmZoVYnqinT_18soroban_env_common5bytesNtNtB7_6object6ObjectINtNtCs7L5q00ejtpZ_4core7convert4FromNtB5_11BytesObjectE4from
FN:88,_RNvXsP_NtCsdmZoVYnqinT_18soroban_env_common3valNtB5_4VoidNtB5_12WasmiMarshal22try_marshal_from_value
FN:111,_RNvXs2T_NtCsdmZoVYnqinT_18soroban_env_common3numNtB6_6I64ValINtNtCs7L5q00ejtpZ_4core7convert5AsRefNtNtB8_3val3ValE6as_ref
FN:137,_RNvMs3F_NtCsdmZoVYnqinT_18soroban_env_common3numNtB6_15TimepointObject6as_val
FN:141,_RNvMs7a_NtCsdmZoVYnqinT_18soroban_env_common3numNtB6_9U256Small6to_val
FN:335,_RNvXININtCsdmZoVYnqinT_18soroban_env_common3nums7Y_0pEpINtNtB7_7compare7CompareNtB5_9I256SmallE7compareB7_
FN:122,_RNvXsq_NtCsdmZoVYnqinT_18soroban_env_common5errorNtNtB7_3val3ValINtNtCs7L5q00ejtpZ_4core7convert4FromNtB5_5ErrorE4from
FN:313,_RNvMs6X_NtCsdmZoVYnqinT_18soroban_env_common3numNtB6_7U256Val10from_small
FN:313,_RNvMs53_NtCsdmZoVYnqinT_18soroban_env_common3numNtB6_7U128Val10from_small
FN:111,_RNvXs5v_NtCsdmZoVYnqinT_18soroban_env_common3numNtB6_10U128ObjectINtNtCs7L5q00ejtpZ_4core7convert5AsRefNtNtB8_3val3ValE6as_ref
FN:319,_RINvXs2d_NtCsdmZoVYnqinT_18soroban_env_common3numNtB7_8I64SmallNtNtCs7L5q00ejtpZ_4core4hash4Hash4hashpEB9_
FN:111,_RNvXs2l_NtCsdmZoVYnqinT_18soroban_env_common3numNtB6_8I64SmallINtNtCs7L5q00ejtpZ_4core7convert5AsRefNtNtB8_3val3ValE6as_ref
FN:122,_RNvXs1m_NtCsdmZoVYnqinT_18soroban_env_common6symbolNtNtB8_3val3ValINtNtCs7L5q00ejtpZ_4core7convert4FromNtB6_6SymbolE4from
FN:88,_RNvXsg_NtCsdmZoVYnqinT_18soroban_env_common6stringNtB5_12StringObjectNtNtB7_3val12WasmiMarshal22try_marshal_from_value
FN:235,_RNvXs9_NtCsdmZoVYnqinT_18soroban_env_common5bytesNtB5_11BytesObjectINtNtCs7L5q00ejtpZ_4core7convert7TryFromNtNtB7_6object6ObjectE8try_from
FN:137,_RNvMs1s_NtCsdmZoVYnqinT_18soroban_env_common3numNtB6_8U64Small6as_val
FN:73,_RNvXININtCsdmZoVYnqinT_18soroban_env_common6objectsl_0pENtNtB7_3val3ValINtNtB7_7convert10TryFromValpNtB5_6ObjectE12try_from_valB7_
FN:137,_RNvMs2I_NtCsdmZoVYnqinT_18soroban_env_common3numNtB6_9I64Object6as_val
FN:111,_RNvXs1S_NtCsdmZoVYnqinT_18soroban_env_common3valNtB6_13AddressObjectINtNtCs7L5q00ejtpZ_4core7convert5AsRefNtB6_3ValE6as_ref
FN:173,_RNvXsY_NtCsdmZoVYnqinT_18soroban_env_common3valNtB5_4BoolNtNtCs7L5q00ejtpZ_4core3fmt5Debug3fmt
FN:111,_RNvXs3i_NtCsdmZoVYnqinT_18soroban_env_common3numNtB6_14TimepointSmallINtNtCs7L5q00ejtpZ_4core7convert5AsRefNtNtB8_3val3ValE6as_ref
FN:122,_RNvXsO_NtCsdmZoVYnqinT_18soroban_env_common6symbolNtNtB7_3val3ValINtNtCs7L5q00ejtpZ_4core7convert4FromNtB5_11SymbolSmallE4from
FN:272,_RNvXs8z_NtCsdmZoVYnqinT_18soroban_env_common3numNtB6_7I256ValNtNtCs7L5q00ejtpZ_4core5clone5Clone5cloneB8_
FN:67,_RNvXININtCsdmZoVYnqinT_18soroban_env_common3nums6P_0pENtB5_7I128ValINtNtB7_7convert10TryFromValpNtNtB7_3val3ValE12try_from_valB7_
FN:141,_RNvMs13_NtCsdmZoVYnqinT_18soroban_env_common3valNtB6_4Bool6to_val
FN:335,_RNvXININtCsdmZoVYnqinT_18soroban_env_common3nums3d_0pEpINtNtB7_7compare7CompareNtB5_14TimepointSmallE7compareB7_
FN:122,_RNvXs7G_NtCsdmZoVYnqinT_18soroban_env_common3numNtNtB8_3val3ValINtNtCs7L5q00ejtpZ_4core7convert4FromNtB6_7U256ValE4from
FN:88,_RNvXs2J_NtCsdmZoVYnqinT_18soroban_env_common3numNtB6_9I64ObjectNtNtB8_3val12WasmiMarshal22try_marshal_from_value
FN:326,_RNvXs2e_NtCsdmZoVYnqinT_18soroban_env_common3numNtB6_8I64SmallNtNtCs7L5q00ejtpZ_4core3cmp9PartialEq2eq
FN:257,_RNvXININtCsdmZoVYnqinT_18soroban_env_common3vals1O_0pEpINtNtB7_7compare7CompareNtB5_13AddressObjectE7compareB7_
FN:111,_RNvXsf_NtCsdmZoVYnqinT_18soroban_env_common5bytesNtB5_11BytesObjectINtNtCs7L5q00ejtpZ_4core7convert5AsRefNtNtB7_3val3ValE6as_ref
FN:235,_RNvXs3v_NtCsdmZoVYnqinT_18soroban_env_common3numNtB6_15TimepointObjectINtNtCs7L5q00ejtpZ_4core7convert7TryFromNtNtB8_6object6ObjectE8try_from
FN:335,_RNvXININtCsdmZoVYnqinT_18soroban_env_common3nums4a_0pEpINtNtB7_7compare7CompareNtB5_13DurationSmallE7compareB7_
FN:122,_RNvXs78_NtCsdmZoVYnqinT_18soroban_env_common3numNtNtB8_3val3ValINtNtCs7L5q00ejtpZ_4core7convert4FromNtB6_9U256SmallE4from
FN:111,_RNvXs3B_NtCsdmZoVYnqinT_18soroban_env_common3numNtB6_15TimepointObjectINtNtCs7L5q00ejtpZ_4core7convert5AsRefNtNtB8_3val3ValE6as_ref
FN:98,_RNvXs14_NtCsdmZoVYnqinT_18soroban_env_common3valNtB6_4BoolNtB6_12WasmiMarshal17marshal_from_self
FN:313,_RNvMs39_NtCsdmZoVYnqinT_18soroban_env_common3numNtB6_12TimepointVal10from_small
FN:88,_RNvXsh_NtCsdmZoVYnqinT_18soroban_env_common6objectNtB5_6ObjectNtNtB7_3val12WasmiMarshal22try_marshal_from_value
FN:98,_RNvXs4S_NtCsdmZoVYnqinT_18soroban_env_common3numNtB6_11DurationValNtNtB8_3val12WasmiMarshal17marshal_from_self
FN:67,_RNvXININtCsdmZoVYnqinT_18soroban_env_common3nums6A_0pENtB5_10I128ObjectINtNtB7_7convert10TryFromValpNtNtB7_3val3ValE12try_from_valB7_
FN:14,_RNvXsU_NtCsdmZoVYnqinT_18soroban_env_common3valNtB5_4VoidNtB5_10ValConvert18unchecked_from_val
FN:111,_RNvXs1H_NtCsdmZoVYnqinT_18soroban_env_common3numNtB6_9U64ObjectINtNtCs7L5q00ejtpZ_4core7convert5AsRefNtNtB8_3val3ValE6as_ref
FN:229,_RNvXs4_NtCsdmZoVYnqinT_18soroban_env_common6stringNtNtB7_6object6ObjectINtNtCs7L5q00ejtpZ_4core7convert4FromNtB5_12StringObjectE4from
FN:319,_RINvXs61_NtCsdmZoVYnqinT_18soroban_env_common3numNtB7_9I128SmallNtNtCs7L5q00ejtpZ_4core4hash4Hash4hashpEB9_
FN:293,_RNvXs50_NtCsdmZoVYnqinT_18soroban_env_common3numNtB6_7U128ValINtNtCs7L5q00ejtpZ_4core7convert4FromNtB6_10U128ObjectE4from
FN:257,_RNvXININtCsdmZoVYnqinT_18soroban_env_common3nums4u_0pEpINtNtB7_7compare7CompareNtB5_14DurationObjectE7compareB7_
FN:287,_RNvXsz_NtCsdmZoVYnqinT_18soroban_env_common6symbolNtB5_6SymbolINtNtCs7L5q00ejtpZ_4core7convert4FromNtB5_11SymbolSmallE4from
FN:326,_RNvXs1h_NtCsdmZoVYnqinT_18soroban_env_common3numNtB6_8U64SmallNtNtCs7L5q00ejtpZ_4core3cmp9PartialEq2eq
FN:229,_RNvXs1A_NtCsdmZoVYnqinT_18soroban_env_common3numNtNtB8_6object6ObjectINtNtCs7L5q00ejtpZ_4core7convert4FromNtB6_9U64ObjectE4from
FN:73,_RNvXININtCsdmZoVYnqinT_18soroban_env_common3nums7N_0pENtNtB7_3val3ValINtNtB7_7convert10TryFromValpNtB5_7U256ValE12try_from_valB7_
FN:141,_RNvMsO_NtCsdmZoVYnqinT_18soroban_env_common3valNtB5_4Void6to_val
FN:272,_RNvXs6F_NtCsdmZoVYnqinT_18soroban_env_common3numNtB6_7I128ValNtNtCs7L5q00ejtpZ_4core5clone5Clone5cloneB8_
FN:111,_RNvXs2E_NtCsdmZoVYnqinT_18soroban_env_common3numNtB6_9I64ObjectINtNtCs7L5q00ejtpZ_4core7convert5AsRefNtNtB8_3val3ValE6as_ref
FN:116,_RNvXsp_NtCsdmZoVYnqinT_18soroban_env_common5errorNtB5_5ErrorINtNtCs7L5q00ejtpZ_4core7convert5AsMutNtNtB7_3val3ValE6as_mut
FN:137,_RNvMss_NtCsdmZoVYnqinT_18soroban_env_common5errorNtB5_5Error6as_val
FN:141,_RNvMs2X_NtCsdmZoVYnqinT_18soroban_env_common3numNtB6_6I64Val6to_val
FN:122,_RNvXs7r_NtCsdmZoVYnqinT_18soroban_env_common3numNtNtB8_3val3ValINtNtCs7L5q00ejtpZ_4core7convert4FromNtB6_10U256ObjectE4from
FN:67,_RNvXININtCsdmZoVYnqinT_18soroban_env_common6stringsj_0pENtB5_12StringObjectINtNtB7_7convert10TryFromValpNtNtB7_3val3ValE12try_from_valB7_
FN:111,_RNvXsI_NtCsdmZoVYnqinT_18soroban_env_common3numNtB5_6U32ValINtNtCs7L5q00ejtpZ_4core7convert5AsRefNtNtB7_3val3ValE6as_ref
FN:67,_RNvXININtCsdmZoVYnqinT_18soroban_env_common3nums31_0pENtB5_6I64ValINtNtB7_7convert10TryFromValpNtNtB7_3val3ValE12try_from_valB7_
FN:335,_RNvXININtCsdmZoVYnqinT_18soroban_env_common3nums57_0pEpINtNtB7_7compare7CompareNtB5_9U128SmallE7compareB7_
FN:116,_RNvXs84_NtCsdmZoVYnqinT_18soroban_env_common3numNtB6_9I256SmallINtNtCs7L5q00ejtpZ_4core7convert5AsMutNtNtB8_3val3ValE6as_mut
FN:141,_RNvMs11_NtCsdmZoVYnqinT_18soroban_env_common3numNtB6_6I32Val6to_val
FN:73,_RNvXININtCsdmZoVYnqinT_18soroban_env_common3nums7f_0pENtNtB7_3val3ValINtNtB7_7convert10TryFromValpNtB5_9U256SmallE12try_from_valB7_
FN:277,_RNvXsy_NtCsdmZoVYnqinT_18soroban_env_common6symbolNtB5_6SymbolNtNtB7_3val10ValConvert11is_val_type
FN:67,_RNvXININtCsdmZoVYnqinT_18soroban_env_common3nums7x_0pENtB5_10U256ObjectINtNtB7_7convert10TryFromValpNtNtB7_3val3ValE12try_from_valB7_
FN:173,_RNvXs3P_NtCsdmZoVYnqinT_18soroban_env_common3numNtB6_12TimepointValNtNtCs7L5q00ejtpZ_4core3fmt5Debug3fmt
FN:122,_RNvXs3S_NtCsdmZoVYnqinT_18soroban_env_common3numNtNtB8_3val3ValINtNtCs7L5q00ejtpZ_4core7convert4FromNtB6_12TimepointValE4from
FN:116,_RNvXs1l_NtCsdmZoVYnqinT_18soroban_env_common6symbolNtB6_6SymbolINtNtCs7L5q00ejtpZ_4core7convert5AsMutNtNtB8_3val3ValE6as_mut
FN:137,_RNvMs1o_NtCsdmZoVYnqinT_18soroban_env_common6symbolNtB6_6Symbol6as_val
FN:214,_RNvXs67_NtCsdmZoVYnqinT_18soroban_env_common3numNtB6_9I128SmallNtNtCs7L5q00ejtpZ_4core5clone5Clone5cloneB8_
FN:235,_RNvXs1B_NtCsdmZoVYnqinT_18soroban_env_common3numNtB6_9U64ObjectINtNtCs7L5q00ejtpZ_4core7convert7TryFromNtNtB8_6object6ObjectE8try_from
FN:73,_RNvXININtCsdmZoVYnqinT_18soroban_env_common3nums8K_0pENtNtB7_3val3ValINtNtB7_7convert10TryFromValpNtB5_7I256ValE12try_from_valB7_
FN:287,_RNvXs6T_NtCsdmZoVYnqinT_18soroban_env_common3numNtB6_7U256ValINtNtCs7L5q00ejtpZ_4core7convert4FromNtB6_9U256SmallE4from
FN:141,_RNvMs2p_NtCsdmZoVYnqinT_18soroban_env_common3numNtB6_8I64Small6to_val
FN:98,_RNvXsP_NtCsdmZoVYnqinT_18soroban_env_common3valNtB5_4VoidNtB5_12WasmiMarshal17marshal_from_self
FN:173,_RNvXs1V_NtCsdmZoVYnqinT_18soroban_env_common3numNtB6_6U64ValNtNtCs7L5q00ejtpZ_4core3fmt5Debug3fmt
FN:73,_RNvXININtCsdmZoVYnqinT_18soroban_env_common3nums7y_0pENtNtB7_3val3ValINtNtB7_7convert10TryFromValpNtB5_10U256ObjectE12try_from_valB7_
FN:98,_RNvXs2Y_NtCsdmZoVYnqinT_18soroban_env_common3numNtB6_6I64ValNtNtB8_3val12WasmiMarshal17marshal_from_self
FN:122,_RNvXs6u_NtCsdmZoVYnqinT_18soroban_env_common3numNtNtB8_3val3ValINtNtCs7L5q00ejtpZ_4core7convert4FromNtB6_10I128ObjectE4from
FN:73,_RNvXININtCsdmZoVYnqinT_18soroban_env_common3nums8c_0pENtNtB7_3val3ValINtNtB7_7convert10TryFromValpNtB5_9I256SmallE12try_from_valB7_
FN:173,_RNvXs3h_NtCsdmZoVYnqinT_18soroban_env_common3numNtB6_14TimepointSmallNtNtCs7L5q00ejtpZ_4core3fmt5Debug3fmt
FN:122,_RNvXs3k_NtCsdmZoVYnqinT_18soroban_env_common3numNtNtB8_3val3ValINtNtCs7L5q00ejtpZ_4core7convert4FromNtB6_14TimepointSmallE4from
FN:173,_RNvXsJ_NtCsdmZoVYnqinT_18soroban_env_common3valNtB5_4VoidNtNtCs7L5q00ejtpZ_4core3fmt5Debug3fmt
FN:173,_RNvXs4x_NtCsdmZoVYnqinT_18soroban_env_common3numNtB6_14DurationObjectNtNtCs7L5q00ejtpZ_4core3fmt5Debug3fmt
FN:98,_RNvXs12_NtCsdmZoVYnqinT_18soroban_env_common3numNtB6_6I32ValNtNtB8_3val12WasmiMarshal17marshal_from_self
FN:307,_RNvXs45_NtCsdmZoVYnqinT_18soroban_env_common3numNtB6_14DurationObjectINtNtCs7L5q00ejtpZ_4core7convert7TryFromNtB6_11DurationValE8try_from
FN:67,_RNvXININtCsdmZoVYnqinT_18soroban_env_common3nums2M_0pENtB5_9I64ObjectINtNtB7_7convert10TryFromValpNtNtB7_3val3ValE12try_from_valB7_
FN:287,_RNvXs7Q_NtCsdmZoVYnqinT_18soroban_env_common3numNtB6_7I256ValINtNtCs7L5q00ejtpZ_4core7convert4FromNtB6_9I256SmallE4from
FN:88,_RNvXs1p_NtCsdmZoVYnqinT_18soroban_env_common6symbolNtB6_6SymbolNtNtB8_3val12WasmiMarshal22try_marshal_from_value
FN:128,_RNvXs1Z_NtCsdmZoVYnqinT_18soroban_env_common3numNtNtB8_3val3ValINtNtCs7L5q00ejtpZ_4core7convert4FromRNtB6_6U64ValE4from
FN:342,_RNvXs58_NtCsdmZoVYnqinT_18soroban_env_common3numNtB6_9U128SmallNtNtCs7L5q00ejtpZ_4core3cmp10PartialOrd11partial_cmp
FN:122,_RNvXs1B_NtCsdmZoVYnqinT_18soroban_env_common3valNtB6_3ValINtNtCs7L5q00ejtpZ_4core7convert4FromNtB6_9MapObjectE4from
FN:98,_RNvXs2q_NtCsdmZoVYnqinT_18soroban_env_common3numNtB6_8I64SmallNtNtB8_3val12WasmiMarshal17marshal_from_self
FN:173,_RNvXsW_NtCsdmZoVYnqinT_18soroban_env_common3numNtB5_6I32ValNtNtCs7L5q00ejtpZ_4core3fmt5Debug3fmt
FN:128,_RNvXs2H_NtCsdmZoVYnqinT_18soroban_env_common3numNtNtB8_3val3ValINtNtCs7L5q00ejtpZ_4core7convert4FromRNtB6_9I64ObjectE4from
FN:141,_RNvMs2I_NtCsdmZoVYnqinT_18soroban_env_common3numNtB6_9I64Object6to_val
FN:128,_RNvXs3T_NtCsdmZoVYnqinT_18soroban_env_common3numNtNtB8_3val3ValINtNtCs7L5q00ejtpZ_4core7convert4FromRNtB6_12TimepointValE4from
FN:73,_RNvXININtCsdmZoVYnqinT_18soroban_env_common3vals2g_0pENtB5_3ValINtNtB7_7convert10TryFromValpbE12try_from_valB7_
FN:73,_RNvXININtCsdmZoVYnqinT_18soroban_env_common3nums3Z_0pENtNtB7_3val3ValINtNtB7_7convert10TryFromValpNtB5_12TimepointValE12try_from_valB7_
FN:73,_RNvXININtCsdmZoVYnqinT_18soroban_env_common3vals1p_0pENtB5_3ValINtNtB7_7convert10TryFromValpNtB5_9VecObjectE12try_from_valB7_
FN:88,_RNvXsR_NtCsdmZoVYnqinT_18soroban_env_common6symbolNtB5_11SymbolSmallNtNtB7_3val12WasmiMarshal22try_marshal_from_value
FN:67,_RNvXININtCsdmZoVYnqinT_18soroban_env_common3vals1H_0pENtB5_9MapObjectINtNtB7_7convert10TryFromValpNtB5_3ValE12try_from_valB7_
FN:173,_RNvXs2k_NtCsdmZoVYnqinT_18soroban_env_common3numNtB6_8I64SmallNtNtCs7L5q00ejtpZ_4core3fmt5Debug3fmt
FN:128,_RNvXs1r_NtCsdmZoVYnqinT_18soroban_env_common3numNtNtB8_3val3ValINtNtCs7L5q00ejtpZ_4core7convert4FromRNtB6_8U64SmallE4from
FN:300,_RNvXs44_NtCsdmZoVYnqinT_18soroban_env_common3numNtB6_13DurationSmallINtNtCs7L5q00ejtpZ_4core7convert7TryFromNtB6_11DurationValE8try_from
FN:122,_RNvXs3D_NtCsdmZoVYnqinT_18soroban_env_common3numNtNtB8_3val3ValINtNtCs7L5q00ejtpZ_4core7convert4FromNtB6_15TimepointObjectE4from
FN:335,_RNvXININtCsdmZoVYnqinT_18soroban_env_common3nums1j_0pEpINtNtB7_7compare7CompareNtB5_8U64SmallE7compareB7_
FN:214,_RNvXs7n_NtCsdmZoVYnqinT_18soroban_env_common3numNtB6_10U256ObjectNtNtCs7L5q00ejtpZ_4core5clone5Clone5cloneB8_
FN:141,_RNvMsf_NtCsdmZoVYnqinT_18soroban_env_common6stringNtB5_12StringObject6to_val
FN:88,_RNvXs7J_NtCsdmZoVYnqinT_18soroban_env_common3numNtB6_7U256ValNtNtB8_3val12WasmiMarshal22try_marshal_from_value
FN:137,_RNvMs8F_NtCsdmZoVYnqinT_18soroban_env_common3numNtB6_7I256Val6as_val
FN:73,_RNvXININtCsdmZoVYnqinT_18soroban_env_common3nums3r_0pENtNtB7_3val3ValINtNtB7_7convert10TryFromValpNtB5_14TimepointSmallE12try_from_valB7_
FN:200,_RNvXs6_NtCsdmZoVYnqinT_18soroban_env_common12storage_typeNtB5_11StorageTypeNtNtB7_3val12WasmiMarshal17marshal_from_self
FN:214,_RNvXs5t_NtCsdmZoVYnqinT_18soroban_env_common3numNtB6_10U128ObjectNtNtCs7L5q00ejtpZ_4core5clone5Clone5cloneB8_
FN:287,_RNvXs4Z_NtCsdmZoVYnqinT_18soroban_env_common3numNtB6_7U128ValINtNtCs7L5q00ejtpZ_4core7convert4FromNtB6_9U128SmallE4from
FN:277,_RNvXs5V_NtCsdmZoVYnqinT_18soroban_env_common3numNtB6_7I128ValNtNtB8_3val10ValConvert11is_val_type
FN:67,_RNvXININtCsdmZoVYnqinT_18soroban_env_common3nums3J_0pENtB5_15TimepointObjectINtNtB7_7convert10TryFromValpNtNtB7_3val3ValE12try_from_valB7_
FN:141,_RNvMs1L_NtCsdmZoVYnqinT_18soroban_env_common3numNtB6_9U64Object6to_val
FN:111,_RNvXs1k_NtCsdmZoVYnqinT_18soroban_env_common6symbolNtB6_6SymbolINtNtCs7L5q00ejtpZ_4core7convert5AsRefNtNtB8_3val3ValE6as_ref
FN:88,_RNvXs1a_NtCsdmZoVYnqinT_18soroban_env_common6symbolNtB6_12SymbolObjectNtNtB8_3val12WasmiMarshal22try_marshal_from_value
FN:137,_RNvMs87_NtCsdmZoVYnqinT_18soroban_env_common3numNtB6_9I256Small6as_val
FN:300,_RNvXs37_NtCsdmZoVYnqinT_18soroban_env_common3numNtB6_14TimepointSmallINtNtCs7L5q00ejtpZ_4core7convert7TryFromNtB6_12TimepointValE8try_from
FN:173,_RNvXs2D_NtCsdmZoVYnqinT_18soroban_env_common3numNtB6_9I64ObjectNtNtCs7L5q00ejtpZ_4core3fmt5Debug3fmt
FN:122,_RNvXs2G_NtCsdmZoVYnqinT_18soroban_env_common3numNtNtB8_3val3ValINtNtCs7L5q00ejtpZ_4core7convert4FromNtB6_9I64ObjectE4from
FN:307,_RNvXs2b_NtCsdmZoVYnqinT_18soroban_env_common3numNtB6_9I64ObjectINtNtCs7L5q00ejtpZ_4core7convert7TryFromNtB6_6I64ValE8try_from
FN:88,_RNvXs7b_NtCsdmZoVYnqinT_18soroban_env_common3numNtB6_9U256SmallNtNtB8_3val12WasmiMarshal22try_marshal_from_value
FN:73,_RNvXININtCsdmZoVYnqinT_18soroban_env_common3nums4o_0pENtNtB7_3val3ValINtNtB7_7convert10TryFromValpNtB5_13DurationSmallE12try_from_valB7_
FN:67,_RNvXININtCsdmZoVYnqinT_18soroban_env_common3nums4G_0pENtB5_14DurationObjectINtNtB7_7convert10TryFromValpNtNtB7_3val3ValE12try_from_valB7_
FN:214,_RNvXs1Q_NtCsdmZoVYnqinT_18soroban_env_common3valNtB6_13AddressObjectNtNtCs7L5q00ejtpZ_4core5clone5Clone5cloneB8_
FN:122,_RNvXsK_NtCsdmZoVYnqinT_18soroban_env_common3numNtNtB7_3val3ValINtNtCs7L5q00ejtpZ_4core7convert4FromNtB5_6U32ValE4from
FN:287,_RNvXs42_NtCsdmZoVYnqinT_18soroban_env_common3numNtB6_11DurationValINtNtCs7L5q00ejtpZ_4core7convert4FromNtB6_13DurationSmallE4from
FN:257,_RNvXININtCsdmZoVYnqinT_18soroban_env_common3vals1c_0pEpINtNtB7_7compare7CompareNtB5_9VecObjectE7compareB7_
FN:137,_RNvMs5O_NtCsdmZoVYnqinT_18soroban_env_common3numNtB6_7U128Val6as_val
FN:98,_RNvXs1M_NtCsdmZoVYnqinT_18soroban_env_common3numNtB6_9U64ObjectNtNtB8_3val12WasmiMarshal17marshal_from_self
FN:342,_RNvXs1k_NtCsdmZoVYnqinT_18soroban_env_common3numNtB6_8U64SmallNtNtCs7L5q00ejtpZ_4core3cmp10PartialOrd11partial_cmp
FN:128,_RNvXs4Q_NtCsdmZoVYnqinT_18soroban_env_common3numNtNtB8_3val3ValINtNtCs7L5q00ejtpZ_4core7convert4FromRNtB6_11DurationValE4from
FN:73,_RNvXININtCsdmZoVYnqinT_18soroban_env_common3nums5T_0pENtNtB7_3val3ValINtNtB7_7convert10TryFromValpNtB5_7U128ValE12try_from_valB7_
FN:319,_RINvXs7V_NtCsdmZoVYnqinT_18soroban_env_common3numNtB7_9I256SmallNtNtCs7L5q00ejtpZ_4core4hash4Hash4hashpEB9_
FN:293,_RNvXs1c_NtCsdmZoVYnqinT_18soroban_env_common3numNtB6_6U64ValINtNtCs7L5q00ejtpZ_4core7convert4FromNtB6_9U64ObjectE4from
FN:214,_RNvXsd_NtCsdmZoVYnqinT_18soroban_env_common5bytesNtB5_11BytesObjectNtNtCs7L5q00ejtpZ_4core5clone5Clone5cloneB7_
FN:137,_RNvMs6L_NtCsdmZoVYnqinT_18soroban_env_common3numNtB6_7I128Val6as_val
FN:116,_RNvXsL_NtCsdmZoVYnqinT_18soroban_env_common3valNtB5_4VoidINtNtCs7L5q00ejtpZ_4core7convert5AsMutNtB5_3ValE6as_mut
FN:111,_RNvXs76_NtCsdmZoVYnqinT_18soroban_env_common3numNtB6_9U256SmallINtNtCs7L5q00ejtpZ_4core7convert5AsRefNtNtB8_3val3ValE6as_ref
FN:214,_RNvXs3z_NtCsdmZoVYnqinT_18soroban_env_common3numNtB6_15TimepointObjectNtNtCs7L5q00ejtpZ_4core5clone5Clone5cloneB8_
FN:73,_RNvXININtCsdmZoVYnqinT_18soroban_env_common3nums5l_0pENtNtB7_3val3ValINtNtB7_7convert10TryFromValpNtB5_9U128SmallE12try_from_valB7_
FN:116,_RNvXs4O_NtCsdmZoVYnqinT_18soroban_env_common3numNtB6_11DurationValINtNtCs7L5q00ejtpZ_4core7convert5AsMutNtNtB8_3val3ValE6as_mut
FN:88,_RNvXs1l_NtCsdmZoVYnqinT_18soroban_env_common3valNtB6_9VecObjectNtB6_12WasmiMarshal22try_marshal_from_value
FN:122,_RNvXsd_NtCsdmZoVYnqinT_18soroban_env_common6stringNtNtB7_3val3ValINtNtCs7L5q00ejtpZ_4core7convert4FromNtB5_12StringObjectE4from
FN:137,_RNvMs4R_NtCsdmZoVYnqinT_18soroban_env_common3numNtB6_11DurationVal6as_val
FN:326,_RNvXsF_NtCsdmZoVYnqinT_18soroban_env_common6symbolNtB5_11SymbolSmallNtNtCs7L5q00ejtpZ_4core3cmp9PartialEq2eq
FN:88,_RNvXs8r_NtCsdmZoVYnqinT_18soroban_env_common3numNtB6_10I256ObjectNtNtB8_3val12WasmiMarshal22try_marshal_from_value
FN:192,_RNvXs6_NtCsdmZoVYnqinT_18soroban_env_common12storage_typeNtB5_11StorageTypeNtNtB7_3val12WasmiMarshal22try_marshal_from_value
FN:229,_RNvXsY_NtCsdmZoVYnqinT_18soroban_env_common6symbolNtNtB7_6object6ObjectINtNtCs7L5q00ejtpZ_4core7convert4FromNtB5_12SymbolObjectE4from
FN:137,_RNvMs6d_NtCsdmZoVYnqinT_18soroban_env_common3numNtB6_9I128Small6as_val
FN:300,_RNvXs1d_NtCsdmZoVYnqinT_18soroban_env_common3numNtB6_8U64SmallINtNtCs7L5q00ejtpZ_4core7convert7TryFromNtB6_6U64ValE8try_from
FN:88,_RNvXs6x_NtCsdmZoVYnqinT_18soroban_env_common3numNtB6_10I128ObjectNtNtB8_3val12WasmiMarshal22try_marshal_from_value
FN:326,_RNvXs62_NtCsdmZoVYnqinT_18soroban_env_common3numNtB6_9I128SmallNtNtCs7L5q00ejtpZ_4core3cmp9PartialEq2eq
FN:235,_RNvXs7j_NtCsdmZoVYnqinT_18soroban_env_common3numNtB6_10U256ObjectINtNtCs7L5q00ejtpZ_4core7convert7TryFromNtNtB8_6object6ObjectE8try_from
FN:67,_RNvXININtCsdmZoVYnqinT_18soroban_env_common3nums7M_0pENtB5_7U256ValINtNtB7_7convert10TryFromValpNtNtB7_3val3ValE12try_from_valB7_
FN:116,_RNvXs2m_NtCsdmZoVYnqinT_18soroban_env_common3numNtB6_8I64SmallINtNtCs7L5q00ejtpZ_4core7convert5AsMutNtNtB8_3val3ValE6as_mut
FN:122,_RNvXse_NtCsdmZoVYnqinT_18soroban_env_common6objectNtNtB7_3val3ValINtNtCs7L5q00ejtpZ_4core7convert4FromNtB5_6ObjectE4from
FN:111,_RNvXs7p_NtCsdmZoVYnqinT_18soroban_env_common3numNtB6_10U256ObjectINtNtCs7L5q00ejtpZ_4core7convert5AsRefNtNtB8_3val3ValE6as_ref
FN:98,_RNvXs8G_NtCsdmZoVYnqinT_18soroban_env_common3numNtB6_7I256ValNtNtB8_3val12WasmiMarshal17marshal_from_self
FN:214,_RNvXsG_NtCsdmZoVYnqinT_18soroban_env_common3numNtB5_6U32ValNtNtCs7L5q00ejtpZ_4core5clone5Clone5cloneB7_
FN:128,_RNvXs6K_NtCsdmZoVYnqinT_18soroban_env_common3numNtNtB8_3val3ValINtNtCs7L5q00ejtpZ_4core7convert4FromRNtB6_7I128ValE4from
FN:67,_RNvXININtCsdmZoVYnqinT_18soroban_env_common3nums7e_0pENtB5_9U256SmallINtNtB7_7convert10TryFromValpNtNtB7_3val3ValE12try_from_valB7_
FN:235,_RNvXsZ_NtCsdmZoVYnqinT_18soroban_env_common6symbolNtB5_12SymbolObjectINtNtCs7L5q00ejtpZ_4core7convert7TryFromNtNtB7_6object6ObjectE8try_from
FN:73,_RNvXININtCsdmZoVYnqinT_18soroban_env_common3nums25_0pENtNtB7_3val3ValINtNtB7_7convert10TryFromValpNtB5_6U64ValE12try_from_valB7_
FN:173,_RNvXs1j_NtCsdmZoVYnqinT_18soroban_env_common6symbolNtB6_6SymbolNtNtCs7L5q00ejtpZ_4core3fmt5Debug3fmt
FN:326,_RNvXs55_NtCsdmZoVYnqinT_18soroban_env_common3numNtB6_9U128SmallNtNtCs7L5q00ejtpZ_4core3cmp9PartialEq2eq
FN:137,_RNvMs4C_NtCsdmZoVYnqinT_18soroban_env_common3numNtB6_14DurationObject6as_val
FN:229,_RNvXs7i_NtCsdmZoVYnqinT_18soroban_env_common3numNtNtB8_6object6ObjectINtNtCs7L5q00ejtpZ_4core7convert4FromNtB6_10U256ObjectE4from
FN:67,_RNvXININtCsdmZoVYnqinT_18soroban_env_common3vals2r_0pENtNtB7_5error5ErrorINtNtB7_7convert10TryFromValpNtB5_3ValE12try_from_valB7_
FN:116,_RNvXs2F_NtCsdmZoVYnqinT_18soroban_env_common3numNtB6_9I64ObjectINtNtCs7L5q00ejtpZ_4core7convert5AsMutNtNtB8_3val3ValE6as_mut
FN:128,_RNvXs6c_NtCsdmZoVYnqinT_18soroban_env_common3numNtNtB8_3val3ValINtNtCs7L5q00ejtpZ_4core7convert4FromRNtB6_9I128SmallE4from
FN:111,_RNvXs6s_NtCsdmZoVYnqinT_18soroban_env_common3numNtB6_10I128ObjectINtNtCs7L5q00ejtpZ_4core7convert5AsRefNtNtB8_3val3ValE6as_ref
FN:137,_RNvMs2X_NtCsdmZoVYnqinT_18soroban_env_common3numNtB6_6I64Val6as_val
FN:141,_RNvMs8F_NtCsdmZoVYnqinT_18soroban_env_common3numNtB6_7I256Val6to_val
FN:73,_RNvXININtCsdmZoVYnqinT_18soroban_env_common3nums1x_0pENtNtB7_3val3ValINtNtB7_7convert10TryFromValpNtB5_8U64SmallE12try_from_valB7_
FN:229,_RNvXs19_NtCsdmZoVYnqinT_18soroban_env_common3valNtNtB8_6object6ObjectINtNtCs7L5q00ejtpZ_4core7convert4FromNtB6_9VecObjectE4from
FN:257,_RNvXININtCsdmZoVYnqinT_18soroban_env_common3nums5r_0pEpINtNtB7_7compare7CompareNtB5_10U128ObjectE7compareB7_
FN:173,_RNvXsL_NtCsdmZoVYnqinT_18soroban_env_common6symbolNtB5_11SymbolSmallNtNtCs7L5q00ejtpZ_4core3fmt5Debug3fmt
FN:73,_RNvXININtCsdmZoVYnqinT_18soroban_env_common5bytesso_0pENtNtB7_3val3ValINtNtB7_7convert10TryFromValpNtB5_11BytesObjectE12try_from_valB7_
FN:281,_RNvXs41_NtCsdmZoVYnqinT_18soroban_env_common3numNtB6_11DurationValNtNtB8_3val10ValConvert18unchecked_from_val
FN:67,_RNvXININtCsdmZoVYnqinT_18soroban_env_common6symbols1s_0pENtB5_6SymbolINtNtB7_7convert10TryFromValpNtNtB7_3val3ValE12try_from_valB7_
FN:235,_RNvXs1t_NtCsdmZoVYnqinT_18soroban_env_common3valNtB6_9MapObjectINtNtCs7L5q00ejtpZ_4core7convert7TryFromNtNtB8_6object6ObjectE8try_from
FN:214,_RNvXs9_NtCsdmZoVYnqinT_18soroban_env_common6stringNtB5_12StringObjectNtNtCs7L5q00ejtpZ_4core5clone5Clone5cloneB7_
FN:137,_RNvMs5z_NtCsdmZoVYnqinT_18soroban_env_common3numNtB6_10U128Object6as_val
FN:88,_RNvXs4D_NtCsdmZoVYnqinT_18soroban_env_common3numNtB6_14DurationObjectNtNtB8_3val12WasmiMarshal22try_marshal_from_value
FN:116,_RNvXs3C_NtCsdmZoVYnqinT_18soroban_env_common3numNtB6_15TimepointObjectINtNtCs7L5q00ejtpZ_4core7convert5AsMutNtNtB8_3val3ValE6as_mut
FN:229,_RNvXs6l_NtCsdmZoVYnqinT_18soroban_env_common3numNtNtB8_6object6ObjectINtNtCs7L5q00ejtpZ_4core7convert4FromNtB6_10I128ObjectE4from
FN:313,_RNvMsD_NtCsdmZoVYnqinT_18soroban_env_common6symbolNtB5_6Symbol10from_small
FN:235,_RNvXs5p_NtCsdmZoVYnqinT_18soroban_env_common3numNtB6_10U128ObjectINtNtCs7L5q00ejtpZ_4core7convert7TryFromNtNtB8_6object6ObjectE8try_from
FN:141,_RNvMs6d_NtCsdmZoVYnqinT_18soroban_env_common3numNtB6_9I128Small6to_val
FN:214,_RNvXs1F_NtCsdmZoVYnqinT_18soroban_env_common3numNtB6_9U64ObjectNtNtCs7L5q00ejtpZ_4core5clone5Clone5cloneB8_
FN:67,_RNvXININtCsdmZoVYnqinT_18soroban_env_common3vals2f_0pEbINtNtB7_7convert10TryFromValpNtB5_3ValE12try_from_valB7_
FN:67,_RNvXININtCsdmZoVYnqinT_18soroban_env_common3vals1o_0pENtB5_9VecObjectINtNtB7_7convert10TryFromValpNtB5_3ValE12try_from_valB7_
FN:141,_RNvMs7I_NtCsdmZoVYnqinT_18soroban_env_common3numNtB6_7U256Val6to_val
FN:98,_RNvXs6M_NtCsdmZoVYnqinT_18soroban_env_common3numNtB6_7I128ValNtNtB8_3val12WasmiMarshal17marshal_from_self
FN:229,_RNvXs1s_NtCsdmZoVYnqinT_18soroban_env_common3valNtNtB8_6object6ObjectINtNtCs7L5q00ejtpZ_4core7convert4FromNtB6_9MapObjectE4from
FN:137,_RNvMs1W_NtCsdmZoVYnqinT_18soroban_env_common3valNtB6_13AddressObject6as_val
FN:235,_RNvXs1M_NtCsdmZoVYnqinT_18soroban_env_common3valNtB6_13AddressObjectINtNtCs7L5q00ejtpZ_4core7convert7TryFromNtNtB8_6object6ObjectE8try_from
FN:173,_RNvXs8A_NtCsdmZoVYnqinT_18soroban_env_common3numNtB6_7I256ValNtNtCs7L5q00ejtpZ_4core3fmt5Debug3fmt
FN:122,_RNvXs8D_NtCsdmZoVYnqinT_18soroban_env_common3numNtNtB8_3val3ValINtNtCs7L5q00ejtpZ_4core7convert4FromNtB6_7I256ValE4from
FN:67,_RNvXININtCsdmZoVYnqinT_18soroban_env_common6symbols1d_0pENtB5_12SymbolObjectINtNtB7_7convert10TryFromValpNtNtB7_3val3ValE12try_from_valB7_
FN:141,_RNvMs19_NtCsdmZoVYnqinT_18soroban_env_common6symbolNtB6_12SymbolObject6to_val
FN:173,_RNvXs6G_NtCsdmZoVYnqinT_18soroban_env_common3numNtB6_7I128ValNtNtCs7L5q00ejtpZ_4core3fmt5Debug3fmt
FN:98,_RNvXs6e_NtCsdmZoVYnqinT_18soroban_env_common3numNtB6_9I128SmallNtNtB8_3val12WasmiMarshal17marshal_from_self
FN:229,_RNvXs3u_NtCsdmZoVYnqinT_18soroban_env_common3numNtNtB8_6object6ObjectINtNtCs7L5q00ejtpZ_4core7convert4FromNtB6_15TimepointObjectE4from
FN:141,_RNvMs6w_NtCsdmZoVYnqinT_18soroban_env_common3numNtB6_10I128Object6to_val
FN:10,_RNvXsU_NtCsdmZoVYnqinT_18soroban_env_common3valNtB5_4VoidNtB5_10ValConvert11is_val_type
FN:137,_RNvMs20_NtCsdmZoVYnqinT_18soroban_env_common3numNtB6_6U64Val6as_val
FN:128,_RNvXs1K_NtCsdmZoVYnqinT_18soroban_env_common3numNtNtB8_3val3ValINtNtCs7L5q00ejtpZ_4core7convert4FromRNtB6_9U64ObjectE4from
FN:257,_RNvXININtCsdmZoVYnqinT_18soroban_env_common5bytessb_0pEpINtNtB7_7compare7CompareNtB5_11BytesObjectE7compareB7_
FN:173,_RNvXs82_NtCsdmZoVYnqinT_18soroban_env_common3numNtB6_9I256SmallNtNtCs7L5q00ejtpZ_4core3fmt5Debug3fmt
FN:122,_RNvXs85_NtCsdmZoVYnqinT_18soroban_env_common3numNtNtB8_3val3ValINtNtCs7L5q00ejtpZ_4core7convert4FromNtB6_9I256SmallE4from
FN:137,_RNvMsj_NtCsdmZoVYnqinT_18soroban_env_common5bytesNtB5_11BytesObject6as_val
FN:173,_RNvXs68_NtCsdmZoVYnqinT_18soroban_env_common3numNtB6_9I128SmallNtNtCs7L5q00ejtpZ_4core3fmt5Debug3fmt
FN:128,_RNvXs8p_NtCsdmZoVYnqinT_18soroban_env_common3numNtNtB8_3val3ValINtNtCs7L5q00ejtpZ_4core7convert4FromRNtB6_10I256ObjectE4from
FN:137,_RNvMsg_NtCsdmZoVYnqinT_18soroban_env_common6objectNtB5_6Object6as_val
FN:111,_RNvXs3Q_NtCsdmZoVYnqinT_18soroban_env_common3numNtB6_12TimepointValINtNtCs7L5q00ejtpZ_4core7convert5AsRefNtNtB8_3val3ValE6as_ref
FN:300,_RNvXs7S_NtCsdmZoVYnqinT_18soroban_env_common3numNtB6_9I256SmallINtNtCs7L5q00ejtpZ_4core7convert7TryFromNtB6_7I256ValE8try_from
FN:10,_RNvXs17_NtCsdmZoVYnqinT_18soroban_env_common3numNtB6_6I32ValNtNtB8_3val10ValConvert11is_val_type
FN:229,_RNvXs4r_NtCsdmZoVYnqinT_18soroban_env_common3numNtNtB8_6object6ObjectINtNtCs7L5q00ejtpZ_4core7convert4FromNtB6_14DurationObjectE4from
FN:141,_RNvMs7t_NtCsdmZoVYnqinT_18soroban_env_common3numNtB6_10U256Object6to_val
FN:257,_RNvXININtCsdmZoVYnqinT_18soroban_env_common3nums1D_0pEpINtNtB7_7compare7CompareNtB5_9U64ObjectE7compareB7_
FN:141,_RNvMs4j_NtCsdmZoVYnqinT_18soroban_env_common3numNtB6_13DurationSmall6to_val
FN:313,_RNvMs60_NtCsdmZoVYnqinT_18soroban_env_common3numNtB6_7I128Val10from_small
FN:229,_RNvXs2x_NtCsdmZoVYnqinT_18soroban_env_common3numNtNtB8_6object6ObjectINtNtCs7L5q00ejtpZ_4core7convert4FromNtB6_9I64ObjectE4from
FN:141,_RNvMs5z_NtCsdmZoVYnqinT_18soroban_env_common3numNtB6_10U128Object6to_val
FN:173,_RNvXs14_NtCsdmZoVYnqinT_18soroban_env_common6symbolNtB6_12SymbolObjectNtNtCs7L5q00ejtpZ_4core3fmt5Debug3fmt
FN:293,_RNvXsA_NtCsdmZoVYnqinT_18soroban_env_common6symbolNtB5_6SymbolINtNtCs7L5q00ejtpZ_4core7convert4FromNtB5_12SymbolObjectE4from
FN:141,_RNvMs5O_NtCsdmZoVYnqinT_18soroban_env_common3numNtB6_7U128Val6to_val
FN:128,_RNvXs12_NtCsdmZoVYnqinT_18soroban_env_common3valNtB6_3ValINtNtCs7L5q00ejtpZ_4core7convert4FromRNtB6_4BoolE4from
FN:300,_RNvXs6V_NtCsdmZoVYnqinT_18soroban_env_common3numNtB6_9U256SmallINtNtCs7L5q00ejtpZ_4core7convert7TryFromNtB6_7U256ValE8try_from
